ARM GAS  /tmp/ccoTsclT.s 			page 1


   1              		.syntax unified
   2              		.cpu cortex-m4
   3              		.eabi_attribute 27, 3
   4              		.fpu fpv4-sp-d16
   5              		.eabi_attribute 20, 1
   6              		.eabi_attribute 21, 1
   7              		.eabi_attribute 23, 3
   8              		.eabi_attribute 24, 1
   9              		.eabi_attribute 25, 1
  10              		.eabi_attribute 26, 1
  11              		.eabi_attribute 30, 6
  12              		.eabi_attribute 34, 1
  13              		.eabi_attribute 18, 4
  14              		.thumb
  15              		.file	"stm32f429i_discovery.c"
  16              		.text
  17              	.Ltext0:
  18              		.cfi_sections	.debug_frame
  19              		.global	GPIO_PORT
  20              		.section	.data.GPIO_PORT,"aw",%progbits
  21              		.align	2
  24              	GPIO_PORT:
  25 0000 00180240 		.word	1073879040
  26 0004 00180240 		.word	1073879040
  27              		.global	GPIO_PIN
  28              		.section	.rodata.GPIO_PIN,"a",%progbits
  29              		.align	2
  32              	GPIO_PIN:
  33 0000 0020     		.short	8192
  34 0002 0040     		.short	16384
  35              		.global	BUTTON_PORT
  36              		.section	.data.BUTTON_PORT,"aw",%progbits
  37              		.align	2
  40              	BUTTON_PORT:
  41 0000 00000240 		.word	1073872896
  42              		.global	BUTTON_PIN
  43              		.section	.rodata.BUTTON_PIN,"a",%progbits
  44              		.align	2
  47              	BUTTON_PIN:
  48 0000 0100     		.short	1
  49              		.global	BUTTON_IRQn
  50 0002 0000     		.section	.rodata.BUTTON_IRQn,"a",%progbits
  51              		.align	2
  54              	BUTTON_IRQn:
  55 0000 06       		.byte	6
  56              		.global	I2cxTimeout
  57 0001 000000   		.section	.data.I2cxTimeout,"aw",%progbits
  58              		.align	2
  61              	I2cxTimeout:
  62 0000 00300000 		.word	12288
  63              		.global	SpixTimeout
  64              		.section	.data.SpixTimeout,"aw",%progbits
  65              		.align	2
  68              	SpixTimeout:
  69 0000 00100000 		.word	4096
  70              		.comm	I2cHandle,60,4
  71              		.section	.bss.SpiHandle,"aw",%nobits
ARM GAS  /tmp/ccoTsclT.s 			page 2


  72              		.align	2
  75              	SpiHandle:
  76 0000 00000000 		.space	88
  76      00000000 
  76      00000000 
  76      00000000 
  76      00000000 
  77              		.section	.bss.Is_LCD_IO_Initialized,"aw",%nobits
  80              	Is_LCD_IO_Initialized:
  81 0000 00       		.space	1
  82              		.section	.text.BSP_GetVersion,"ax",%progbits
  83              		.align	2
  84              		.global	BSP_GetVersion
  85              		.thumb
  86              		.thumb_func
  88              	BSP_GetVersion:
  89              	.LFB125:
  90              		.file 1 "Drivers/BSP/STM32F429I-Discovery/stm32f429i_discovery.c"
   1:Drivers/BSP/STM32F429I-Discovery/stm32f429i_discovery.c **** /**
   2:Drivers/BSP/STM32F429I-Discovery/stm32f429i_discovery.c ****   ******************************************************************************
   3:Drivers/BSP/STM32F429I-Discovery/stm32f429i_discovery.c ****   * @file    stm32f429i_discovery.c
   4:Drivers/BSP/STM32F429I-Discovery/stm32f429i_discovery.c ****   * @author  MCD Application Team
   5:Drivers/BSP/STM32F429I-Discovery/stm32f429i_discovery.c ****   * @version V2.1.2
   6:Drivers/BSP/STM32F429I-Discovery/stm32f429i_discovery.c ****   * @date    02-March-2015
   7:Drivers/BSP/STM32F429I-Discovery/stm32f429i_discovery.c ****   * @brief   This file provides set of firmware functions to manage Leds and
   8:Drivers/BSP/STM32F429I-Discovery/stm32f429i_discovery.c ****   *          push-button available on STM32F429I-Discovery Kit from STMicroelectronics.
   9:Drivers/BSP/STM32F429I-Discovery/stm32f429i_discovery.c ****   ******************************************************************************
  10:Drivers/BSP/STM32F429I-Discovery/stm32f429i_discovery.c ****   * @attention
  11:Drivers/BSP/STM32F429I-Discovery/stm32f429i_discovery.c ****   *
  12:Drivers/BSP/STM32F429I-Discovery/stm32f429i_discovery.c ****   * <h2><center>&copy; COPYRIGHT(c) 2015 STMicroelectronics</center></h2>
  13:Drivers/BSP/STM32F429I-Discovery/stm32f429i_discovery.c ****   *
  14:Drivers/BSP/STM32F429I-Discovery/stm32f429i_discovery.c ****   * Redistribution and use in source and binary forms, with or without modification,
  15:Drivers/BSP/STM32F429I-Discovery/stm32f429i_discovery.c ****   * are permitted provided that the following conditions are met:
  16:Drivers/BSP/STM32F429I-Discovery/stm32f429i_discovery.c ****   *   1. Redistributions of source code must retain the above copyright notice,
  17:Drivers/BSP/STM32F429I-Discovery/stm32f429i_discovery.c ****   *      this list of conditions and the following disclaimer.
  18:Drivers/BSP/STM32F429I-Discovery/stm32f429i_discovery.c ****   *   2. Redistributions in binary form must reproduce the above copyright notice,
  19:Drivers/BSP/STM32F429I-Discovery/stm32f429i_discovery.c ****   *      this list of conditions and the following disclaimer in the documentation
  20:Drivers/BSP/STM32F429I-Discovery/stm32f429i_discovery.c ****   *      and/or other materials provided with the distribution.
  21:Drivers/BSP/STM32F429I-Discovery/stm32f429i_discovery.c ****   *   3. Neither the name of STMicroelectronics nor the names of its contributors
  22:Drivers/BSP/STM32F429I-Discovery/stm32f429i_discovery.c ****   *      may be used to endorse or promote products derived from this software
  23:Drivers/BSP/STM32F429I-Discovery/stm32f429i_discovery.c ****   *      without specific prior written permission.
  24:Drivers/BSP/STM32F429I-Discovery/stm32f429i_discovery.c ****   *
  25:Drivers/BSP/STM32F429I-Discovery/stm32f429i_discovery.c ****   * THIS SOFTWARE IS PROVIDED BY THE COPYRIGHT HOLDERS AND CONTRIBUTORS "AS IS"
  26:Drivers/BSP/STM32F429I-Discovery/stm32f429i_discovery.c ****   * AND ANY EXPRESS OR IMPLIED WARRANTIES, INCLUDING, BUT NOT LIMITED TO, THE
  27:Drivers/BSP/STM32F429I-Discovery/stm32f429i_discovery.c ****   * IMPLIED WARRANTIES OF MERCHANTABILITY AND FITNESS FOR A PARTICULAR PURPOSE ARE
  28:Drivers/BSP/STM32F429I-Discovery/stm32f429i_discovery.c ****   * DISCLAIMED. IN NO EVENT SHALL THE COPYRIGHT HOLDER OR CONTRIBUTORS BE LIABLE
  29:Drivers/BSP/STM32F429I-Discovery/stm32f429i_discovery.c ****   * FOR ANY DIRECT, INDIRECT, INCIDENTAL, SPECIAL, EXEMPLARY, OR CONSEQUENTIAL
  30:Drivers/BSP/STM32F429I-Discovery/stm32f429i_discovery.c ****   * DAMAGES (INCLUDING, BUT NOT LIMITED TO, PROCUREMENT OF SUBSTITUTE GOODS OR
  31:Drivers/BSP/STM32F429I-Discovery/stm32f429i_discovery.c ****   * SERVICES; LOSS OF USE, DATA, OR PROFITS; OR BUSINESS INTERRUPTION) HOWEVER
  32:Drivers/BSP/STM32F429I-Discovery/stm32f429i_discovery.c ****   * CAUSED AND ON ANY THEORY OF LIABILITY, WHETHER IN CONTRACT, STRICT LIABILITY,
  33:Drivers/BSP/STM32F429I-Discovery/stm32f429i_discovery.c ****   * OR TORT (INCLUDING NEGLIGENCE OR OTHERWISE) ARISING IN ANY WAY OUT OF THE USE
  34:Drivers/BSP/STM32F429I-Discovery/stm32f429i_discovery.c ****   * OF THIS SOFTWARE, EVEN IF ADVISED OF THE POSSIBILITY OF SUCH DAMAGE.
  35:Drivers/BSP/STM32F429I-Discovery/stm32f429i_discovery.c ****   *
  36:Drivers/BSP/STM32F429I-Discovery/stm32f429i_discovery.c ****   ******************************************************************************
  37:Drivers/BSP/STM32F429I-Discovery/stm32f429i_discovery.c ****   */  
  38:Drivers/BSP/STM32F429I-Discovery/stm32f429i_discovery.c ****   
  39:Drivers/BSP/STM32F429I-Discovery/stm32f429i_discovery.c **** /* Includes ------------------------------------------------------------------*/
ARM GAS  /tmp/ccoTsclT.s 			page 3


  40:Drivers/BSP/STM32F429I-Discovery/stm32f429i_discovery.c **** #include "stm32f429i_discovery.h"
  41:Drivers/BSP/STM32F429I-Discovery/stm32f429i_discovery.c **** 
  42:Drivers/BSP/STM32F429I-Discovery/stm32f429i_discovery.c **** /** @addtogroup BSP
  43:Drivers/BSP/STM32F429I-Discovery/stm32f429i_discovery.c ****   * @{
  44:Drivers/BSP/STM32F429I-Discovery/stm32f429i_discovery.c ****   */ 
  45:Drivers/BSP/STM32F429I-Discovery/stm32f429i_discovery.c **** 
  46:Drivers/BSP/STM32F429I-Discovery/stm32f429i_discovery.c **** /** @addtogroup STM32F429I_DISCOVERY
  47:Drivers/BSP/STM32F429I-Discovery/stm32f429i_discovery.c ****   * @{
  48:Drivers/BSP/STM32F429I-Discovery/stm32f429i_discovery.c ****   */
  49:Drivers/BSP/STM32F429I-Discovery/stm32f429i_discovery.c ****       
  50:Drivers/BSP/STM32F429I-Discovery/stm32f429i_discovery.c **** /** @defgroup STM32F429I_DISCOVERY_LOW_LEVEL 
  51:Drivers/BSP/STM32F429I-Discovery/stm32f429i_discovery.c ****   * @brief This file provides set of firmware functions to manage Leds and push-button
  52:Drivers/BSP/STM32F429I-Discovery/stm32f429i_discovery.c ****   *        available on STM32F429I-Discovery Kit from STMicroelectronics.
  53:Drivers/BSP/STM32F429I-Discovery/stm32f429i_discovery.c ****   * @{
  54:Drivers/BSP/STM32F429I-Discovery/stm32f429i_discovery.c ****   */ 
  55:Drivers/BSP/STM32F429I-Discovery/stm32f429i_discovery.c **** 
  56:Drivers/BSP/STM32F429I-Discovery/stm32f429i_discovery.c **** /** @defgroup STM32F429I_DISCOVERY_LOW_LEVEL_Private_TypesDefinitions
  57:Drivers/BSP/STM32F429I-Discovery/stm32f429i_discovery.c ****   * @{
  58:Drivers/BSP/STM32F429I-Discovery/stm32f429i_discovery.c ****   */ 
  59:Drivers/BSP/STM32F429I-Discovery/stm32f429i_discovery.c **** /**
  60:Drivers/BSP/STM32F429I-Discovery/stm32f429i_discovery.c ****   * @}
  61:Drivers/BSP/STM32F429I-Discovery/stm32f429i_discovery.c ****   */ 
  62:Drivers/BSP/STM32F429I-Discovery/stm32f429i_discovery.c **** 
  63:Drivers/BSP/STM32F429I-Discovery/stm32f429i_discovery.c **** /** @defgroup STM32F429I_DISCOVERY_LOW_LEVEL_Private_Defines
  64:Drivers/BSP/STM32F429I-Discovery/stm32f429i_discovery.c ****   * @{
  65:Drivers/BSP/STM32F429I-Discovery/stm32f429i_discovery.c ****   */ 
  66:Drivers/BSP/STM32F429I-Discovery/stm32f429i_discovery.c ****   
  67:Drivers/BSP/STM32F429I-Discovery/stm32f429i_discovery.c ****   /**
  68:Drivers/BSP/STM32F429I-Discovery/stm32f429i_discovery.c ****   * @brief STM32F429I DISCO BSP Driver version number V2.1.0
  69:Drivers/BSP/STM32F429I-Discovery/stm32f429i_discovery.c ****   */
  70:Drivers/BSP/STM32F429I-Discovery/stm32f429i_discovery.c **** #define __STM32F429I_DISCO_BSP_VERSION_MAIN   (0x02) /*!< [31:24] main version */
  71:Drivers/BSP/STM32F429I-Discovery/stm32f429i_discovery.c **** #define __STM32F429I_DISCO_BSP_VERSION_SUB1   (0x01) /*!< [23:16] sub1 version */
  72:Drivers/BSP/STM32F429I-Discovery/stm32f429i_discovery.c **** #define __STM32F429I_DISCO_BSP_VERSION_SUB2   (0x02) /*!< [15:8]  sub2 version */
  73:Drivers/BSP/STM32F429I-Discovery/stm32f429i_discovery.c **** #define __STM32F429I_DISCO_BSP_VERSION_RC     (0x00) /*!< [7:0]  release candidate */ 
  74:Drivers/BSP/STM32F429I-Discovery/stm32f429i_discovery.c **** #define __STM32F429I_DISCO_BSP_VERSION        ((__STM32F429I_DISCO_BSP_VERSION_MAIN << 24)\
  75:Drivers/BSP/STM32F429I-Discovery/stm32f429i_discovery.c ****                                              |(__STM32F429I_DISCO_BSP_VERSION_SUB1 << 16)\
  76:Drivers/BSP/STM32F429I-Discovery/stm32f429i_discovery.c ****                                              |(__STM32F429I_DISCO_BSP_VERSION_SUB2 << 8 )\
  77:Drivers/BSP/STM32F429I-Discovery/stm32f429i_discovery.c ****                                              |(__STM32F429I_DISCO_BSP_VERSION_RC)) 
  78:Drivers/BSP/STM32F429I-Discovery/stm32f429i_discovery.c **** /**
  79:Drivers/BSP/STM32F429I-Discovery/stm32f429i_discovery.c ****   * @}
  80:Drivers/BSP/STM32F429I-Discovery/stm32f429i_discovery.c ****   */ 
  81:Drivers/BSP/STM32F429I-Discovery/stm32f429i_discovery.c **** 
  82:Drivers/BSP/STM32F429I-Discovery/stm32f429i_discovery.c **** /** @defgroup STM32F429I_DISCOVERY_LOW_LEVEL_Private_Macros
  83:Drivers/BSP/STM32F429I-Discovery/stm32f429i_discovery.c ****   * @{
  84:Drivers/BSP/STM32F429I-Discovery/stm32f429i_discovery.c ****   */ 
  85:Drivers/BSP/STM32F429I-Discovery/stm32f429i_discovery.c **** /**
  86:Drivers/BSP/STM32F429I-Discovery/stm32f429i_discovery.c ****   * @}
  87:Drivers/BSP/STM32F429I-Discovery/stm32f429i_discovery.c ****   */ 
  88:Drivers/BSP/STM32F429I-Discovery/stm32f429i_discovery.c **** 
  89:Drivers/BSP/STM32F429I-Discovery/stm32f429i_discovery.c **** /** @defgroup STM32F429I_DISCOVERY_LOW_LEVEL_Private_Variables
  90:Drivers/BSP/STM32F429I-Discovery/stm32f429i_discovery.c ****   * @{
  91:Drivers/BSP/STM32F429I-Discovery/stm32f429i_discovery.c ****   */ 
  92:Drivers/BSP/STM32F429I-Discovery/stm32f429i_discovery.c **** GPIO_TypeDef* GPIO_PORT[LEDn] = {LED3_GPIO_PORT, 
  93:Drivers/BSP/STM32F429I-Discovery/stm32f429i_discovery.c ****                                  LED4_GPIO_PORT};
  94:Drivers/BSP/STM32F429I-Discovery/stm32f429i_discovery.c **** 
  95:Drivers/BSP/STM32F429I-Discovery/stm32f429i_discovery.c **** const uint16_t GPIO_PIN[LEDn] = {LED3_PIN, 
  96:Drivers/BSP/STM32F429I-Discovery/stm32f429i_discovery.c ****                                  LED4_PIN};
ARM GAS  /tmp/ccoTsclT.s 			page 4


  97:Drivers/BSP/STM32F429I-Discovery/stm32f429i_discovery.c **** 
  98:Drivers/BSP/STM32F429I-Discovery/stm32f429i_discovery.c **** GPIO_TypeDef* BUTTON_PORT[BUTTONn] = {KEY_BUTTON_GPIO_PORT}; 
  99:Drivers/BSP/STM32F429I-Discovery/stm32f429i_discovery.c **** const uint16_t BUTTON_PIN[BUTTONn] = {KEY_BUTTON_PIN}; 
 100:Drivers/BSP/STM32F429I-Discovery/stm32f429i_discovery.c **** const uint8_t BUTTON_IRQn[BUTTONn] = {KEY_BUTTON_EXTI_IRQn};
 101:Drivers/BSP/STM32F429I-Discovery/stm32f429i_discovery.c **** 
 102:Drivers/BSP/STM32F429I-Discovery/stm32f429i_discovery.c **** uint32_t I2cxTimeout = I2Cx_TIMEOUT_MAX; /*<! Value of Timeout when I2C communication fails */  
 103:Drivers/BSP/STM32F429I-Discovery/stm32f429i_discovery.c **** uint32_t SpixTimeout = SPIx_TIMEOUT_MAX; /*<! Value of Timeout when SPI communication fails */  
 104:Drivers/BSP/STM32F429I-Discovery/stm32f429i_discovery.c **** 
 105:Drivers/BSP/STM32F429I-Discovery/stm32f429i_discovery.c **** I2C_HandleTypeDef I2cHandle;
 106:Drivers/BSP/STM32F429I-Discovery/stm32f429i_discovery.c **** static SPI_HandleTypeDef SpiHandle;
 107:Drivers/BSP/STM32F429I-Discovery/stm32f429i_discovery.c **** static uint8_t Is_LCD_IO_Initialized = 0;
 108:Drivers/BSP/STM32F429I-Discovery/stm32f429i_discovery.c **** 
 109:Drivers/BSP/STM32F429I-Discovery/stm32f429i_discovery.c **** /**
 110:Drivers/BSP/STM32F429I-Discovery/stm32f429i_discovery.c ****   * @}
 111:Drivers/BSP/STM32F429I-Discovery/stm32f429i_discovery.c ****   */ 
 112:Drivers/BSP/STM32F429I-Discovery/stm32f429i_discovery.c **** 
 113:Drivers/BSP/STM32F429I-Discovery/stm32f429i_discovery.c **** /** @defgroup STM32F429I_DISCOVERY_LOW_LEVEL_Private_FunctionPrototypes
 114:Drivers/BSP/STM32F429I-Discovery/stm32f429i_discovery.c ****   * @{
 115:Drivers/BSP/STM32F429I-Discovery/stm32f429i_discovery.c ****   */ 
 116:Drivers/BSP/STM32F429I-Discovery/stm32f429i_discovery.c **** /* I2Cx bus function */
 117:Drivers/BSP/STM32F429I-Discovery/stm32f429i_discovery.c **** static void               I2Cx_Init(void);
 118:Drivers/BSP/STM32F429I-Discovery/stm32f429i_discovery.c **** static void               I2Cx_ITConfig(void);
 119:Drivers/BSP/STM32F429I-Discovery/stm32f429i_discovery.c **** static void               I2Cx_WriteData(uint8_t Addr, uint8_t Reg, uint8_t Value);
 120:Drivers/BSP/STM32F429I-Discovery/stm32f429i_discovery.c **** static void               I2Cx_WriteBuffer(uint8_t Addr, uint8_t Reg,  uint8_t *pBuffer, uint16_t L
 121:Drivers/BSP/STM32F429I-Discovery/stm32f429i_discovery.c **** static uint8_t            I2Cx_ReadData(uint8_t Addr, uint8_t Reg);
 122:Drivers/BSP/STM32F429I-Discovery/stm32f429i_discovery.c **** static uint8_t            I2Cx_ReadBuffer(uint8_t Addr, uint8_t Reg, uint8_t *pBuffer, uint16_t Len
 123:Drivers/BSP/STM32F429I-Discovery/stm32f429i_discovery.c **** static void               I2Cx_Error(void);
 124:Drivers/BSP/STM32F429I-Discovery/stm32f429i_discovery.c **** static void               I2Cx_MspInit(I2C_HandleTypeDef *hi2c);  
 125:Drivers/BSP/STM32F429I-Discovery/stm32f429i_discovery.c **** #ifdef EE_M24LR64
 126:Drivers/BSP/STM32F429I-Discovery/stm32f429i_discovery.c **** static HAL_StatusTypeDef  I2Cx_WriteBufferDMA(uint8_t Addr, uint16_t Reg,  uint8_t *pBuffer, uint16
 127:Drivers/BSP/STM32F429I-Discovery/stm32f429i_discovery.c **** static HAL_StatusTypeDef  I2Cx_ReadBufferDMA(uint8_t Addr, uint16_t Reg, uint8_t *pBuffer, uint16_t
 128:Drivers/BSP/STM32F429I-Discovery/stm32f429i_discovery.c **** static HAL_StatusTypeDef  I2Cx_IsDeviceReady(uint16_t DevAddress, uint32_t Trials);
 129:Drivers/BSP/STM32F429I-Discovery/stm32f429i_discovery.c **** #endif /* EE_M24LR64 */
 130:Drivers/BSP/STM32F429I-Discovery/stm32f429i_discovery.c **** 
 131:Drivers/BSP/STM32F429I-Discovery/stm32f429i_discovery.c **** /* SPIx bus function */
 132:Drivers/BSP/STM32F429I-Discovery/stm32f429i_discovery.c **** static void               SPIx_Init(void);
 133:Drivers/BSP/STM32F429I-Discovery/stm32f429i_discovery.c **** static void               SPIx_Write(uint16_t Value);
 134:Drivers/BSP/STM32F429I-Discovery/stm32f429i_discovery.c **** static uint32_t           SPIx_Read(uint8_t ReadSize);
 135:Drivers/BSP/STM32F429I-Discovery/stm32f429i_discovery.c **** static uint8_t            SPIx_WriteRead(uint8_t Byte);
 136:Drivers/BSP/STM32F429I-Discovery/stm32f429i_discovery.c **** static void               SPIx_Error(void);
 137:Drivers/BSP/STM32F429I-Discovery/stm32f429i_discovery.c **** static void               SPIx_MspInit(SPI_HandleTypeDef *hspi);
 138:Drivers/BSP/STM32F429I-Discovery/stm32f429i_discovery.c **** 
 139:Drivers/BSP/STM32F429I-Discovery/stm32f429i_discovery.c **** /* Link function for LCD peripheral */
 140:Drivers/BSP/STM32F429I-Discovery/stm32f429i_discovery.c **** void                      LCD_IO_Init(void);
 141:Drivers/BSP/STM32F429I-Discovery/stm32f429i_discovery.c **** void                      LCD_IO_WriteData(uint16_t RegValue);
 142:Drivers/BSP/STM32F429I-Discovery/stm32f429i_discovery.c **** void                      LCD_IO_WriteReg(uint8_t Reg);
 143:Drivers/BSP/STM32F429I-Discovery/stm32f429i_discovery.c **** uint32_t                  LCD_IO_ReadData(uint16_t RegValue, uint8_t ReadSize);
 144:Drivers/BSP/STM32F429I-Discovery/stm32f429i_discovery.c **** void                      LCD_Delay(uint32_t delay);
 145:Drivers/BSP/STM32F429I-Discovery/stm32f429i_discovery.c **** 
 146:Drivers/BSP/STM32F429I-Discovery/stm32f429i_discovery.c **** /* IOExpander IO functions */
 147:Drivers/BSP/STM32F429I-Discovery/stm32f429i_discovery.c **** void                      IOE_Init(void);
 148:Drivers/BSP/STM32F429I-Discovery/stm32f429i_discovery.c **** void                      IOE_ITConfig(void);
 149:Drivers/BSP/STM32F429I-Discovery/stm32f429i_discovery.c **** void                      IOE_Delay(uint32_t Delay);
 150:Drivers/BSP/STM32F429I-Discovery/stm32f429i_discovery.c **** void                      IOE_Write(uint8_t Addr, uint8_t Reg, uint8_t Value);
 151:Drivers/BSP/STM32F429I-Discovery/stm32f429i_discovery.c **** uint8_t                   IOE_Read(uint8_t Addr, uint8_t Reg);
 152:Drivers/BSP/STM32F429I-Discovery/stm32f429i_discovery.c **** uint16_t                  IOE_ReadMultiple(uint8_t Addr, uint8_t Reg, uint8_t *pBuffer, uint16_t Le
 153:Drivers/BSP/STM32F429I-Discovery/stm32f429i_discovery.c **** void                      IOE_WriteMultiple(uint8_t Addr, uint8_t Reg, uint8_t *pBuffer, uint16_t L
ARM GAS  /tmp/ccoTsclT.s 			page 5


 154:Drivers/BSP/STM32F429I-Discovery/stm32f429i_discovery.c **** 
 155:Drivers/BSP/STM32F429I-Discovery/stm32f429i_discovery.c **** /* Link function for GYRO peripheral */
 156:Drivers/BSP/STM32F429I-Discovery/stm32f429i_discovery.c **** void                      GYRO_IO_Init(void);
 157:Drivers/BSP/STM32F429I-Discovery/stm32f429i_discovery.c **** void                      GYRO_IO_Write(uint8_t* pBuffer, uint8_t WriteAddr, uint16_t NumByteToWrit
 158:Drivers/BSP/STM32F429I-Discovery/stm32f429i_discovery.c **** void                      GYRO_IO_Read(uint8_t* pBuffer, uint8_t ReadAddr, uint16_t NumByteToRead);
 159:Drivers/BSP/STM32F429I-Discovery/stm32f429i_discovery.c **** 
 160:Drivers/BSP/STM32F429I-Discovery/stm32f429i_discovery.c **** #ifdef EE_M24LR64
 161:Drivers/BSP/STM32F429I-Discovery/stm32f429i_discovery.c **** /* Link function for I2C EEPROM peripheral */
 162:Drivers/BSP/STM32F429I-Discovery/stm32f429i_discovery.c **** void                      EEPROM_IO_Init(void);
 163:Drivers/BSP/STM32F429I-Discovery/stm32f429i_discovery.c **** HAL_StatusTypeDef         EEPROM_IO_WriteData(uint16_t DevAddress, uint16_t MemAddress, uint8_t* pB
 164:Drivers/BSP/STM32F429I-Discovery/stm32f429i_discovery.c **** HAL_StatusTypeDef         EEPROM_IO_ReadData(uint16_t DevAddress, uint16_t MemAddress, uint8_t* pBu
 165:Drivers/BSP/STM32F429I-Discovery/stm32f429i_discovery.c **** HAL_StatusTypeDef         EEPROM_IO_IsDeviceReady(uint16_t DevAddress, uint32_t Trials);
 166:Drivers/BSP/STM32F429I-Discovery/stm32f429i_discovery.c **** #endif /* EE_M24LR64 */
 167:Drivers/BSP/STM32F429I-Discovery/stm32f429i_discovery.c **** 
 168:Drivers/BSP/STM32F429I-Discovery/stm32f429i_discovery.c **** /**
 169:Drivers/BSP/STM32F429I-Discovery/stm32f429i_discovery.c ****   * @}
 170:Drivers/BSP/STM32F429I-Discovery/stm32f429i_discovery.c ****   */ 
 171:Drivers/BSP/STM32F429I-Discovery/stm32f429i_discovery.c **** 
 172:Drivers/BSP/STM32F429I-Discovery/stm32f429i_discovery.c **** /** @defgroup STM32F429I_DISCOVERY_LOW_LEVEL_Private_Functions
 173:Drivers/BSP/STM32F429I-Discovery/stm32f429i_discovery.c ****   * @{
 174:Drivers/BSP/STM32F429I-Discovery/stm32f429i_discovery.c ****   */ 
 175:Drivers/BSP/STM32F429I-Discovery/stm32f429i_discovery.c **** 
 176:Drivers/BSP/STM32F429I-Discovery/stm32f429i_discovery.c **** /**
 177:Drivers/BSP/STM32F429I-Discovery/stm32f429i_discovery.c ****   * @brief  This method returns the STM32F429I DISCO BSP Driver revision
 178:Drivers/BSP/STM32F429I-Discovery/stm32f429i_discovery.c ****   * @param  None
 179:Drivers/BSP/STM32F429I-Discovery/stm32f429i_discovery.c ****   * @retval version: 0xXYZR (8bits for each decimal, R for RC)
 180:Drivers/BSP/STM32F429I-Discovery/stm32f429i_discovery.c ****   */
 181:Drivers/BSP/STM32F429I-Discovery/stm32f429i_discovery.c **** uint32_t BSP_GetVersion(void)
 182:Drivers/BSP/STM32F429I-Discovery/stm32f429i_discovery.c **** {
  91              		.loc 1 182 0
  92              		.cfi_startproc
  93              		@ args = 0, pretend = 0, frame = 0
  94              		@ frame_needed = 1, uses_anonymous_args = 0
  95              		@ link register save eliminated.
  96 0000 80B4     		push	{r7}
  97              	.LCFI0:
  98              		.cfi_def_cfa_offset 4
  99              		.cfi_offset 7, -4
 100 0002 00AF     		add	r7, sp, #0
 101              	.LCFI1:
 102              		.cfi_def_cfa_register 7
 183:Drivers/BSP/STM32F429I-Discovery/stm32f429i_discovery.c ****   return __STM32F429I_DISCO_BSP_VERSION;
 103              		.loc 1 183 0
 104 0004 024B     		ldr	r3, .L3
 184:Drivers/BSP/STM32F429I-Discovery/stm32f429i_discovery.c **** }
 105              		.loc 1 184 0
 106 0006 1846     		mov	r0, r3
 107 0008 BD46     		mov	sp, r7
 108              		@ sp needed
 109 000a 5DF8047B 		ldr	r7, [sp], #4
 110 000e 7047     		bx	lr
 111              	.L4:
 112              		.align	2
 113              	.L3:
 114 0010 00020102 		.word	33620480
 115              		.cfi_endproc
 116              	.LFE125:
ARM GAS  /tmp/ccoTsclT.s 			page 6


 118              		.section	.text.BSP_LED_Init,"ax",%progbits
 119              		.align	2
 120              		.global	BSP_LED_Init
 121              		.thumb
 122              		.thumb_func
 124              	BSP_LED_Init:
 125              	.LFB126:
 185:Drivers/BSP/STM32F429I-Discovery/stm32f429i_discovery.c **** 
 186:Drivers/BSP/STM32F429I-Discovery/stm32f429i_discovery.c **** /**
 187:Drivers/BSP/STM32F429I-Discovery/stm32f429i_discovery.c ****   * @brief  Configures LED GPIO.
 188:Drivers/BSP/STM32F429I-Discovery/stm32f429i_discovery.c ****   * @param  Led: Specifies the Led to be configured. 
 189:Drivers/BSP/STM32F429I-Discovery/stm32f429i_discovery.c ****   *   This parameter can be one of following parameters:
 190:Drivers/BSP/STM32F429I-Discovery/stm32f429i_discovery.c ****   *     @arg LED3
 191:Drivers/BSP/STM32F429I-Discovery/stm32f429i_discovery.c ****   *     @arg LED4
 192:Drivers/BSP/STM32F429I-Discovery/stm32f429i_discovery.c ****   * @retval None
 193:Drivers/BSP/STM32F429I-Discovery/stm32f429i_discovery.c ****   */
 194:Drivers/BSP/STM32F429I-Discovery/stm32f429i_discovery.c **** void BSP_LED_Init(Led_TypeDef Led)
 195:Drivers/BSP/STM32F429I-Discovery/stm32f429i_discovery.c **** {
 126              		.loc 1 195 0
 127              		.cfi_startproc
 128              		@ args = 0, pretend = 0, frame = 40
 129              		@ frame_needed = 1, uses_anonymous_args = 0
 130 0000 80B5     		push	{r7, lr}
 131              	.LCFI2:
 132              		.cfi_def_cfa_offset 8
 133              		.cfi_offset 7, -8
 134              		.cfi_offset 14, -4
 135 0002 8AB0     		sub	sp, sp, #40
 136              	.LCFI3:
 137              		.cfi_def_cfa_offset 48
 138 0004 00AF     		add	r7, sp, #0
 139              	.LCFI4:
 140              		.cfi_def_cfa_register 7
 141 0006 0346     		mov	r3, r0
 142 0008 FB71     		strb	r3, [r7, #7]
 196:Drivers/BSP/STM32F429I-Discovery/stm32f429i_discovery.c ****   GPIO_InitTypeDef  GPIO_InitStruct;
 197:Drivers/BSP/STM32F429I-Discovery/stm32f429i_discovery.c ****   
 198:Drivers/BSP/STM32F429I-Discovery/stm32f429i_discovery.c ****   /* Enable the GPIO_LED Clock */
 199:Drivers/BSP/STM32F429I-Discovery/stm32f429i_discovery.c ****   LEDx_GPIO_CLK_ENABLE(Led);
 143              		.loc 1 199 0
 144 000a FB79     		ldrb	r3, [r7, #7]	@ zero_extendqisi2
 145 000c 002B     		cmp	r3, #0
 146 000e 0CD1     		bne	.L6
 147              	.LBB2:
 148              		.loc 1 199 0 is_stmt 0 discriminator 1
 149 0010 204B     		ldr	r3, .L8
 150 0012 204A     		ldr	r2, .L8
 151 0014 126B     		ldr	r2, [r2, #48]
 152 0016 42F04002 		orr	r2, r2, #64
 153 001a 1A63     		str	r2, [r3, #48]
 154 001c 1D4B     		ldr	r3, .L8
 155 001e 1B6B     		ldr	r3, [r3, #48]
 156 0020 03F04003 		and	r3, r3, #64
 157 0024 3B61     		str	r3, [r7, #16]
 158 0026 3B69     		ldr	r3, [r7, #16]
 159              	.LBE2:
 160 0028 0EE0     		b	.L7
ARM GAS  /tmp/ccoTsclT.s 			page 7


 161              	.L6:
 162              		.loc 1 199 0 discriminator 2
 163 002a FB79     		ldrb	r3, [r7, #7]	@ zero_extendqisi2
 164 002c 012B     		cmp	r3, #1
 165 002e 0BD1     		bne	.L7
 166              	.LBB3:
 167              		.loc 1 199 0 discriminator 1
 168 0030 184B     		ldr	r3, .L8
 169 0032 184A     		ldr	r2, .L8
 170 0034 126B     		ldr	r2, [r2, #48]
 171 0036 42F04002 		orr	r2, r2, #64
 172 003a 1A63     		str	r2, [r3, #48]
 173 003c 154B     		ldr	r3, .L8
 174 003e 1B6B     		ldr	r3, [r3, #48]
 175 0040 03F04003 		and	r3, r3, #64
 176 0044 FB60     		str	r3, [r7, #12]
 177 0046 FB68     		ldr	r3, [r7, #12]
 178              	.L7:
 179              	.LBE3:
 200:Drivers/BSP/STM32F429I-Discovery/stm32f429i_discovery.c **** 
 201:Drivers/BSP/STM32F429I-Discovery/stm32f429i_discovery.c ****   /* Configure the GPIO_LED pin */
 202:Drivers/BSP/STM32F429I-Discovery/stm32f429i_discovery.c ****   GPIO_InitStruct.Pin = GPIO_PIN[Led];
 180              		.loc 1 202 0 is_stmt 1
 181 0048 FA79     		ldrb	r2, [r7, #7]	@ zero_extendqisi2
 182 004a 134B     		ldr	r3, .L8+4
 183 004c 33F81230 		ldrh	r3, [r3, r2, lsl #1]
 184 0050 7B61     		str	r3, [r7, #20]
 203:Drivers/BSP/STM32F429I-Discovery/stm32f429i_discovery.c ****   GPIO_InitStruct.Mode = GPIO_MODE_OUTPUT_PP;
 185              		.loc 1 203 0
 186 0052 0123     		movs	r3, #1
 187 0054 BB61     		str	r3, [r7, #24]
 204:Drivers/BSP/STM32F429I-Discovery/stm32f429i_discovery.c ****   GPIO_InitStruct.Pull = GPIO_PULLUP;
 188              		.loc 1 204 0
 189 0056 0123     		movs	r3, #1
 190 0058 FB61     		str	r3, [r7, #28]
 205:Drivers/BSP/STM32F429I-Discovery/stm32f429i_discovery.c ****   GPIO_InitStruct.Speed = GPIO_SPEED_FAST;
 191              		.loc 1 205 0
 192 005a 0223     		movs	r3, #2
 193 005c 3B62     		str	r3, [r7, #32]
 206:Drivers/BSP/STM32F429I-Discovery/stm32f429i_discovery.c ****   
 207:Drivers/BSP/STM32F429I-Discovery/stm32f429i_discovery.c ****   HAL_GPIO_Init(GPIO_PORT[Led], &GPIO_InitStruct);
 194              		.loc 1 207 0
 195 005e FA79     		ldrb	r2, [r7, #7]	@ zero_extendqisi2
 196 0060 0E4B     		ldr	r3, .L8+8
 197 0062 53F82220 		ldr	r2, [r3, r2, lsl #2]
 198 0066 07F11403 		add	r3, r7, #20
 199 006a 1046     		mov	r0, r2
 200 006c 1946     		mov	r1, r3
 201 006e FFF7FEFF 		bl	HAL_GPIO_Init
 208:Drivers/BSP/STM32F429I-Discovery/stm32f429i_discovery.c ****   
 209:Drivers/BSP/STM32F429I-Discovery/stm32f429i_discovery.c ****   HAL_GPIO_WritePin(GPIO_PORT[Led], GPIO_PIN[Led], GPIO_PIN_RESET); 
 202              		.loc 1 209 0
 203 0072 FA79     		ldrb	r2, [r7, #7]	@ zero_extendqisi2
 204 0074 094B     		ldr	r3, .L8+8
 205 0076 53F82220 		ldr	r2, [r3, r2, lsl #2]
 206 007a F979     		ldrb	r1, [r7, #7]	@ zero_extendqisi2
 207 007c 064B     		ldr	r3, .L8+4
ARM GAS  /tmp/ccoTsclT.s 			page 8


 208 007e 33F81130 		ldrh	r3, [r3, r1, lsl #1]
 209 0082 1046     		mov	r0, r2
 210 0084 1946     		mov	r1, r3
 211 0086 0022     		movs	r2, #0
 212 0088 FFF7FEFF 		bl	HAL_GPIO_WritePin
 210:Drivers/BSP/STM32F429I-Discovery/stm32f429i_discovery.c **** }
 213              		.loc 1 210 0
 214 008c 2837     		adds	r7, r7, #40
 215 008e BD46     		mov	sp, r7
 216              		@ sp needed
 217 0090 80BD     		pop	{r7, pc}
 218              	.L9:
 219 0092 00BF     		.align	2
 220              	.L8:
 221 0094 00380240 		.word	1073887232
 222 0098 00000000 		.word	GPIO_PIN
 223 009c 00000000 		.word	GPIO_PORT
 224              		.cfi_endproc
 225              	.LFE126:
 227              		.section	.text.BSP_LED_On,"ax",%progbits
 228              		.align	2
 229              		.global	BSP_LED_On
 230              		.thumb
 231              		.thumb_func
 233              	BSP_LED_On:
 234              	.LFB127:
 211:Drivers/BSP/STM32F429I-Discovery/stm32f429i_discovery.c **** 
 212:Drivers/BSP/STM32F429I-Discovery/stm32f429i_discovery.c **** /**
 213:Drivers/BSP/STM32F429I-Discovery/stm32f429i_discovery.c ****   * @brief  Turns selected LED On.
 214:Drivers/BSP/STM32F429I-Discovery/stm32f429i_discovery.c ****   * @param  Led: Specifies the Led to be set on. 
 215:Drivers/BSP/STM32F429I-Discovery/stm32f429i_discovery.c ****   *   This parameter can be one of following parameters:
 216:Drivers/BSP/STM32F429I-Discovery/stm32f429i_discovery.c ****   *     @arg LED3
 217:Drivers/BSP/STM32F429I-Discovery/stm32f429i_discovery.c ****   *     @arg LED4 
 218:Drivers/BSP/STM32F429I-Discovery/stm32f429i_discovery.c ****   * @retval None
 219:Drivers/BSP/STM32F429I-Discovery/stm32f429i_discovery.c ****   */
 220:Drivers/BSP/STM32F429I-Discovery/stm32f429i_discovery.c **** void BSP_LED_On(Led_TypeDef Led)
 221:Drivers/BSP/STM32F429I-Discovery/stm32f429i_discovery.c **** {
 235              		.loc 1 221 0
 236              		.cfi_startproc
 237              		@ args = 0, pretend = 0, frame = 8
 238              		@ frame_needed = 1, uses_anonymous_args = 0
 239 0000 80B5     		push	{r7, lr}
 240              	.LCFI5:
 241              		.cfi_def_cfa_offset 8
 242              		.cfi_offset 7, -8
 243              		.cfi_offset 14, -4
 244 0002 82B0     		sub	sp, sp, #8
 245              	.LCFI6:
 246              		.cfi_def_cfa_offset 16
 247 0004 00AF     		add	r7, sp, #0
 248              	.LCFI7:
 249              		.cfi_def_cfa_register 7
 250 0006 0346     		mov	r3, r0
 251 0008 FB71     		strb	r3, [r7, #7]
 222:Drivers/BSP/STM32F429I-Discovery/stm32f429i_discovery.c ****   HAL_GPIO_WritePin(GPIO_PORT[Led], GPIO_PIN[Led], GPIO_PIN_SET); 
 252              		.loc 1 222 0
 253 000a FA79     		ldrb	r2, [r7, #7]	@ zero_extendqisi2
ARM GAS  /tmp/ccoTsclT.s 			page 9


 254 000c 074B     		ldr	r3, .L11
 255 000e 53F82220 		ldr	r2, [r3, r2, lsl #2]
 256 0012 F979     		ldrb	r1, [r7, #7]	@ zero_extendqisi2
 257 0014 064B     		ldr	r3, .L11+4
 258 0016 33F81130 		ldrh	r3, [r3, r1, lsl #1]
 259 001a 1046     		mov	r0, r2
 260 001c 1946     		mov	r1, r3
 261 001e 0122     		movs	r2, #1
 262 0020 FFF7FEFF 		bl	HAL_GPIO_WritePin
 223:Drivers/BSP/STM32F429I-Discovery/stm32f429i_discovery.c **** }
 263              		.loc 1 223 0
 264 0024 0837     		adds	r7, r7, #8
 265 0026 BD46     		mov	sp, r7
 266              		@ sp needed
 267 0028 80BD     		pop	{r7, pc}
 268              	.L12:
 269 002a 00BF     		.align	2
 270              	.L11:
 271 002c 00000000 		.word	GPIO_PORT
 272 0030 00000000 		.word	GPIO_PIN
 273              		.cfi_endproc
 274              	.LFE127:
 276              		.section	.text.BSP_LED_Off,"ax",%progbits
 277              		.align	2
 278              		.global	BSP_LED_Off
 279              		.thumb
 280              		.thumb_func
 282              	BSP_LED_Off:
 283              	.LFB128:
 224:Drivers/BSP/STM32F429I-Discovery/stm32f429i_discovery.c **** 
 225:Drivers/BSP/STM32F429I-Discovery/stm32f429i_discovery.c **** /**
 226:Drivers/BSP/STM32F429I-Discovery/stm32f429i_discovery.c ****   * @brief  Turns selected LED Off.
 227:Drivers/BSP/STM32F429I-Discovery/stm32f429i_discovery.c ****   * @param  Led: Specifies the Led to be set off. 
 228:Drivers/BSP/STM32F429I-Discovery/stm32f429i_discovery.c ****   *   This parameter can be one of following parameters:
 229:Drivers/BSP/STM32F429I-Discovery/stm32f429i_discovery.c ****   *     @arg LED3
 230:Drivers/BSP/STM32F429I-Discovery/stm32f429i_discovery.c ****   *     @arg LED4
 231:Drivers/BSP/STM32F429I-Discovery/stm32f429i_discovery.c ****   * @retval None
 232:Drivers/BSP/STM32F429I-Discovery/stm32f429i_discovery.c ****   */
 233:Drivers/BSP/STM32F429I-Discovery/stm32f429i_discovery.c **** void BSP_LED_Off(Led_TypeDef Led)
 234:Drivers/BSP/STM32F429I-Discovery/stm32f429i_discovery.c **** {
 284              		.loc 1 234 0
 285              		.cfi_startproc
 286              		@ args = 0, pretend = 0, frame = 8
 287              		@ frame_needed = 1, uses_anonymous_args = 0
 288 0000 80B5     		push	{r7, lr}
 289              	.LCFI8:
 290              		.cfi_def_cfa_offset 8
 291              		.cfi_offset 7, -8
 292              		.cfi_offset 14, -4
 293 0002 82B0     		sub	sp, sp, #8
 294              	.LCFI9:
 295              		.cfi_def_cfa_offset 16
 296 0004 00AF     		add	r7, sp, #0
 297              	.LCFI10:
 298              		.cfi_def_cfa_register 7
 299 0006 0346     		mov	r3, r0
 300 0008 FB71     		strb	r3, [r7, #7]
ARM GAS  /tmp/ccoTsclT.s 			page 10


 235:Drivers/BSP/STM32F429I-Discovery/stm32f429i_discovery.c ****   HAL_GPIO_WritePin(GPIO_PORT[Led], GPIO_PIN[Led], GPIO_PIN_RESET); 
 301              		.loc 1 235 0
 302 000a FA79     		ldrb	r2, [r7, #7]	@ zero_extendqisi2
 303 000c 074B     		ldr	r3, .L14
 304 000e 53F82220 		ldr	r2, [r3, r2, lsl #2]
 305 0012 F979     		ldrb	r1, [r7, #7]	@ zero_extendqisi2
 306 0014 064B     		ldr	r3, .L14+4
 307 0016 33F81130 		ldrh	r3, [r3, r1, lsl #1]
 308 001a 1046     		mov	r0, r2
 309 001c 1946     		mov	r1, r3
 310 001e 0022     		movs	r2, #0
 311 0020 FFF7FEFF 		bl	HAL_GPIO_WritePin
 236:Drivers/BSP/STM32F429I-Discovery/stm32f429i_discovery.c **** }
 312              		.loc 1 236 0
 313 0024 0837     		adds	r7, r7, #8
 314 0026 BD46     		mov	sp, r7
 315              		@ sp needed
 316 0028 80BD     		pop	{r7, pc}
 317              	.L15:
 318 002a 00BF     		.align	2
 319              	.L14:
 320 002c 00000000 		.word	GPIO_PORT
 321 0030 00000000 		.word	GPIO_PIN
 322              		.cfi_endproc
 323              	.LFE128:
 325              		.section	.text.BSP_LED_Toggle,"ax",%progbits
 326              		.align	2
 327              		.global	BSP_LED_Toggle
 328              		.thumb
 329              		.thumb_func
 331              	BSP_LED_Toggle:
 332              	.LFB129:
 237:Drivers/BSP/STM32F429I-Discovery/stm32f429i_discovery.c **** 
 238:Drivers/BSP/STM32F429I-Discovery/stm32f429i_discovery.c **** /**
 239:Drivers/BSP/STM32F429I-Discovery/stm32f429i_discovery.c ****   * @brief  Toggles the selected LED.
 240:Drivers/BSP/STM32F429I-Discovery/stm32f429i_discovery.c ****   * @param  Led: Specifies the Led to be toggled. 
 241:Drivers/BSP/STM32F429I-Discovery/stm32f429i_discovery.c ****   *   This parameter can be one of following parameters:
 242:Drivers/BSP/STM32F429I-Discovery/stm32f429i_discovery.c ****   *     @arg LED3
 243:Drivers/BSP/STM32F429I-Discovery/stm32f429i_discovery.c ****   *     @arg LED4  
 244:Drivers/BSP/STM32F429I-Discovery/stm32f429i_discovery.c ****   * @retval None
 245:Drivers/BSP/STM32F429I-Discovery/stm32f429i_discovery.c ****   */
 246:Drivers/BSP/STM32F429I-Discovery/stm32f429i_discovery.c **** void BSP_LED_Toggle(Led_TypeDef Led)
 247:Drivers/BSP/STM32F429I-Discovery/stm32f429i_discovery.c **** {
 333              		.loc 1 247 0
 334              		.cfi_startproc
 335              		@ args = 0, pretend = 0, frame = 8
 336              		@ frame_needed = 1, uses_anonymous_args = 0
 337 0000 80B5     		push	{r7, lr}
 338              	.LCFI11:
 339              		.cfi_def_cfa_offset 8
 340              		.cfi_offset 7, -8
 341              		.cfi_offset 14, -4
 342 0002 82B0     		sub	sp, sp, #8
 343              	.LCFI12:
 344              		.cfi_def_cfa_offset 16
 345 0004 00AF     		add	r7, sp, #0
 346              	.LCFI13:
ARM GAS  /tmp/ccoTsclT.s 			page 11


 347              		.cfi_def_cfa_register 7
 348 0006 0346     		mov	r3, r0
 349 0008 FB71     		strb	r3, [r7, #7]
 248:Drivers/BSP/STM32F429I-Discovery/stm32f429i_discovery.c ****   HAL_GPIO_TogglePin(GPIO_PORT[Led], GPIO_PIN[Led]);
 350              		.loc 1 248 0
 351 000a FA79     		ldrb	r2, [r7, #7]	@ zero_extendqisi2
 352 000c 064B     		ldr	r3, .L17
 353 000e 53F82220 		ldr	r2, [r3, r2, lsl #2]
 354 0012 F979     		ldrb	r1, [r7, #7]	@ zero_extendqisi2
 355 0014 054B     		ldr	r3, .L17+4
 356 0016 33F81130 		ldrh	r3, [r3, r1, lsl #1]
 357 001a 1046     		mov	r0, r2
 358 001c 1946     		mov	r1, r3
 359 001e FFF7FEFF 		bl	HAL_GPIO_TogglePin
 249:Drivers/BSP/STM32F429I-Discovery/stm32f429i_discovery.c **** }
 360              		.loc 1 249 0
 361 0022 0837     		adds	r7, r7, #8
 362 0024 BD46     		mov	sp, r7
 363              		@ sp needed
 364 0026 80BD     		pop	{r7, pc}
 365              	.L18:
 366              		.align	2
 367              	.L17:
 368 0028 00000000 		.word	GPIO_PORT
 369 002c 00000000 		.word	GPIO_PIN
 370              		.cfi_endproc
 371              	.LFE129:
 373              		.section	.text.BSP_PB_Init,"ax",%progbits
 374              		.align	2
 375              		.global	BSP_PB_Init
 376              		.thumb
 377              		.thumb_func
 379              	BSP_PB_Init:
 380              	.LFB130:
 250:Drivers/BSP/STM32F429I-Discovery/stm32f429i_discovery.c **** 
 251:Drivers/BSP/STM32F429I-Discovery/stm32f429i_discovery.c **** /**
 252:Drivers/BSP/STM32F429I-Discovery/stm32f429i_discovery.c ****   * @brief  Configures Button GPIO and EXTI Line.
 253:Drivers/BSP/STM32F429I-Discovery/stm32f429i_discovery.c ****   * @param  Button: Specifies the Button to be configured.
 254:Drivers/BSP/STM32F429I-Discovery/stm32f429i_discovery.c ****   *   This parameter should be: BUTTON_KEY
 255:Drivers/BSP/STM32F429I-Discovery/stm32f429i_discovery.c ****   * @param  Button_Mode: Specifies Button mode.
 256:Drivers/BSP/STM32F429I-Discovery/stm32f429i_discovery.c ****   *   This parameter can be one of following parameters:   
 257:Drivers/BSP/STM32F429I-Discovery/stm32f429i_discovery.c ****   *     @arg BUTTON_MODE_GPIO: Button will be used as simple IO 
 258:Drivers/BSP/STM32F429I-Discovery/stm32f429i_discovery.c ****   *     @arg BUTTON_MODE_EXTI: Button will be connected to EXTI line with interrupt
 259:Drivers/BSP/STM32F429I-Discovery/stm32f429i_discovery.c ****   *                            generation capability  
 260:Drivers/BSP/STM32F429I-Discovery/stm32f429i_discovery.c ****   * @retval None
 261:Drivers/BSP/STM32F429I-Discovery/stm32f429i_discovery.c ****   */
 262:Drivers/BSP/STM32F429I-Discovery/stm32f429i_discovery.c **** void BSP_PB_Init(Button_TypeDef Button, ButtonMode_TypeDef ButtonMode)
 263:Drivers/BSP/STM32F429I-Discovery/stm32f429i_discovery.c **** {
 381              		.loc 1 263 0
 382              		.cfi_startproc
 383              		@ args = 0, pretend = 0, frame = 32
 384              		@ frame_needed = 1, uses_anonymous_args = 0
 385 0000 80B5     		push	{r7, lr}
 386              	.LCFI14:
 387              		.cfi_def_cfa_offset 8
 388              		.cfi_offset 7, -8
 389              		.cfi_offset 14, -4
ARM GAS  /tmp/ccoTsclT.s 			page 12


 390 0002 88B0     		sub	sp, sp, #32
 391              	.LCFI15:
 392              		.cfi_def_cfa_offset 40
 393 0004 00AF     		add	r7, sp, #0
 394              	.LCFI16:
 395              		.cfi_def_cfa_register 7
 396 0006 0246     		mov	r2, r0
 397 0008 0B46     		mov	r3, r1
 398 000a FA71     		strb	r2, [r7, #7]
 399 000c BB71     		strb	r3, [r7, #6]
 264:Drivers/BSP/STM32F429I-Discovery/stm32f429i_discovery.c ****   GPIO_InitTypeDef GPIO_InitStruct;
 265:Drivers/BSP/STM32F429I-Discovery/stm32f429i_discovery.c ****   
 266:Drivers/BSP/STM32F429I-Discovery/stm32f429i_discovery.c ****   /* Enable the BUTTON Clock */
 267:Drivers/BSP/STM32F429I-Discovery/stm32f429i_discovery.c ****   BUTTONx_GPIO_CLK_ENABLE(Button);
 400              		.loc 1 267 0
 401 000e FB79     		ldrb	r3, [r7, #7]	@ zero_extendqisi2
 402 0010 002B     		cmp	r3, #0
 403 0012 0BD1     		bne	.L20
 404              	.LBB4:
 405              		.loc 1 267 0 is_stmt 0 discriminator 1
 406 0014 224B     		ldr	r3, .L23
 407 0016 224A     		ldr	r2, .L23
 408 0018 126B     		ldr	r2, [r2, #48]
 409 001a 42F00102 		orr	r2, r2, #1
 410 001e 1A63     		str	r2, [r3, #48]
 411 0020 1F4B     		ldr	r3, .L23
 412 0022 1B6B     		ldr	r3, [r3, #48]
 413 0024 03F00103 		and	r3, r3, #1
 414 0028 BB60     		str	r3, [r7, #8]
 415 002a BB68     		ldr	r3, [r7, #8]
 416              	.L20:
 417              	.LBE4:
 268:Drivers/BSP/STM32F429I-Discovery/stm32f429i_discovery.c ****   
 269:Drivers/BSP/STM32F429I-Discovery/stm32f429i_discovery.c ****   if (ButtonMode == BUTTON_MODE_GPIO)
 418              		.loc 1 269 0 is_stmt 1
 419 002c BB79     		ldrb	r3, [r7, #6]	@ zero_extendqisi2
 420 002e 002B     		cmp	r3, #0
 421 0030 11D1     		bne	.L21
 270:Drivers/BSP/STM32F429I-Discovery/stm32f429i_discovery.c ****   {
 271:Drivers/BSP/STM32F429I-Discovery/stm32f429i_discovery.c ****     /* Configure Button pin as input */
 272:Drivers/BSP/STM32F429I-Discovery/stm32f429i_discovery.c ****     GPIO_InitStruct.Pin = BUTTON_PIN[Button];
 422              		.loc 1 272 0
 423 0032 0123     		movs	r3, #1
 424 0034 FB60     		str	r3, [r7, #12]
 273:Drivers/BSP/STM32F429I-Discovery/stm32f429i_discovery.c ****     GPIO_InitStruct.Mode = GPIO_MODE_INPUT;
 425              		.loc 1 273 0
 426 0036 0023     		movs	r3, #0
 427 0038 3B61     		str	r3, [r7, #16]
 274:Drivers/BSP/STM32F429I-Discovery/stm32f429i_discovery.c ****     GPIO_InitStruct.Pull = GPIO_PULLDOWN;
 428              		.loc 1 274 0
 429 003a 0223     		movs	r3, #2
 430 003c 7B61     		str	r3, [r7, #20]
 275:Drivers/BSP/STM32F429I-Discovery/stm32f429i_discovery.c ****     GPIO_InitStruct.Speed = GPIO_SPEED_FAST;
 431              		.loc 1 275 0
 432 003e 0223     		movs	r3, #2
 433 0040 BB61     		str	r3, [r7, #24]
 276:Drivers/BSP/STM32F429I-Discovery/stm32f429i_discovery.c ****     HAL_GPIO_Init(BUTTON_PORT[Button], &GPIO_InitStruct);
ARM GAS  /tmp/ccoTsclT.s 			page 13


 434              		.loc 1 276 0
 435 0042 FA79     		ldrb	r2, [r7, #7]	@ zero_extendqisi2
 436 0044 174B     		ldr	r3, .L23+4
 437 0046 53F82220 		ldr	r2, [r3, r2, lsl #2]
 438 004a 07F10C03 		add	r3, r7, #12
 439 004e 1046     		mov	r0, r2
 440 0050 1946     		mov	r1, r3
 441 0052 FFF7FEFF 		bl	HAL_GPIO_Init
 442              	.L21:
 277:Drivers/BSP/STM32F429I-Discovery/stm32f429i_discovery.c ****   }
 278:Drivers/BSP/STM32F429I-Discovery/stm32f429i_discovery.c ****   
 279:Drivers/BSP/STM32F429I-Discovery/stm32f429i_discovery.c ****   if (ButtonMode == BUTTON_MODE_EXTI)
 443              		.loc 1 279 0
 444 0056 BB79     		ldrb	r3, [r7, #6]	@ zero_extendqisi2
 445 0058 012B     		cmp	r3, #1
 446 005a 1DD1     		bne	.L19
 280:Drivers/BSP/STM32F429I-Discovery/stm32f429i_discovery.c ****   {
 281:Drivers/BSP/STM32F429I-Discovery/stm32f429i_discovery.c ****     /* Configure Button pin as input with External interrupt */
 282:Drivers/BSP/STM32F429I-Discovery/stm32f429i_discovery.c ****     GPIO_InitStruct.Pin = BUTTON_PIN[Button];
 447              		.loc 1 282 0
 448 005c 0123     		movs	r3, #1
 449 005e FB60     		str	r3, [r7, #12]
 283:Drivers/BSP/STM32F429I-Discovery/stm32f429i_discovery.c ****     GPIO_InitStruct.Pull = GPIO_NOPULL;
 450              		.loc 1 283 0
 451 0060 0023     		movs	r3, #0
 452 0062 7B61     		str	r3, [r7, #20]
 284:Drivers/BSP/STM32F429I-Discovery/stm32f429i_discovery.c ****     GPIO_InitStruct.Mode = GPIO_MODE_IT_RISING; 
 453              		.loc 1 284 0
 454 0064 104B     		ldr	r3, .L23+8
 455 0066 3B61     		str	r3, [r7, #16]
 285:Drivers/BSP/STM32F429I-Discovery/stm32f429i_discovery.c ****     HAL_GPIO_Init(BUTTON_PORT[Button], &GPIO_InitStruct);
 456              		.loc 1 285 0
 457 0068 FA79     		ldrb	r2, [r7, #7]	@ zero_extendqisi2
 458 006a 0E4B     		ldr	r3, .L23+4
 459 006c 53F82220 		ldr	r2, [r3, r2, lsl #2]
 460 0070 07F10C03 		add	r3, r7, #12
 461 0074 1046     		mov	r0, r2
 462 0076 1946     		mov	r1, r3
 463 0078 FFF7FEFF 		bl	HAL_GPIO_Init
 286:Drivers/BSP/STM32F429I-Discovery/stm32f429i_discovery.c ****     
 287:Drivers/BSP/STM32F429I-Discovery/stm32f429i_discovery.c ****     /* Enable and set Button EXTI Interrupt to the lowest priority */
 288:Drivers/BSP/STM32F429I-Discovery/stm32f429i_discovery.c ****     HAL_NVIC_SetPriority((IRQn_Type)(BUTTON_IRQn[Button]), 0x0F, 0x00);
 464              		.loc 1 288 0
 465 007c 0623     		movs	r3, #6
 466 007e DBB2     		uxtb	r3, r3
 467 0080 5BB2     		sxtb	r3, r3
 468 0082 1846     		mov	r0, r3
 469 0084 0F21     		movs	r1, #15
 470 0086 0022     		movs	r2, #0
 471 0088 FFF7FEFF 		bl	HAL_NVIC_SetPriority
 289:Drivers/BSP/STM32F429I-Discovery/stm32f429i_discovery.c ****     HAL_NVIC_EnableIRQ((IRQn_Type)(BUTTON_IRQn[Button]));
 472              		.loc 1 289 0
 473 008c 0623     		movs	r3, #6
 474 008e DBB2     		uxtb	r3, r3
 475 0090 5BB2     		sxtb	r3, r3
 476 0092 1846     		mov	r0, r3
 477 0094 FFF7FEFF 		bl	HAL_NVIC_EnableIRQ
ARM GAS  /tmp/ccoTsclT.s 			page 14


 478              	.L19:
 290:Drivers/BSP/STM32F429I-Discovery/stm32f429i_discovery.c ****   }
 291:Drivers/BSP/STM32F429I-Discovery/stm32f429i_discovery.c **** }
 479              		.loc 1 291 0
 480 0098 2037     		adds	r7, r7, #32
 481 009a BD46     		mov	sp, r7
 482              		@ sp needed
 483 009c 80BD     		pop	{r7, pc}
 484              	.L24:
 485 009e 00BF     		.align	2
 486              	.L23:
 487 00a0 00380240 		.word	1073887232
 488 00a4 00000000 		.word	BUTTON_PORT
 489 00a8 00001110 		.word	269549568
 490              		.cfi_endproc
 491              	.LFE130:
 493              		.section	.text.BSP_PB_GetState,"ax",%progbits
 494              		.align	2
 495              		.global	BSP_PB_GetState
 496              		.thumb
 497              		.thumb_func
 499              	BSP_PB_GetState:
 500              	.LFB131:
 292:Drivers/BSP/STM32F429I-Discovery/stm32f429i_discovery.c **** 
 293:Drivers/BSP/STM32F429I-Discovery/stm32f429i_discovery.c **** /**
 294:Drivers/BSP/STM32F429I-Discovery/stm32f429i_discovery.c ****   * @brief  Returns the selected Button state.
 295:Drivers/BSP/STM32F429I-Discovery/stm32f429i_discovery.c ****   * @param  Button: Specifies the Button to be checked.
 296:Drivers/BSP/STM32F429I-Discovery/stm32f429i_discovery.c ****   *   This parameter should be: BUTTON_KEY  
 297:Drivers/BSP/STM32F429I-Discovery/stm32f429i_discovery.c ****   * @retval The Button GPIO pin value.
 298:Drivers/BSP/STM32F429I-Discovery/stm32f429i_discovery.c ****   */
 299:Drivers/BSP/STM32F429I-Discovery/stm32f429i_discovery.c **** uint32_t BSP_PB_GetState(Button_TypeDef Button)
 300:Drivers/BSP/STM32F429I-Discovery/stm32f429i_discovery.c **** {
 501              		.loc 1 300 0
 502              		.cfi_startproc
 503              		@ args = 0, pretend = 0, frame = 8
 504              		@ frame_needed = 1, uses_anonymous_args = 0
 505 0000 80B5     		push	{r7, lr}
 506              	.LCFI17:
 507              		.cfi_def_cfa_offset 8
 508              		.cfi_offset 7, -8
 509              		.cfi_offset 14, -4
 510 0002 82B0     		sub	sp, sp, #8
 511              	.LCFI18:
 512              		.cfi_def_cfa_offset 16
 513 0004 00AF     		add	r7, sp, #0
 514              	.LCFI19:
 515              		.cfi_def_cfa_register 7
 516 0006 0346     		mov	r3, r0
 517 0008 FB71     		strb	r3, [r7, #7]
 301:Drivers/BSP/STM32F429I-Discovery/stm32f429i_discovery.c ****   return HAL_GPIO_ReadPin(BUTTON_PORT[Button], BUTTON_PIN[Button]);
 518              		.loc 1 301 0
 519 000a FA79     		ldrb	r2, [r7, #7]	@ zero_extendqisi2
 520 000c 064B     		ldr	r3, .L27
 521 000e 53F82220 		ldr	r2, [r3, r2, lsl #2]
 522 0012 0123     		movs	r3, #1
 523 0014 1046     		mov	r0, r2
 524 0016 1946     		mov	r1, r3
ARM GAS  /tmp/ccoTsclT.s 			page 15


 525 0018 FFF7FEFF 		bl	HAL_GPIO_ReadPin
 526 001c 0346     		mov	r3, r0
 302:Drivers/BSP/STM32F429I-Discovery/stm32f429i_discovery.c **** }
 527              		.loc 1 302 0
 528 001e 1846     		mov	r0, r3
 529 0020 0837     		adds	r7, r7, #8
 530 0022 BD46     		mov	sp, r7
 531              		@ sp needed
 532 0024 80BD     		pop	{r7, pc}
 533              	.L28:
 534 0026 00BF     		.align	2
 535              	.L27:
 536 0028 00000000 		.word	BUTTON_PORT
 537              		.cfi_endproc
 538              	.LFE131:
 540              		.section	.text.I2Cx_MspInit,"ax",%progbits
 541              		.align	2
 542              		.thumb
 543              		.thumb_func
 545              	I2Cx_MspInit:
 546              	.LFB132:
 303:Drivers/BSP/STM32F429I-Discovery/stm32f429i_discovery.c **** 
 304:Drivers/BSP/STM32F429I-Discovery/stm32f429i_discovery.c **** /*******************************************************************************
 305:Drivers/BSP/STM32F429I-Discovery/stm32f429i_discovery.c ****                             BUS OPERATIONS
 306:Drivers/BSP/STM32F429I-Discovery/stm32f429i_discovery.c **** *******************************************************************************/
 307:Drivers/BSP/STM32F429I-Discovery/stm32f429i_discovery.c **** 
 308:Drivers/BSP/STM32F429I-Discovery/stm32f429i_discovery.c **** /******************************* I2C Routines *********************************/
 309:Drivers/BSP/STM32F429I-Discovery/stm32f429i_discovery.c **** 
 310:Drivers/BSP/STM32F429I-Discovery/stm32f429i_discovery.c **** /**
 311:Drivers/BSP/STM32F429I-Discovery/stm32f429i_discovery.c ****   * @brief  I2Cx MSP Initialization
 312:Drivers/BSP/STM32F429I-Discovery/stm32f429i_discovery.c ****   * @param  hi2c: I2C handle
 313:Drivers/BSP/STM32F429I-Discovery/stm32f429i_discovery.c ****   * @retval None
 314:Drivers/BSP/STM32F429I-Discovery/stm32f429i_discovery.c ****   */
 315:Drivers/BSP/STM32F429I-Discovery/stm32f429i_discovery.c **** static void I2Cx_MspInit(I2C_HandleTypeDef *hi2c)
 316:Drivers/BSP/STM32F429I-Discovery/stm32f429i_discovery.c **** {
 547              		.loc 1 316 0
 548              		.cfi_startproc
 549              		@ args = 0, pretend = 0, frame = 40
 550              		@ frame_needed = 1, uses_anonymous_args = 0
 551 0000 80B5     		push	{r7, lr}
 552              	.LCFI20:
 553              		.cfi_def_cfa_offset 8
 554              		.cfi_offset 7, -8
 555              		.cfi_offset 14, -4
 556 0002 8AB0     		sub	sp, sp, #40
 557              	.LCFI21:
 558              		.cfi_def_cfa_offset 48
 559 0004 00AF     		add	r7, sp, #0
 560              	.LCFI22:
 561              		.cfi_def_cfa_register 7
 562 0006 7860     		str	r0, [r7, #4]
 317:Drivers/BSP/STM32F429I-Discovery/stm32f429i_discovery.c ****   GPIO_InitTypeDef  GPIO_InitStruct;  
 318:Drivers/BSP/STM32F429I-Discovery/stm32f429i_discovery.c **** #ifdef EE_M24LR64
 319:Drivers/BSP/STM32F429I-Discovery/stm32f429i_discovery.c ****   static DMA_HandleTypeDef hdma_tx;
 320:Drivers/BSP/STM32F429I-Discovery/stm32f429i_discovery.c ****   static DMA_HandleTypeDef hdma_rx;
 321:Drivers/BSP/STM32F429I-Discovery/stm32f429i_discovery.c ****   
 322:Drivers/BSP/STM32F429I-Discovery/stm32f429i_discovery.c ****   I2C_HandleTypeDef* pI2cHandle;
ARM GAS  /tmp/ccoTsclT.s 			page 16


 323:Drivers/BSP/STM32F429I-Discovery/stm32f429i_discovery.c ****   pI2cHandle = &I2cHandle;
 324:Drivers/BSP/STM32F429I-Discovery/stm32f429i_discovery.c **** #endif /* EE_M24LR64 */
 325:Drivers/BSP/STM32F429I-Discovery/stm32f429i_discovery.c **** 
 326:Drivers/BSP/STM32F429I-Discovery/stm32f429i_discovery.c ****   if (hi2c->Instance == DISCOVERY_I2Cx)
 563              		.loc 1 326 0
 564 0008 7B68     		ldr	r3, [r7, #4]
 565 000a 1A68     		ldr	r2, [r3]
 566 000c 2F4B     		ldr	r3, .L31
 567 000e 9A42     		cmp	r2, r3
 568 0010 59D1     		bne	.L29
 569              	.LBB5:
 327:Drivers/BSP/STM32F429I-Discovery/stm32f429i_discovery.c ****   {
 328:Drivers/BSP/STM32F429I-Discovery/stm32f429i_discovery.c ****     /* Configure the GPIOs ---------------------------------------------------*/ 
 329:Drivers/BSP/STM32F429I-Discovery/stm32f429i_discovery.c ****     /* Enable GPIO clock */
 330:Drivers/BSP/STM32F429I-Discovery/stm32f429i_discovery.c ****     DISCOVERY_I2Cx_SDA_GPIO_CLK_ENABLE();
 570              		.loc 1 330 0
 571 0012 2F4B     		ldr	r3, .L31+4
 572 0014 2E4A     		ldr	r2, .L31+4
 573 0016 126B     		ldr	r2, [r2, #48]
 574 0018 42F00402 		orr	r2, r2, #4
 575 001c 1A63     		str	r2, [r3, #48]
 576 001e 2C4B     		ldr	r3, .L31+4
 577 0020 1B6B     		ldr	r3, [r3, #48]
 578 0022 03F00403 		and	r3, r3, #4
 579 0026 3B61     		str	r3, [r7, #16]
 580 0028 3B69     		ldr	r3, [r7, #16]
 581              	.LBE5:
 582              	.LBB6:
 331:Drivers/BSP/STM32F429I-Discovery/stm32f429i_discovery.c ****     DISCOVERY_I2Cx_SCL_GPIO_CLK_ENABLE();
 583              		.loc 1 331 0
 584 002a 294B     		ldr	r3, .L31+4
 585 002c 284A     		ldr	r2, .L31+4
 586 002e 126B     		ldr	r2, [r2, #48]
 587 0030 42F00102 		orr	r2, r2, #1
 588 0034 1A63     		str	r2, [r3, #48]
 589 0036 264B     		ldr	r3, .L31+4
 590 0038 1B6B     		ldr	r3, [r3, #48]
 591 003a 03F00103 		and	r3, r3, #1
 592 003e FB60     		str	r3, [r7, #12]
 593 0040 FB68     		ldr	r3, [r7, #12]
 594              	.LBE6:
 332:Drivers/BSP/STM32F429I-Discovery/stm32f429i_discovery.c ****       
 333:Drivers/BSP/STM32F429I-Discovery/stm32f429i_discovery.c ****     /* Configure I2C Tx as alternate function  */
 334:Drivers/BSP/STM32F429I-Discovery/stm32f429i_discovery.c ****     GPIO_InitStruct.Pin       = DISCOVERY_I2Cx_SCL_PIN;
 595              		.loc 1 334 0
 596 0042 4FF48073 		mov	r3, #256
 597 0046 7B61     		str	r3, [r7, #20]
 335:Drivers/BSP/STM32F429I-Discovery/stm32f429i_discovery.c ****     GPIO_InitStruct.Mode      = GPIO_MODE_AF_OD;
 598              		.loc 1 335 0
 599 0048 1223     		movs	r3, #18
 600 004a BB61     		str	r3, [r7, #24]
 336:Drivers/BSP/STM32F429I-Discovery/stm32f429i_discovery.c ****     GPIO_InitStruct.Pull      = GPIO_NOPULL;
 601              		.loc 1 336 0
 602 004c 0023     		movs	r3, #0
 603 004e FB61     		str	r3, [r7, #28]
 337:Drivers/BSP/STM32F429I-Discovery/stm32f429i_discovery.c ****     GPIO_InitStruct.Speed     = GPIO_SPEED_FAST;
 604              		.loc 1 337 0
ARM GAS  /tmp/ccoTsclT.s 			page 17


 605 0050 0223     		movs	r3, #2
 606 0052 3B62     		str	r3, [r7, #32]
 338:Drivers/BSP/STM32F429I-Discovery/stm32f429i_discovery.c ****     GPIO_InitStruct.Alternate = DISCOVERY_I2Cx_SCL_SDA_AF;
 607              		.loc 1 338 0
 608 0054 0423     		movs	r3, #4
 609 0056 7B62     		str	r3, [r7, #36]
 339:Drivers/BSP/STM32F429I-Discovery/stm32f429i_discovery.c ****     HAL_GPIO_Init(DISCOVERY_I2Cx_SCL_GPIO_PORT, &GPIO_InitStruct);
 610              		.loc 1 339 0
 611 0058 07F11403 		add	r3, r7, #20
 612 005c 1D48     		ldr	r0, .L31+8
 613 005e 1946     		mov	r1, r3
 614 0060 FFF7FEFF 		bl	HAL_GPIO_Init
 340:Drivers/BSP/STM32F429I-Discovery/stm32f429i_discovery.c ****       
 341:Drivers/BSP/STM32F429I-Discovery/stm32f429i_discovery.c ****     /* Configure I2C Rx as alternate function  */
 342:Drivers/BSP/STM32F429I-Discovery/stm32f429i_discovery.c ****     GPIO_InitStruct.Pin = DISCOVERY_I2Cx_SDA_PIN;
 615              		.loc 1 342 0
 616 0064 4FF40073 		mov	r3, #512
 617 0068 7B61     		str	r3, [r7, #20]
 343:Drivers/BSP/STM32F429I-Discovery/stm32f429i_discovery.c ****     HAL_GPIO_Init(DISCOVERY_I2Cx_SDA_GPIO_PORT, &GPIO_InitStruct);
 618              		.loc 1 343 0
 619 006a 07F11403 		add	r3, r7, #20
 620 006e 1A48     		ldr	r0, .L31+12
 621 0070 1946     		mov	r1, r3
 622 0072 FFF7FEFF 		bl	HAL_GPIO_Init
 623              	.LBB7:
 344:Drivers/BSP/STM32F429I-Discovery/stm32f429i_discovery.c ****     
 345:Drivers/BSP/STM32F429I-Discovery/stm32f429i_discovery.c ****     
 346:Drivers/BSP/STM32F429I-Discovery/stm32f429i_discovery.c ****     /* Configure the Discovery I2Cx peripheral -------------------------------*/ 
 347:Drivers/BSP/STM32F429I-Discovery/stm32f429i_discovery.c ****     /* Enable I2C3 clock */
 348:Drivers/BSP/STM32F429I-Discovery/stm32f429i_discovery.c ****     DISCOVERY_I2Cx_CLOCK_ENABLE();
 624              		.loc 1 348 0
 625 0076 164B     		ldr	r3, .L31+4
 626 0078 154A     		ldr	r2, .L31+4
 627 007a 126C     		ldr	r2, [r2, #64]
 628 007c 42F40002 		orr	r2, r2, #8388608
 629 0080 1A64     		str	r2, [r3, #64]
 630 0082 134B     		ldr	r3, .L31+4
 631 0084 1B6C     		ldr	r3, [r3, #64]
 632 0086 03F40003 		and	r3, r3, #8388608
 633 008a BB60     		str	r3, [r7, #8]
 634 008c BB68     		ldr	r3, [r7, #8]
 635              	.LBE7:
 349:Drivers/BSP/STM32F429I-Discovery/stm32f429i_discovery.c ****     
 350:Drivers/BSP/STM32F429I-Discovery/stm32f429i_discovery.c ****     /* Force the I2C Peripheral Clock Reset */  
 351:Drivers/BSP/STM32F429I-Discovery/stm32f429i_discovery.c ****     DISCOVERY_I2Cx_FORCE_RESET();
 636              		.loc 1 351 0
 637 008e 104B     		ldr	r3, .L31+4
 638 0090 0F4A     		ldr	r2, .L31+4
 639 0092 126A     		ldr	r2, [r2, #32]
 640 0094 42F40002 		orr	r2, r2, #8388608
 641 0098 1A62     		str	r2, [r3, #32]
 352:Drivers/BSP/STM32F429I-Discovery/stm32f429i_discovery.c ****       
 353:Drivers/BSP/STM32F429I-Discovery/stm32f429i_discovery.c ****     /* Release the I2C Peripheral Clock Reset */  
 354:Drivers/BSP/STM32F429I-Discovery/stm32f429i_discovery.c ****     DISCOVERY_I2Cx_RELEASE_RESET(); 
 642              		.loc 1 354 0
 643 009a 0D4B     		ldr	r3, .L31+4
 644 009c 0C4A     		ldr	r2, .L31+4
ARM GAS  /tmp/ccoTsclT.s 			page 18


 645 009e 126A     		ldr	r2, [r2, #32]
 646 00a0 22F40002 		bic	r2, r2, #8388608
 647 00a4 1A62     		str	r2, [r3, #32]
 355:Drivers/BSP/STM32F429I-Discovery/stm32f429i_discovery.c ****     
 356:Drivers/BSP/STM32F429I-Discovery/stm32f429i_discovery.c ****     /* Enable and set Discovery I2Cx Interrupt to the highest priority */
 357:Drivers/BSP/STM32F429I-Discovery/stm32f429i_discovery.c ****     HAL_NVIC_SetPriority(DISCOVERY_I2Cx_EV_IRQn, 0x00, 0);
 648              		.loc 1 357 0
 649 00a6 4820     		movs	r0, #72
 650 00a8 0021     		movs	r1, #0
 651 00aa 0022     		movs	r2, #0
 652 00ac FFF7FEFF 		bl	HAL_NVIC_SetPriority
 358:Drivers/BSP/STM32F429I-Discovery/stm32f429i_discovery.c ****     HAL_NVIC_EnableIRQ(DISCOVERY_I2Cx_EV_IRQn);
 653              		.loc 1 358 0
 654 00b0 4820     		movs	r0, #72
 655 00b2 FFF7FEFF 		bl	HAL_NVIC_EnableIRQ
 359:Drivers/BSP/STM32F429I-Discovery/stm32f429i_discovery.c ****     
 360:Drivers/BSP/STM32F429I-Discovery/stm32f429i_discovery.c ****     /* Enable and set Discovery I2Cx Interrupt to the highest priority */
 361:Drivers/BSP/STM32F429I-Discovery/stm32f429i_discovery.c ****     HAL_NVIC_SetPriority(DISCOVERY_I2Cx_ER_IRQn, 0x00, 0);
 656              		.loc 1 361 0
 657 00b6 4920     		movs	r0, #73
 658 00b8 0021     		movs	r1, #0
 659 00ba 0022     		movs	r2, #0
 660 00bc FFF7FEFF 		bl	HAL_NVIC_SetPriority
 362:Drivers/BSP/STM32F429I-Discovery/stm32f429i_discovery.c ****     HAL_NVIC_EnableIRQ(DISCOVERY_I2Cx_ER_IRQn);  
 661              		.loc 1 362 0
 662 00c0 4920     		movs	r0, #73
 663 00c2 FFF7FEFF 		bl	HAL_NVIC_EnableIRQ
 664              	.L29:
 363:Drivers/BSP/STM32F429I-Discovery/stm32f429i_discovery.c **** 
 364:Drivers/BSP/STM32F429I-Discovery/stm32f429i_discovery.c **** #ifdef EE_M24LR64
 365:Drivers/BSP/STM32F429I-Discovery/stm32f429i_discovery.c ****     /* I2C DMA TX and RX channels configuration */
 366:Drivers/BSP/STM32F429I-Discovery/stm32f429i_discovery.c ****     /* Enable the DMA clock */
 367:Drivers/BSP/STM32F429I-Discovery/stm32f429i_discovery.c ****     EEPROM_I2C_DMA_CLK_ENABLE();
 368:Drivers/BSP/STM32F429I-Discovery/stm32f429i_discovery.c ****     
 369:Drivers/BSP/STM32F429I-Discovery/stm32f429i_discovery.c ****     /* Configure the DMA stream for the EE I2C peripheral TX direction */
 370:Drivers/BSP/STM32F429I-Discovery/stm32f429i_discovery.c ****     /* Configure the DMA Stream */
 371:Drivers/BSP/STM32F429I-Discovery/stm32f429i_discovery.c ****     hdma_tx.Instance                  = EEPROM_I2C_DMA_STREAM_TX;
 372:Drivers/BSP/STM32F429I-Discovery/stm32f429i_discovery.c ****     /* Set the parameters to be configured */
 373:Drivers/BSP/STM32F429I-Discovery/stm32f429i_discovery.c ****     hdma_tx.Init.Channel              = EEPROM_I2C_DMA_CHANNEL;  
 374:Drivers/BSP/STM32F429I-Discovery/stm32f429i_discovery.c ****     hdma_tx.Init.Direction            = DMA_MEMORY_TO_PERIPH;
 375:Drivers/BSP/STM32F429I-Discovery/stm32f429i_discovery.c ****     hdma_tx.Init.PeriphInc            = DMA_PINC_DISABLE;
 376:Drivers/BSP/STM32F429I-Discovery/stm32f429i_discovery.c ****     hdma_tx.Init.MemInc               = DMA_MINC_ENABLE;
 377:Drivers/BSP/STM32F429I-Discovery/stm32f429i_discovery.c ****     hdma_tx.Init.PeriphDataAlignment  = DMA_PDATAALIGN_BYTE;
 378:Drivers/BSP/STM32F429I-Discovery/stm32f429i_discovery.c ****     hdma_tx.Init.MemDataAlignment     = DMA_MDATAALIGN_BYTE;
 379:Drivers/BSP/STM32F429I-Discovery/stm32f429i_discovery.c ****     hdma_tx.Init.Mode                 = DMA_NORMAL;
 380:Drivers/BSP/STM32F429I-Discovery/stm32f429i_discovery.c ****     hdma_tx.Init.Priority             = DMA_PRIORITY_VERY_HIGH;
 381:Drivers/BSP/STM32F429I-Discovery/stm32f429i_discovery.c ****     hdma_tx.Init.FIFOMode             = DMA_FIFOMODE_ENABLE;         
 382:Drivers/BSP/STM32F429I-Discovery/stm32f429i_discovery.c ****     hdma_tx.Init.FIFOThreshold        = DMA_FIFO_THRESHOLD_FULL;
 383:Drivers/BSP/STM32F429I-Discovery/stm32f429i_discovery.c ****     hdma_tx.Init.MemBurst             = DMA_MBURST_SINGLE;
 384:Drivers/BSP/STM32F429I-Discovery/stm32f429i_discovery.c ****     hdma_tx.Init.PeriphBurst          = DMA_PBURST_SINGLE; 
 385:Drivers/BSP/STM32F429I-Discovery/stm32f429i_discovery.c **** 
 386:Drivers/BSP/STM32F429I-Discovery/stm32f429i_discovery.c ****     /* Associate the initilalized hdma_tx handle to the the pI2cHandle handle */
 387:Drivers/BSP/STM32F429I-Discovery/stm32f429i_discovery.c ****     __HAL_LINKDMA(pI2cHandle, hdmatx, hdma_tx);
 388:Drivers/BSP/STM32F429I-Discovery/stm32f429i_discovery.c ****     
 389:Drivers/BSP/STM32F429I-Discovery/stm32f429i_discovery.c ****     /* Configure the DMA Stream */
 390:Drivers/BSP/STM32F429I-Discovery/stm32f429i_discovery.c ****     HAL_DMA_Init(&hdma_tx);
 391:Drivers/BSP/STM32F429I-Discovery/stm32f429i_discovery.c ****     
ARM GAS  /tmp/ccoTsclT.s 			page 19


 392:Drivers/BSP/STM32F429I-Discovery/stm32f429i_discovery.c ****     /* Configure and enable I2C DMA TX Channel interrupt */
 393:Drivers/BSP/STM32F429I-Discovery/stm32f429i_discovery.c ****     HAL_NVIC_SetPriority((IRQn_Type)(EEPROM_I2C_DMA_TX_IRQn), EEPROM_I2C_DMA_PREPRIO, 0);
 394:Drivers/BSP/STM32F429I-Discovery/stm32f429i_discovery.c ****     HAL_NVIC_EnableIRQ((IRQn_Type)(EEPROM_I2C_DMA_TX_IRQn));
 395:Drivers/BSP/STM32F429I-Discovery/stm32f429i_discovery.c ****     
 396:Drivers/BSP/STM32F429I-Discovery/stm32f429i_discovery.c ****     /* Configure the DMA stream for the EE I2C peripheral TX direction */
 397:Drivers/BSP/STM32F429I-Discovery/stm32f429i_discovery.c ****     /* Configure the DMA Stream */
 398:Drivers/BSP/STM32F429I-Discovery/stm32f429i_discovery.c ****     hdma_rx.Instance                  = EEPROM_I2C_DMA_STREAM_RX;
 399:Drivers/BSP/STM32F429I-Discovery/stm32f429i_discovery.c ****     /* Set the parameters to be configured */
 400:Drivers/BSP/STM32F429I-Discovery/stm32f429i_discovery.c ****     hdma_rx.Init.Channel              = EEPROM_I2C_DMA_CHANNEL;  
 401:Drivers/BSP/STM32F429I-Discovery/stm32f429i_discovery.c ****     hdma_rx.Init.Direction            = DMA_PERIPH_TO_MEMORY;
 402:Drivers/BSP/STM32F429I-Discovery/stm32f429i_discovery.c ****     hdma_rx.Init.PeriphInc            = DMA_PINC_DISABLE;
 403:Drivers/BSP/STM32F429I-Discovery/stm32f429i_discovery.c ****     hdma_rx.Init.MemInc               = DMA_MINC_ENABLE;
 404:Drivers/BSP/STM32F429I-Discovery/stm32f429i_discovery.c ****     hdma_rx.Init.PeriphDataAlignment  = DMA_PDATAALIGN_BYTE;
 405:Drivers/BSP/STM32F429I-Discovery/stm32f429i_discovery.c ****     hdma_rx.Init.MemDataAlignment     = DMA_MDATAALIGN_BYTE;
 406:Drivers/BSP/STM32F429I-Discovery/stm32f429i_discovery.c ****     hdma_rx.Init.Mode                 = DMA_NORMAL;
 407:Drivers/BSP/STM32F429I-Discovery/stm32f429i_discovery.c ****     hdma_rx.Init.Priority             = DMA_PRIORITY_VERY_HIGH;
 408:Drivers/BSP/STM32F429I-Discovery/stm32f429i_discovery.c ****     hdma_rx.Init.FIFOMode             = DMA_FIFOMODE_ENABLE;         
 409:Drivers/BSP/STM32F429I-Discovery/stm32f429i_discovery.c ****     hdma_rx.Init.FIFOThreshold        = DMA_FIFO_THRESHOLD_FULL;
 410:Drivers/BSP/STM32F429I-Discovery/stm32f429i_discovery.c ****     hdma_rx.Init.MemBurst             = DMA_MBURST_SINGLE;
 411:Drivers/BSP/STM32F429I-Discovery/stm32f429i_discovery.c ****     hdma_rx.Init.PeriphBurst          = DMA_PBURST_SINGLE; 
 412:Drivers/BSP/STM32F429I-Discovery/stm32f429i_discovery.c **** 
 413:Drivers/BSP/STM32F429I-Discovery/stm32f429i_discovery.c ****     /* Associate the initilalized hdma_rx handle to the the pI2cHandle handle*/
 414:Drivers/BSP/STM32F429I-Discovery/stm32f429i_discovery.c ****     __HAL_LINKDMA(pI2cHandle, hdmarx, hdma_rx);
 415:Drivers/BSP/STM32F429I-Discovery/stm32f429i_discovery.c ****     
 416:Drivers/BSP/STM32F429I-Discovery/stm32f429i_discovery.c ****     /* Configure the DMA Stream */
 417:Drivers/BSP/STM32F429I-Discovery/stm32f429i_discovery.c ****     HAL_DMA_Init(&hdma_rx);
 418:Drivers/BSP/STM32F429I-Discovery/stm32f429i_discovery.c ****     
 419:Drivers/BSP/STM32F429I-Discovery/stm32f429i_discovery.c ****     /* Configure and enable I2C DMA RX Channel interrupt */
 420:Drivers/BSP/STM32F429I-Discovery/stm32f429i_discovery.c ****     HAL_NVIC_SetPriority((IRQn_Type)(EEPROM_I2C_DMA_RX_IRQn), EEPROM_I2C_DMA_PREPRIO, 0);
 421:Drivers/BSP/STM32F429I-Discovery/stm32f429i_discovery.c ****     HAL_NVIC_EnableIRQ((IRQn_Type)(EEPROM_I2C_DMA_RX_IRQn));
 422:Drivers/BSP/STM32F429I-Discovery/stm32f429i_discovery.c **** #endif /* EE_M24LR64 */
 423:Drivers/BSP/STM32F429I-Discovery/stm32f429i_discovery.c ****   }
 424:Drivers/BSP/STM32F429I-Discovery/stm32f429i_discovery.c **** }
 665              		.loc 1 424 0
 666 00c6 2837     		adds	r7, r7, #40
 667 00c8 BD46     		mov	sp, r7
 668              		@ sp needed
 669 00ca 80BD     		pop	{r7, pc}
 670              	.L32:
 671              		.align	2
 672              	.L31:
 673 00cc 005C0040 		.word	1073765376
 674 00d0 00380240 		.word	1073887232
 675 00d4 00000240 		.word	1073872896
 676 00d8 00080240 		.word	1073874944
 677              		.cfi_endproc
 678              	.LFE132:
 680              		.section	.text.I2Cx_Init,"ax",%progbits
 681              		.align	2
 682              		.thumb
 683              		.thumb_func
 685              	I2Cx_Init:
 686              	.LFB133:
 425:Drivers/BSP/STM32F429I-Discovery/stm32f429i_discovery.c **** 
 426:Drivers/BSP/STM32F429I-Discovery/stm32f429i_discovery.c **** /**
 427:Drivers/BSP/STM32F429I-Discovery/stm32f429i_discovery.c ****   * @brief  I2Cx Bus initialization.
 428:Drivers/BSP/STM32F429I-Discovery/stm32f429i_discovery.c ****   * @param  None
ARM GAS  /tmp/ccoTsclT.s 			page 20


 429:Drivers/BSP/STM32F429I-Discovery/stm32f429i_discovery.c ****   * @retval None
 430:Drivers/BSP/STM32F429I-Discovery/stm32f429i_discovery.c ****   */
 431:Drivers/BSP/STM32F429I-Discovery/stm32f429i_discovery.c **** static void I2Cx_Init(void)
 432:Drivers/BSP/STM32F429I-Discovery/stm32f429i_discovery.c **** {
 687              		.loc 1 432 0
 688              		.cfi_startproc
 689              		@ args = 0, pretend = 0, frame = 0
 690              		@ frame_needed = 1, uses_anonymous_args = 0
 691 0000 80B5     		push	{r7, lr}
 692              	.LCFI23:
 693              		.cfi_def_cfa_offset 8
 694              		.cfi_offset 7, -8
 695              		.cfi_offset 14, -4
 696 0002 00AF     		add	r7, sp, #0
 697              	.LCFI24:
 698              		.cfi_def_cfa_register 7
 433:Drivers/BSP/STM32F429I-Discovery/stm32f429i_discovery.c ****   if(HAL_I2C_GetState(&I2cHandle) == HAL_I2C_STATE_RESET)
 699              		.loc 1 433 0
 700 0004 1448     		ldr	r0, .L35
 701 0006 FFF7FEFF 		bl	HAL_I2C_GetState
 702 000a 0346     		mov	r3, r0
 703 000c 002B     		cmp	r3, #0
 704 000e 21D1     		bne	.L33
 434:Drivers/BSP/STM32F429I-Discovery/stm32f429i_discovery.c ****   {
 435:Drivers/BSP/STM32F429I-Discovery/stm32f429i_discovery.c ****     I2cHandle.Instance              = DISCOVERY_I2Cx;
 705              		.loc 1 435 0
 706 0010 114B     		ldr	r3, .L35
 707 0012 124A     		ldr	r2, .L35+4
 708 0014 1A60     		str	r2, [r3]
 436:Drivers/BSP/STM32F429I-Discovery/stm32f429i_discovery.c ****     I2cHandle.Init.ClockSpeed       = BSP_I2C_SPEED;
 709              		.loc 1 436 0
 710 0016 104B     		ldr	r3, .L35
 711 0018 114A     		ldr	r2, .L35+8
 712 001a 5A60     		str	r2, [r3, #4]
 437:Drivers/BSP/STM32F429I-Discovery/stm32f429i_discovery.c ****     I2cHandle.Init.DutyCycle        = I2C_DUTYCYCLE_2;
 713              		.loc 1 437 0
 714 001c 0E4B     		ldr	r3, .L35
 715 001e 0022     		movs	r2, #0
 716 0020 9A60     		str	r2, [r3, #8]
 438:Drivers/BSP/STM32F429I-Discovery/stm32f429i_discovery.c ****     I2cHandle.Init.OwnAddress1      = 0;
 717              		.loc 1 438 0
 718 0022 0D4B     		ldr	r3, .L35
 719 0024 0022     		movs	r2, #0
 720 0026 DA60     		str	r2, [r3, #12]
 439:Drivers/BSP/STM32F429I-Discovery/stm32f429i_discovery.c ****     I2cHandle.Init.AddressingMode   = I2C_ADDRESSINGMODE_7BIT;
 721              		.loc 1 439 0
 722 0028 0B4B     		ldr	r3, .L35
 723 002a 4FF48042 		mov	r2, #16384
 724 002e 1A61     		str	r2, [r3, #16]
 440:Drivers/BSP/STM32F429I-Discovery/stm32f429i_discovery.c ****     I2cHandle.Init.DualAddressMode  = I2C_DUALADDRESS_DISABLED;
 725              		.loc 1 440 0
 726 0030 094B     		ldr	r3, .L35
 727 0032 0022     		movs	r2, #0
 728 0034 5A61     		str	r2, [r3, #20]
 441:Drivers/BSP/STM32F429I-Discovery/stm32f429i_discovery.c ****     I2cHandle.Init.OwnAddress2      = 0;
 729              		.loc 1 441 0
 730 0036 084B     		ldr	r3, .L35
ARM GAS  /tmp/ccoTsclT.s 			page 21


 731 0038 0022     		movs	r2, #0
 732 003a 9A61     		str	r2, [r3, #24]
 442:Drivers/BSP/STM32F429I-Discovery/stm32f429i_discovery.c ****     I2cHandle.Init.GeneralCallMode  = I2C_GENERALCALL_DISABLED;
 733              		.loc 1 442 0
 734 003c 064B     		ldr	r3, .L35
 735 003e 0022     		movs	r2, #0
 736 0040 DA61     		str	r2, [r3, #28]
 443:Drivers/BSP/STM32F429I-Discovery/stm32f429i_discovery.c ****     I2cHandle.Init.NoStretchMode    = I2C_NOSTRETCH_DISABLED;  
 737              		.loc 1 443 0
 738 0042 054B     		ldr	r3, .L35
 739 0044 0022     		movs	r2, #0
 740 0046 1A62     		str	r2, [r3, #32]
 444:Drivers/BSP/STM32F429I-Discovery/stm32f429i_discovery.c ****     
 445:Drivers/BSP/STM32F429I-Discovery/stm32f429i_discovery.c ****     /* Init the I2C */
 446:Drivers/BSP/STM32F429I-Discovery/stm32f429i_discovery.c ****     I2Cx_MspInit(&I2cHandle);
 741              		.loc 1 446 0
 742 0048 0348     		ldr	r0, .L35
 743 004a FFF7FEFF 		bl	I2Cx_MspInit
 447:Drivers/BSP/STM32F429I-Discovery/stm32f429i_discovery.c ****     HAL_I2C_Init(&I2cHandle);
 744              		.loc 1 447 0
 745 004e 0248     		ldr	r0, .L35
 746 0050 FFF7FEFF 		bl	HAL_I2C_Init
 747              	.L33:
 448:Drivers/BSP/STM32F429I-Discovery/stm32f429i_discovery.c ****   }
 449:Drivers/BSP/STM32F429I-Discovery/stm32f429i_discovery.c **** }
 748              		.loc 1 449 0
 749 0054 80BD     		pop	{r7, pc}
 750              	.L36:
 751 0056 00BF     		.align	2
 752              	.L35:
 753 0058 00000000 		.word	I2cHandle
 754 005c 005C0040 		.word	1073765376
 755 0060 A0860100 		.word	100000
 756              		.cfi_endproc
 757              	.LFE133:
 759              		.section	.text.I2Cx_ITConfig,"ax",%progbits
 760              		.align	2
 761              		.thumb
 762              		.thumb_func
 764              	I2Cx_ITConfig:
 765              	.LFB134:
 450:Drivers/BSP/STM32F429I-Discovery/stm32f429i_discovery.c **** 
 451:Drivers/BSP/STM32F429I-Discovery/stm32f429i_discovery.c **** /**
 452:Drivers/BSP/STM32F429I-Discovery/stm32f429i_discovery.c ****   * @brief  Configures Interruption pin for I2C communication.
 453:Drivers/BSP/STM32F429I-Discovery/stm32f429i_discovery.c ****   * @param  None
 454:Drivers/BSP/STM32F429I-Discovery/stm32f429i_discovery.c ****   * @retval None
 455:Drivers/BSP/STM32F429I-Discovery/stm32f429i_discovery.c ****   */
 456:Drivers/BSP/STM32F429I-Discovery/stm32f429i_discovery.c **** static void I2Cx_ITConfig(void)
 457:Drivers/BSP/STM32F429I-Discovery/stm32f429i_discovery.c **** {
 766              		.loc 1 457 0
 767              		.cfi_startproc
 768              		@ args = 0, pretend = 0, frame = 24
 769              		@ frame_needed = 1, uses_anonymous_args = 0
 770 0000 80B5     		push	{r7, lr}
 771              	.LCFI25:
 772              		.cfi_def_cfa_offset 8
 773              		.cfi_offset 7, -8
ARM GAS  /tmp/ccoTsclT.s 			page 22


 774              		.cfi_offset 14, -4
 775 0002 86B0     		sub	sp, sp, #24
 776              	.LCFI26:
 777              		.cfi_def_cfa_offset 32
 778 0004 00AF     		add	r7, sp, #0
 779              	.LCFI27:
 780              		.cfi_def_cfa_register 7
 781              	.LBB8:
 458:Drivers/BSP/STM32F429I-Discovery/stm32f429i_discovery.c ****   GPIO_InitTypeDef  GPIO_InitStruct;
 459:Drivers/BSP/STM32F429I-Discovery/stm32f429i_discovery.c ****     
 460:Drivers/BSP/STM32F429I-Discovery/stm32f429i_discovery.c ****   /* Enable the GPIO EXTI Clock */
 461:Drivers/BSP/STM32F429I-Discovery/stm32f429i_discovery.c ****   STMPE811_INT_CLK_ENABLE();
 782              		.loc 1 461 0
 783 0006 124B     		ldr	r3, .L38
 784 0008 114A     		ldr	r2, .L38
 785 000a 126B     		ldr	r2, [r2, #48]
 786 000c 42F00102 		orr	r2, r2, #1
 787 0010 1A63     		str	r2, [r3, #48]
 788 0012 0F4B     		ldr	r3, .L38
 789 0014 1B6B     		ldr	r3, [r3, #48]
 790 0016 03F00103 		and	r3, r3, #1
 791 001a 3B60     		str	r3, [r7]
 792 001c 3B68     		ldr	r3, [r7]
 793              	.LBE8:
 462:Drivers/BSP/STM32F429I-Discovery/stm32f429i_discovery.c ****   
 463:Drivers/BSP/STM32F429I-Discovery/stm32f429i_discovery.c ****   GPIO_InitStruct.Pin   = STMPE811_INT_PIN;
 794              		.loc 1 463 0
 795 001e 4FF40043 		mov	r3, #32768
 796 0022 7B60     		str	r3, [r7, #4]
 464:Drivers/BSP/STM32F429I-Discovery/stm32f429i_discovery.c ****   GPIO_InitStruct.Pull  = GPIO_PULLUP;
 797              		.loc 1 464 0
 798 0024 0123     		movs	r3, #1
 799 0026 FB60     		str	r3, [r7, #12]
 465:Drivers/BSP/STM32F429I-Discovery/stm32f429i_discovery.c ****   GPIO_InitStruct.Speed = GPIO_SPEED_LOW;
 800              		.loc 1 465 0
 801 0028 0023     		movs	r3, #0
 802 002a 3B61     		str	r3, [r7, #16]
 466:Drivers/BSP/STM32F429I-Discovery/stm32f429i_discovery.c ****   GPIO_InitStruct.Mode  = GPIO_MODE_IT_FALLING;
 803              		.loc 1 466 0
 804 002c 094B     		ldr	r3, .L38+4
 805 002e BB60     		str	r3, [r7, #8]
 467:Drivers/BSP/STM32F429I-Discovery/stm32f429i_discovery.c ****   HAL_GPIO_Init(STMPE811_INT_GPIO_PORT, &GPIO_InitStruct);
 806              		.loc 1 467 0
 807 0030 3B1D     		adds	r3, r7, #4
 808 0032 0948     		ldr	r0, .L38+8
 809 0034 1946     		mov	r1, r3
 810 0036 FFF7FEFF 		bl	HAL_GPIO_Init
 468:Drivers/BSP/STM32F429I-Discovery/stm32f429i_discovery.c ****     
 469:Drivers/BSP/STM32F429I-Discovery/stm32f429i_discovery.c ****   /* Enable and set GPIO EXTI Interrupt to the highest priority */
 470:Drivers/BSP/STM32F429I-Discovery/stm32f429i_discovery.c ****   HAL_NVIC_SetPriority((IRQn_Type)(STMPE811_INT_EXTI), 0x00, 0x00);
 811              		.loc 1 470 0
 812 003a 2820     		movs	r0, #40
 813 003c 0021     		movs	r1, #0
 814 003e 0022     		movs	r2, #0
 815 0040 FFF7FEFF 		bl	HAL_NVIC_SetPriority
 471:Drivers/BSP/STM32F429I-Discovery/stm32f429i_discovery.c ****   HAL_NVIC_EnableIRQ((IRQn_Type)(STMPE811_INT_EXTI));
 816              		.loc 1 471 0
ARM GAS  /tmp/ccoTsclT.s 			page 23


 817 0044 2820     		movs	r0, #40
 818 0046 FFF7FEFF 		bl	HAL_NVIC_EnableIRQ
 472:Drivers/BSP/STM32F429I-Discovery/stm32f429i_discovery.c **** }
 819              		.loc 1 472 0
 820 004a 1837     		adds	r7, r7, #24
 821 004c BD46     		mov	sp, r7
 822              		@ sp needed
 823 004e 80BD     		pop	{r7, pc}
 824              	.L39:
 825              		.align	2
 826              	.L38:
 827 0050 00380240 		.word	1073887232
 828 0054 00002110 		.word	270598144
 829 0058 00000240 		.word	1073872896
 830              		.cfi_endproc
 831              	.LFE134:
 833              		.section	.text.I2Cx_WriteData,"ax",%progbits
 834              		.align	2
 835              		.thumb
 836              		.thumb_func
 838              	I2Cx_WriteData:
 839              	.LFB135:
 473:Drivers/BSP/STM32F429I-Discovery/stm32f429i_discovery.c **** 
 474:Drivers/BSP/STM32F429I-Discovery/stm32f429i_discovery.c **** /**
 475:Drivers/BSP/STM32F429I-Discovery/stm32f429i_discovery.c ****   * @brief  Writes a value in a register of the device through BUS.
 476:Drivers/BSP/STM32F429I-Discovery/stm32f429i_discovery.c ****   * @param  Addr: Device address on BUS Bus.  
 477:Drivers/BSP/STM32F429I-Discovery/stm32f429i_discovery.c ****   * @param  Reg: The target register address to write
 478:Drivers/BSP/STM32F429I-Discovery/stm32f429i_discovery.c ****   * @param  Value: The target register value to be written 
 479:Drivers/BSP/STM32F429I-Discovery/stm32f429i_discovery.c ****   * @retval None
 480:Drivers/BSP/STM32F429I-Discovery/stm32f429i_discovery.c ****   */
 481:Drivers/BSP/STM32F429I-Discovery/stm32f429i_discovery.c **** static void I2Cx_WriteData(uint8_t Addr, uint8_t Reg, uint8_t Value)
 482:Drivers/BSP/STM32F429I-Discovery/stm32f429i_discovery.c ****   {
 840              		.loc 1 482 0
 841              		.cfi_startproc
 842              		@ args = 0, pretend = 0, frame = 16
 843              		@ frame_needed = 1, uses_anonymous_args = 0
 844 0000 80B5     		push	{r7, lr}
 845              	.LCFI28:
 846              		.cfi_def_cfa_offset 8
 847              		.cfi_offset 7, -8
 848              		.cfi_offset 14, -4
 849 0002 88B0     		sub	sp, sp, #32
 850              	.LCFI29:
 851              		.cfi_def_cfa_offset 40
 852 0004 04AF     		add	r7, sp, #16
 853              	.LCFI30:
 854              		.cfi_def_cfa 7, 24
 855 0006 1346     		mov	r3, r2
 856 0008 0246     		mov	r2, r0
 857 000a FA71     		strb	r2, [r7, #7]
 858 000c 0A46     		mov	r2, r1
 859 000e BA71     		strb	r2, [r7, #6]
 860 0010 7B71     		strb	r3, [r7, #5]
 483:Drivers/BSP/STM32F429I-Discovery/stm32f429i_discovery.c ****   HAL_StatusTypeDef status = HAL_OK;
 861              		.loc 1 483 0
 862 0012 0023     		movs	r3, #0
 863 0014 FB73     		strb	r3, [r7, #15]
ARM GAS  /tmp/ccoTsclT.s 			page 24


 484:Drivers/BSP/STM32F429I-Discovery/stm32f429i_discovery.c ****   
 485:Drivers/BSP/STM32F429I-Discovery/stm32f429i_discovery.c ****   status = HAL_I2C_Mem_Write(&I2cHandle, Addr, (uint16_t)Reg, I2C_MEMADD_SIZE_8BIT, &Value, 1, I2cx
 864              		.loc 1 485 0
 865 0016 FB79     		ldrb	r3, [r7, #7]	@ zero_extendqisi2
 866 0018 9AB2     		uxth	r2, r3
 867 001a BB79     		ldrb	r3, [r7, #6]	@ zero_extendqisi2
 868 001c 9BB2     		uxth	r3, r3
 869 001e 0B49     		ldr	r1, .L42
 870 0020 0968     		ldr	r1, [r1]
 871 0022 781D     		adds	r0, r7, #5
 872 0024 0090     		str	r0, [sp]
 873 0026 0120     		movs	r0, #1
 874 0028 0190     		str	r0, [sp, #4]
 875 002a 0291     		str	r1, [sp, #8]
 876 002c 0848     		ldr	r0, .L42+4
 877 002e 1146     		mov	r1, r2
 878 0030 1A46     		mov	r2, r3
 879 0032 0123     		movs	r3, #1
 880 0034 FFF7FEFF 		bl	HAL_I2C_Mem_Write
 881 0038 0346     		mov	r3, r0
 882 003a FB73     		strb	r3, [r7, #15]
 486:Drivers/BSP/STM32F429I-Discovery/stm32f429i_discovery.c ****   
 487:Drivers/BSP/STM32F429I-Discovery/stm32f429i_discovery.c ****   /* Check the communication status */
 488:Drivers/BSP/STM32F429I-Discovery/stm32f429i_discovery.c ****   if(status != HAL_OK)
 883              		.loc 1 488 0
 884 003c FB7B     		ldrb	r3, [r7, #15]	@ zero_extendqisi2
 885 003e 002B     		cmp	r3, #0
 886 0040 01D0     		beq	.L40
 489:Drivers/BSP/STM32F429I-Discovery/stm32f429i_discovery.c ****   {
 490:Drivers/BSP/STM32F429I-Discovery/stm32f429i_discovery.c ****     /* Re-Initialize the BUS */
 491:Drivers/BSP/STM32F429I-Discovery/stm32f429i_discovery.c ****     I2Cx_Error();
 887              		.loc 1 491 0
 888 0042 FFF7FEFF 		bl	I2Cx_Error
 889              	.L40:
 492:Drivers/BSP/STM32F429I-Discovery/stm32f429i_discovery.c ****   }        
 493:Drivers/BSP/STM32F429I-Discovery/stm32f429i_discovery.c **** }
 890              		.loc 1 493 0
 891 0046 1037     		adds	r7, r7, #16
 892 0048 BD46     		mov	sp, r7
 893              		@ sp needed
 894 004a 80BD     		pop	{r7, pc}
 895              	.L43:
 896              		.align	2
 897              	.L42:
 898 004c 00000000 		.word	I2cxTimeout
 899 0050 00000000 		.word	I2cHandle
 900              		.cfi_endproc
 901              	.LFE135:
 903              		.section	.text.I2Cx_WriteBuffer,"ax",%progbits
 904              		.align	2
 905              		.thumb
 906              		.thumb_func
 908              	I2Cx_WriteBuffer:
 909              	.LFB136:
 494:Drivers/BSP/STM32F429I-Discovery/stm32f429i_discovery.c **** 
 495:Drivers/BSP/STM32F429I-Discovery/stm32f429i_discovery.c **** /**
 496:Drivers/BSP/STM32F429I-Discovery/stm32f429i_discovery.c ****   * @brief  Writes a value in a register of the device through BUS.
ARM GAS  /tmp/ccoTsclT.s 			page 25


 497:Drivers/BSP/STM32F429I-Discovery/stm32f429i_discovery.c ****   * @param  Addr: Device address on BUS Bus.  
 498:Drivers/BSP/STM32F429I-Discovery/stm32f429i_discovery.c ****   * @param  Reg: The target register address to write
 499:Drivers/BSP/STM32F429I-Discovery/stm32f429i_discovery.c ****   * @param  pBuffer: The target register value to be written 
 500:Drivers/BSP/STM32F429I-Discovery/stm32f429i_discovery.c ****   * @param  Length: buffer size to be written
 501:Drivers/BSP/STM32F429I-Discovery/stm32f429i_discovery.c ****   * @retval None
 502:Drivers/BSP/STM32F429I-Discovery/stm32f429i_discovery.c ****   */
 503:Drivers/BSP/STM32F429I-Discovery/stm32f429i_discovery.c **** static void I2Cx_WriteBuffer(uint8_t Addr, uint8_t Reg,  uint8_t *pBuffer, uint16_t Length)
 504:Drivers/BSP/STM32F429I-Discovery/stm32f429i_discovery.c ****   {
 910              		.loc 1 504 0
 911              		.cfi_startproc
 912              		@ args = 0, pretend = 0, frame = 16
 913              		@ frame_needed = 1, uses_anonymous_args = 0
 914 0000 80B5     		push	{r7, lr}
 915              	.LCFI31:
 916              		.cfi_def_cfa_offset 8
 917              		.cfi_offset 7, -8
 918              		.cfi_offset 14, -4
 919 0002 88B0     		sub	sp, sp, #32
 920              	.LCFI32:
 921              		.cfi_def_cfa_offset 40
 922 0004 04AF     		add	r7, sp, #16
 923              	.LCFI33:
 924              		.cfi_def_cfa 7, 24
 925 0006 3A60     		str	r2, [r7]
 926 0008 0246     		mov	r2, r0
 927 000a FA71     		strb	r2, [r7, #7]
 928 000c 0A46     		mov	r2, r1
 929 000e BA71     		strb	r2, [r7, #6]
 930 0010 BB80     		strh	r3, [r7, #4]	@ movhi
 505:Drivers/BSP/STM32F429I-Discovery/stm32f429i_discovery.c ****   HAL_StatusTypeDef status = HAL_OK;
 931              		.loc 1 505 0
 932 0012 0023     		movs	r3, #0
 933 0014 FB73     		strb	r3, [r7, #15]
 506:Drivers/BSP/STM32F429I-Discovery/stm32f429i_discovery.c ****   
 507:Drivers/BSP/STM32F429I-Discovery/stm32f429i_discovery.c ****   status = HAL_I2C_Mem_Write(&I2cHandle, Addr, (uint16_t)Reg, I2C_MEMADD_SIZE_8BIT, pBuffer, Length
 934              		.loc 1 507 0
 935 0016 FB79     		ldrb	r3, [r7, #7]	@ zero_extendqisi2
 936 0018 9AB2     		uxth	r2, r3
 937 001a BB79     		ldrb	r3, [r7, #6]	@ zero_extendqisi2
 938 001c 9BB2     		uxth	r3, r3
 939 001e 0B49     		ldr	r1, .L46
 940 0020 0968     		ldr	r1, [r1]
 941 0022 3868     		ldr	r0, [r7]
 942 0024 0090     		str	r0, [sp]
 943 0026 B888     		ldrh	r0, [r7, #4]
 944 0028 0190     		str	r0, [sp, #4]
 945 002a 0291     		str	r1, [sp, #8]
 946 002c 0848     		ldr	r0, .L46+4
 947 002e 1146     		mov	r1, r2
 948 0030 1A46     		mov	r2, r3
 949 0032 0123     		movs	r3, #1
 950 0034 FFF7FEFF 		bl	HAL_I2C_Mem_Write
 951 0038 0346     		mov	r3, r0
 952 003a FB73     		strb	r3, [r7, #15]
 508:Drivers/BSP/STM32F429I-Discovery/stm32f429i_discovery.c **** 
 509:Drivers/BSP/STM32F429I-Discovery/stm32f429i_discovery.c ****   /* Check the communication status */
 510:Drivers/BSP/STM32F429I-Discovery/stm32f429i_discovery.c ****   if(status != HAL_OK)
ARM GAS  /tmp/ccoTsclT.s 			page 26


 953              		.loc 1 510 0
 954 003c FB7B     		ldrb	r3, [r7, #15]	@ zero_extendqisi2
 955 003e 002B     		cmp	r3, #0
 956 0040 01D0     		beq	.L44
 511:Drivers/BSP/STM32F429I-Discovery/stm32f429i_discovery.c ****   {
 512:Drivers/BSP/STM32F429I-Discovery/stm32f429i_discovery.c ****     /* Re-Initialize the BUS */
 513:Drivers/BSP/STM32F429I-Discovery/stm32f429i_discovery.c ****     I2Cx_Error();
 957              		.loc 1 513 0
 958 0042 FFF7FEFF 		bl	I2Cx_Error
 959              	.L44:
 514:Drivers/BSP/STM32F429I-Discovery/stm32f429i_discovery.c ****   }        
 515:Drivers/BSP/STM32F429I-Discovery/stm32f429i_discovery.c **** }
 960              		.loc 1 515 0
 961 0046 1037     		adds	r7, r7, #16
 962 0048 BD46     		mov	sp, r7
 963              		@ sp needed
 964 004a 80BD     		pop	{r7, pc}
 965              	.L47:
 966              		.align	2
 967              	.L46:
 968 004c 00000000 		.word	I2cxTimeout
 969 0050 00000000 		.word	I2cHandle
 970              		.cfi_endproc
 971              	.LFE136:
 973              		.section	.text.I2Cx_ReadData,"ax",%progbits
 974              		.align	2
 975              		.thumb
 976              		.thumb_func
 978              	I2Cx_ReadData:
 979              	.LFB137:
 516:Drivers/BSP/STM32F429I-Discovery/stm32f429i_discovery.c **** 
 517:Drivers/BSP/STM32F429I-Discovery/stm32f429i_discovery.c **** /**
 518:Drivers/BSP/STM32F429I-Discovery/stm32f429i_discovery.c ****   * @brief  Reads a register of the device through BUS.
 519:Drivers/BSP/STM32F429I-Discovery/stm32f429i_discovery.c ****   * @param  Addr: Device address on BUS Bus.  
 520:Drivers/BSP/STM32F429I-Discovery/stm32f429i_discovery.c ****   * @param  Reg: The target register address to write
 521:Drivers/BSP/STM32F429I-Discovery/stm32f429i_discovery.c ****   * @retval Data read at register address
 522:Drivers/BSP/STM32F429I-Discovery/stm32f429i_discovery.c ****   */
 523:Drivers/BSP/STM32F429I-Discovery/stm32f429i_discovery.c **** static uint8_t I2Cx_ReadData(uint8_t Addr, uint8_t Reg)
 524:Drivers/BSP/STM32F429I-Discovery/stm32f429i_discovery.c **** {
 980              		.loc 1 524 0
 981              		.cfi_startproc
 982              		@ args = 0, pretend = 0, frame = 16
 983              		@ frame_needed = 1, uses_anonymous_args = 0
 984 0000 80B5     		push	{r7, lr}
 985              	.LCFI34:
 986              		.cfi_def_cfa_offset 8
 987              		.cfi_offset 7, -8
 988              		.cfi_offset 14, -4
 989 0002 88B0     		sub	sp, sp, #32
 990              	.LCFI35:
 991              		.cfi_def_cfa_offset 40
 992 0004 04AF     		add	r7, sp, #16
 993              	.LCFI36:
 994              		.cfi_def_cfa 7, 24
 995 0006 0246     		mov	r2, r0
 996 0008 0B46     		mov	r3, r1
 997 000a FA71     		strb	r2, [r7, #7]
ARM GAS  /tmp/ccoTsclT.s 			page 27


 998 000c BB71     		strb	r3, [r7, #6]
 525:Drivers/BSP/STM32F429I-Discovery/stm32f429i_discovery.c ****   HAL_StatusTypeDef status = HAL_OK;
 999              		.loc 1 525 0
 1000 000e 0023     		movs	r3, #0
 1001 0010 FB73     		strb	r3, [r7, #15]
 526:Drivers/BSP/STM32F429I-Discovery/stm32f429i_discovery.c ****   uint8_t value = 0;
 1002              		.loc 1 526 0
 1003 0012 0023     		movs	r3, #0
 1004 0014 BB73     		strb	r3, [r7, #14]
 527:Drivers/BSP/STM32F429I-Discovery/stm32f429i_discovery.c ****   
 528:Drivers/BSP/STM32F429I-Discovery/stm32f429i_discovery.c ****   status = HAL_I2C_Mem_Read(&I2cHandle, Addr, Reg, I2C_MEMADD_SIZE_8BIT, &value, 1, I2cxTimeout);
 1005              		.loc 1 528 0
 1006 0016 FB79     		ldrb	r3, [r7, #7]	@ zero_extendqisi2
 1007 0018 9AB2     		uxth	r2, r3
 1008 001a BB79     		ldrb	r3, [r7, #6]	@ zero_extendqisi2
 1009 001c 9BB2     		uxth	r3, r3
 1010 001e 0D49     		ldr	r1, .L51
 1011 0020 0968     		ldr	r1, [r1]
 1012 0022 07F10E00 		add	r0, r7, #14
 1013 0026 0090     		str	r0, [sp]
 1014 0028 0120     		movs	r0, #1
 1015 002a 0190     		str	r0, [sp, #4]
 1016 002c 0291     		str	r1, [sp, #8]
 1017 002e 0A48     		ldr	r0, .L51+4
 1018 0030 1146     		mov	r1, r2
 1019 0032 1A46     		mov	r2, r3
 1020 0034 0123     		movs	r3, #1
 1021 0036 FFF7FEFF 		bl	HAL_I2C_Mem_Read
 1022 003a 0346     		mov	r3, r0
 1023 003c FB73     		strb	r3, [r7, #15]
 529:Drivers/BSP/STM32F429I-Discovery/stm32f429i_discovery.c ****  
 530:Drivers/BSP/STM32F429I-Discovery/stm32f429i_discovery.c ****   /* Check the communication status */
 531:Drivers/BSP/STM32F429I-Discovery/stm32f429i_discovery.c ****   if(status != HAL_OK)
 1024              		.loc 1 531 0
 1025 003e FB7B     		ldrb	r3, [r7, #15]	@ zero_extendqisi2
 1026 0040 002B     		cmp	r3, #0
 1027 0042 01D0     		beq	.L49
 532:Drivers/BSP/STM32F429I-Discovery/stm32f429i_discovery.c ****   {
 533:Drivers/BSP/STM32F429I-Discovery/stm32f429i_discovery.c ****     /* Re-Initialize the BUS */
 534:Drivers/BSP/STM32F429I-Discovery/stm32f429i_discovery.c ****     I2Cx_Error();
 1028              		.loc 1 534 0
 1029 0044 FFF7FEFF 		bl	I2Cx_Error
 1030              	.L49:
 535:Drivers/BSP/STM32F429I-Discovery/stm32f429i_discovery.c ****   
 536:Drivers/BSP/STM32F429I-Discovery/stm32f429i_discovery.c ****   }
 537:Drivers/BSP/STM32F429I-Discovery/stm32f429i_discovery.c ****   return value;
 1031              		.loc 1 537 0
 1032 0048 BB7B     		ldrb	r3, [r7, #14]	@ zero_extendqisi2
 538:Drivers/BSP/STM32F429I-Discovery/stm32f429i_discovery.c **** }
 1033              		.loc 1 538 0
 1034 004a 1846     		mov	r0, r3
 1035 004c 1037     		adds	r7, r7, #16
 1036 004e BD46     		mov	sp, r7
 1037              		@ sp needed
 1038 0050 80BD     		pop	{r7, pc}
 1039              	.L52:
 1040 0052 00BF     		.align	2
ARM GAS  /tmp/ccoTsclT.s 			page 28


 1041              	.L51:
 1042 0054 00000000 		.word	I2cxTimeout
 1043 0058 00000000 		.word	I2cHandle
 1044              		.cfi_endproc
 1045              	.LFE137:
 1047              		.section	.text.I2Cx_ReadBuffer,"ax",%progbits
 1048              		.align	2
 1049              		.thumb
 1050              		.thumb_func
 1052              	I2Cx_ReadBuffer:
 1053              	.LFB138:
 539:Drivers/BSP/STM32F429I-Discovery/stm32f429i_discovery.c **** 
 540:Drivers/BSP/STM32F429I-Discovery/stm32f429i_discovery.c **** /**
 541:Drivers/BSP/STM32F429I-Discovery/stm32f429i_discovery.c ****   * @brief  Reads multiple data on the BUS.
 542:Drivers/BSP/STM32F429I-Discovery/stm32f429i_discovery.c ****   * @param  Addr: I2C Address
 543:Drivers/BSP/STM32F429I-Discovery/stm32f429i_discovery.c ****   * @param  Reg: Reg Address 
 544:Drivers/BSP/STM32F429I-Discovery/stm32f429i_discovery.c ****   * @param  pBuffer: pointer to read data buffer
 545:Drivers/BSP/STM32F429I-Discovery/stm32f429i_discovery.c ****   * @param  Length: length of the data
 546:Drivers/BSP/STM32F429I-Discovery/stm32f429i_discovery.c ****   * @retval 0 if no problems to read multiple data
 547:Drivers/BSP/STM32F429I-Discovery/stm32f429i_discovery.c ****   */
 548:Drivers/BSP/STM32F429I-Discovery/stm32f429i_discovery.c **** static uint8_t I2Cx_ReadBuffer(uint8_t Addr, uint8_t Reg, uint8_t *pBuffer, uint16_t Length)
 549:Drivers/BSP/STM32F429I-Discovery/stm32f429i_discovery.c **** {
 1054              		.loc 1 549 0
 1055              		.cfi_startproc
 1056              		@ args = 0, pretend = 0, frame = 16
 1057              		@ frame_needed = 1, uses_anonymous_args = 0
 1058 0000 80B5     		push	{r7, lr}
 1059              	.LCFI37:
 1060              		.cfi_def_cfa_offset 8
 1061              		.cfi_offset 7, -8
 1062              		.cfi_offset 14, -4
 1063 0002 88B0     		sub	sp, sp, #32
 1064              	.LCFI38:
 1065              		.cfi_def_cfa_offset 40
 1066 0004 04AF     		add	r7, sp, #16
 1067              	.LCFI39:
 1068              		.cfi_def_cfa 7, 24
 1069 0006 3A60     		str	r2, [r7]
 1070 0008 0246     		mov	r2, r0
 1071 000a FA71     		strb	r2, [r7, #7]
 1072 000c 0A46     		mov	r2, r1
 1073 000e BA71     		strb	r2, [r7, #6]
 1074 0010 BB80     		strh	r3, [r7, #4]	@ movhi
 550:Drivers/BSP/STM32F429I-Discovery/stm32f429i_discovery.c ****   HAL_StatusTypeDef status = HAL_OK;
 1075              		.loc 1 550 0
 1076 0012 0023     		movs	r3, #0
 1077 0014 FB73     		strb	r3, [r7, #15]
 551:Drivers/BSP/STM32F429I-Discovery/stm32f429i_discovery.c **** 
 552:Drivers/BSP/STM32F429I-Discovery/stm32f429i_discovery.c ****   status = HAL_I2C_Mem_Read(&I2cHandle, Addr, (uint16_t)Reg, I2C_MEMADD_SIZE_8BIT, pBuffer, Length,
 1078              		.loc 1 552 0
 1079 0016 FB79     		ldrb	r3, [r7, #7]	@ zero_extendqisi2
 1080 0018 9AB2     		uxth	r2, r3
 1081 001a BB79     		ldrb	r3, [r7, #6]	@ zero_extendqisi2
 1082 001c 9BB2     		uxth	r3, r3
 1083 001e 0D49     		ldr	r1, .L56
 1084 0020 0968     		ldr	r1, [r1]
 1085 0022 3868     		ldr	r0, [r7]
ARM GAS  /tmp/ccoTsclT.s 			page 29


 1086 0024 0090     		str	r0, [sp]
 1087 0026 B888     		ldrh	r0, [r7, #4]
 1088 0028 0190     		str	r0, [sp, #4]
 1089 002a 0291     		str	r1, [sp, #8]
 1090 002c 0A48     		ldr	r0, .L56+4
 1091 002e 1146     		mov	r1, r2
 1092 0030 1A46     		mov	r2, r3
 1093 0032 0123     		movs	r3, #1
 1094 0034 FFF7FEFF 		bl	HAL_I2C_Mem_Read
 1095 0038 0346     		mov	r3, r0
 1096 003a FB73     		strb	r3, [r7, #15]
 553:Drivers/BSP/STM32F429I-Discovery/stm32f429i_discovery.c ****   
 554:Drivers/BSP/STM32F429I-Discovery/stm32f429i_discovery.c ****   /* Check the communication status */
 555:Drivers/BSP/STM32F429I-Discovery/stm32f429i_discovery.c ****   if(status == HAL_OK)
 1097              		.loc 1 555 0
 1098 003c FB7B     		ldrb	r3, [r7, #15]	@ zero_extendqisi2
 1099 003e 002B     		cmp	r3, #0
 1100 0040 01D1     		bne	.L54
 556:Drivers/BSP/STM32F429I-Discovery/stm32f429i_discovery.c ****   {
 557:Drivers/BSP/STM32F429I-Discovery/stm32f429i_discovery.c ****     return 0;
 1101              		.loc 1 557 0
 1102 0042 0023     		movs	r3, #0
 1103 0044 02E0     		b	.L55
 1104              	.L54:
 558:Drivers/BSP/STM32F429I-Discovery/stm32f429i_discovery.c ****   }
 559:Drivers/BSP/STM32F429I-Discovery/stm32f429i_discovery.c ****   else
 560:Drivers/BSP/STM32F429I-Discovery/stm32f429i_discovery.c ****   {
 561:Drivers/BSP/STM32F429I-Discovery/stm32f429i_discovery.c ****     /* Re-Initialize the BUS */
 562:Drivers/BSP/STM32F429I-Discovery/stm32f429i_discovery.c ****     I2Cx_Error();
 1105              		.loc 1 562 0
 1106 0046 FFF7FEFF 		bl	I2Cx_Error
 563:Drivers/BSP/STM32F429I-Discovery/stm32f429i_discovery.c **** 
 564:Drivers/BSP/STM32F429I-Discovery/stm32f429i_discovery.c ****     return 1;
 1107              		.loc 1 564 0
 1108 004a 0123     		movs	r3, #1
 1109              	.L55:
 565:Drivers/BSP/STM32F429I-Discovery/stm32f429i_discovery.c ****   }
 566:Drivers/BSP/STM32F429I-Discovery/stm32f429i_discovery.c **** }
 1110              		.loc 1 566 0
 1111 004c 1846     		mov	r0, r3
 1112 004e 1037     		adds	r7, r7, #16
 1113 0050 BD46     		mov	sp, r7
 1114              		@ sp needed
 1115 0052 80BD     		pop	{r7, pc}
 1116              	.L57:
 1117              		.align	2
 1118              	.L56:
 1119 0054 00000000 		.word	I2cxTimeout
 1120 0058 00000000 		.word	I2cHandle
 1121              		.cfi_endproc
 1122              	.LFE138:
 1124              		.section	.text.I2Cx_Error,"ax",%progbits
 1125              		.align	2
 1126              		.thumb
 1127              		.thumb_func
 1129              	I2Cx_Error:
 1130              	.LFB139:
ARM GAS  /tmp/ccoTsclT.s 			page 30


 567:Drivers/BSP/STM32F429I-Discovery/stm32f429i_discovery.c **** 
 568:Drivers/BSP/STM32F429I-Discovery/stm32f429i_discovery.c **** #ifdef EE_M24LR64
 569:Drivers/BSP/STM32F429I-Discovery/stm32f429i_discovery.c **** /**
 570:Drivers/BSP/STM32F429I-Discovery/stm32f429i_discovery.c ****   * @brief  Writes a value in a register of the device through BUS in using DMA mode.
 571:Drivers/BSP/STM32F429I-Discovery/stm32f429i_discovery.c ****   * @param  Addr: Device address on BUS Bus.  
 572:Drivers/BSP/STM32F429I-Discovery/stm32f429i_discovery.c ****   * @param  Reg: The target register address to write
 573:Drivers/BSP/STM32F429I-Discovery/stm32f429i_discovery.c ****   * @param  pBuffer: The target register value to be written 
 574:Drivers/BSP/STM32F429I-Discovery/stm32f429i_discovery.c ****   * @param  Length: buffer size to be written
 575:Drivers/BSP/STM32F429I-Discovery/stm32f429i_discovery.c ****   * @retval HAL status
 576:Drivers/BSP/STM32F429I-Discovery/stm32f429i_discovery.c ****   */
 577:Drivers/BSP/STM32F429I-Discovery/stm32f429i_discovery.c **** static HAL_StatusTypeDef I2Cx_WriteBufferDMA(uint8_t Addr, uint16_t Reg,  uint8_t *pBuffer, uint16_
 578:Drivers/BSP/STM32F429I-Discovery/stm32f429i_discovery.c ****   {
 579:Drivers/BSP/STM32F429I-Discovery/stm32f429i_discovery.c ****   HAL_StatusTypeDef status = HAL_OK;
 580:Drivers/BSP/STM32F429I-Discovery/stm32f429i_discovery.c ****   
 581:Drivers/BSP/STM32F429I-Discovery/stm32f429i_discovery.c ****   status = HAL_I2C_Mem_Write_DMA(&I2cHandle, Addr, Reg, I2C_MEMADD_SIZE_16BIT, pBuffer, Length);
 582:Drivers/BSP/STM32F429I-Discovery/stm32f429i_discovery.c **** 
 583:Drivers/BSP/STM32F429I-Discovery/stm32f429i_discovery.c ****   /* Check the communication status */
 584:Drivers/BSP/STM32F429I-Discovery/stm32f429i_discovery.c ****   if(status != HAL_OK)
 585:Drivers/BSP/STM32F429I-Discovery/stm32f429i_discovery.c ****   {
 586:Drivers/BSP/STM32F429I-Discovery/stm32f429i_discovery.c ****     /* Re-Initialize the BUS */
 587:Drivers/BSP/STM32F429I-Discovery/stm32f429i_discovery.c ****     I2Cx_Error();
 588:Drivers/BSP/STM32F429I-Discovery/stm32f429i_discovery.c ****   }
 589:Drivers/BSP/STM32F429I-Discovery/stm32f429i_discovery.c **** 
 590:Drivers/BSP/STM32F429I-Discovery/stm32f429i_discovery.c ****   return status;
 591:Drivers/BSP/STM32F429I-Discovery/stm32f429i_discovery.c **** }
 592:Drivers/BSP/STM32F429I-Discovery/stm32f429i_discovery.c **** 
 593:Drivers/BSP/STM32F429I-Discovery/stm32f429i_discovery.c **** /**
 594:Drivers/BSP/STM32F429I-Discovery/stm32f429i_discovery.c ****   * @brief  Reads multiple data on the BUS in using DMA mode.
 595:Drivers/BSP/STM32F429I-Discovery/stm32f429i_discovery.c ****   * @param  Addr: I2C Address
 596:Drivers/BSP/STM32F429I-Discovery/stm32f429i_discovery.c ****   * @param  Reg: Reg Address 
 597:Drivers/BSP/STM32F429I-Discovery/stm32f429i_discovery.c ****   * @param  pBuffer: pointer to read data buffer
 598:Drivers/BSP/STM32F429I-Discovery/stm32f429i_discovery.c ****   * @param  Length: length of the data
 599:Drivers/BSP/STM32F429I-Discovery/stm32f429i_discovery.c ****   * @retval HAL status
 600:Drivers/BSP/STM32F429I-Discovery/stm32f429i_discovery.c ****   */
 601:Drivers/BSP/STM32F429I-Discovery/stm32f429i_discovery.c **** static HAL_StatusTypeDef I2Cx_ReadBufferDMA(uint8_t Addr, uint16_t Reg, uint8_t *pBuffer, uint16_t 
 602:Drivers/BSP/STM32F429I-Discovery/stm32f429i_discovery.c **** {
 603:Drivers/BSP/STM32F429I-Discovery/stm32f429i_discovery.c ****   HAL_StatusTypeDef status = HAL_OK;
 604:Drivers/BSP/STM32F429I-Discovery/stm32f429i_discovery.c **** 
 605:Drivers/BSP/STM32F429I-Discovery/stm32f429i_discovery.c ****   status = HAL_I2C_Mem_Read_DMA(&I2cHandle, Addr, Reg, I2C_MEMADD_SIZE_16BIT, pBuffer, Length);
 606:Drivers/BSP/STM32F429I-Discovery/stm32f429i_discovery.c ****   
 607:Drivers/BSP/STM32F429I-Discovery/stm32f429i_discovery.c ****   /* Check the communication status */
 608:Drivers/BSP/STM32F429I-Discovery/stm32f429i_discovery.c ****   if(status != HAL_OK)
 609:Drivers/BSP/STM32F429I-Discovery/stm32f429i_discovery.c ****   {
 610:Drivers/BSP/STM32F429I-Discovery/stm32f429i_discovery.c ****     /* Re-Initialize the BUS */
 611:Drivers/BSP/STM32F429I-Discovery/stm32f429i_discovery.c ****     I2Cx_Error();
 612:Drivers/BSP/STM32F429I-Discovery/stm32f429i_discovery.c ****   }
 613:Drivers/BSP/STM32F429I-Discovery/stm32f429i_discovery.c ****   
 614:Drivers/BSP/STM32F429I-Discovery/stm32f429i_discovery.c ****   return status;
 615:Drivers/BSP/STM32F429I-Discovery/stm32f429i_discovery.c **** }
 616:Drivers/BSP/STM32F429I-Discovery/stm32f429i_discovery.c **** 
 617:Drivers/BSP/STM32F429I-Discovery/stm32f429i_discovery.c **** /**
 618:Drivers/BSP/STM32F429I-Discovery/stm32f429i_discovery.c **** * @brief  Checks if target device is ready for communication. 
 619:Drivers/BSP/STM32F429I-Discovery/stm32f429i_discovery.c **** * @note   This function is used with Memory devices
 620:Drivers/BSP/STM32F429I-Discovery/stm32f429i_discovery.c **** * @param  DevAddress: Target device address
 621:Drivers/BSP/STM32F429I-Discovery/stm32f429i_discovery.c **** * @param  Trials: Number of trials
 622:Drivers/BSP/STM32F429I-Discovery/stm32f429i_discovery.c **** * @retval HAL status
 623:Drivers/BSP/STM32F429I-Discovery/stm32f429i_discovery.c **** */
ARM GAS  /tmp/ccoTsclT.s 			page 31


 624:Drivers/BSP/STM32F429I-Discovery/stm32f429i_discovery.c **** static HAL_StatusTypeDef I2Cx_IsDeviceReady(uint16_t DevAddress, uint32_t Trials)
 625:Drivers/BSP/STM32F429I-Discovery/stm32f429i_discovery.c **** { 
 626:Drivers/BSP/STM32F429I-Discovery/stm32f429i_discovery.c ****   return (HAL_I2C_IsDeviceReady(&I2cHandle, DevAddress, Trials, I2cxTimeout));
 627:Drivers/BSP/STM32F429I-Discovery/stm32f429i_discovery.c **** }
 628:Drivers/BSP/STM32F429I-Discovery/stm32f429i_discovery.c **** #endif /* EE_M24LR64 */
 629:Drivers/BSP/STM32F429I-Discovery/stm32f429i_discovery.c **** 
 630:Drivers/BSP/STM32F429I-Discovery/stm32f429i_discovery.c **** /**
 631:Drivers/BSP/STM32F429I-Discovery/stm32f429i_discovery.c ****   * @brief  I2Cx error treatment function
 632:Drivers/BSP/STM32F429I-Discovery/stm32f429i_discovery.c ****   * @param  None
 633:Drivers/BSP/STM32F429I-Discovery/stm32f429i_discovery.c ****   * @retval None
 634:Drivers/BSP/STM32F429I-Discovery/stm32f429i_discovery.c ****   */
 635:Drivers/BSP/STM32F429I-Discovery/stm32f429i_discovery.c **** static void I2Cx_Error(void)
 636:Drivers/BSP/STM32F429I-Discovery/stm32f429i_discovery.c **** {
 1131              		.loc 1 636 0
 1132              		.cfi_startproc
 1133              		@ args = 0, pretend = 0, frame = 0
 1134              		@ frame_needed = 1, uses_anonymous_args = 0
 1135 0000 80B5     		push	{r7, lr}
 1136              	.LCFI40:
 1137              		.cfi_def_cfa_offset 8
 1138              		.cfi_offset 7, -8
 1139              		.cfi_offset 14, -4
 1140 0002 00AF     		add	r7, sp, #0
 1141              	.LCFI41:
 1142              		.cfi_def_cfa_register 7
 637:Drivers/BSP/STM32F429I-Discovery/stm32f429i_discovery.c ****   /* De-initialize the SPI communication BUS */
 638:Drivers/BSP/STM32F429I-Discovery/stm32f429i_discovery.c ****   HAL_I2C_DeInit(&I2cHandle);
 1143              		.loc 1 638 0
 1144 0004 0248     		ldr	r0, .L59
 1145 0006 FFF7FEFF 		bl	HAL_I2C_DeInit
 639:Drivers/BSP/STM32F429I-Discovery/stm32f429i_discovery.c ****   
 640:Drivers/BSP/STM32F429I-Discovery/stm32f429i_discovery.c ****   /* Re-Initialize the SPI communication BUS */
 641:Drivers/BSP/STM32F429I-Discovery/stm32f429i_discovery.c ****   I2Cx_Init();
 1146              		.loc 1 641 0
 1147 000a FFF7FEFF 		bl	I2Cx_Init
 642:Drivers/BSP/STM32F429I-Discovery/stm32f429i_discovery.c **** }
 1148              		.loc 1 642 0
 1149 000e 80BD     		pop	{r7, pc}
 1150              	.L60:
 1151              		.align	2
 1152              	.L59:
 1153 0010 00000000 		.word	I2cHandle
 1154              		.cfi_endproc
 1155              	.LFE139:
 1157              		.section	.text.SPIx_Init,"ax",%progbits
 1158              		.align	2
 1159              		.thumb
 1160              		.thumb_func
 1162              	SPIx_Init:
 1163              	.LFB140:
 643:Drivers/BSP/STM32F429I-Discovery/stm32f429i_discovery.c **** 
 644:Drivers/BSP/STM32F429I-Discovery/stm32f429i_discovery.c **** /******************************* SPI Routines *********************************/
 645:Drivers/BSP/STM32F429I-Discovery/stm32f429i_discovery.c **** 
 646:Drivers/BSP/STM32F429I-Discovery/stm32f429i_discovery.c **** /**
 647:Drivers/BSP/STM32F429I-Discovery/stm32f429i_discovery.c ****   * @brief  SPIx Bus initialization
 648:Drivers/BSP/STM32F429I-Discovery/stm32f429i_discovery.c ****   * @param  None
 649:Drivers/BSP/STM32F429I-Discovery/stm32f429i_discovery.c ****   * @retval None
ARM GAS  /tmp/ccoTsclT.s 			page 32


 650:Drivers/BSP/STM32F429I-Discovery/stm32f429i_discovery.c ****   */
 651:Drivers/BSP/STM32F429I-Discovery/stm32f429i_discovery.c **** static void SPIx_Init(void)
 652:Drivers/BSP/STM32F429I-Discovery/stm32f429i_discovery.c **** {
 1164              		.loc 1 652 0
 1165              		.cfi_startproc
 1166              		@ args = 0, pretend = 0, frame = 0
 1167              		@ frame_needed = 1, uses_anonymous_args = 0
 1168 0000 80B5     		push	{r7, lr}
 1169              	.LCFI42:
 1170              		.cfi_def_cfa_offset 8
 1171              		.cfi_offset 7, -8
 1172              		.cfi_offset 14, -4
 1173 0002 00AF     		add	r7, sp, #0
 1174              	.LCFI43:
 1175              		.cfi_def_cfa_register 7
 653:Drivers/BSP/STM32F429I-Discovery/stm32f429i_discovery.c ****   if(HAL_SPI_GetState(&SpiHandle) == HAL_SPI_STATE_RESET)
 1176              		.loc 1 653 0
 1177 0004 1948     		ldr	r0, .L63
 1178 0006 FFF7FEFF 		bl	HAL_SPI_GetState
 1179 000a 0346     		mov	r3, r0
 1180 000c 002B     		cmp	r3, #0
 1181 000e 2BD1     		bne	.L61
 654:Drivers/BSP/STM32F429I-Discovery/stm32f429i_discovery.c ****   {
 655:Drivers/BSP/STM32F429I-Discovery/stm32f429i_discovery.c ****     /* SPI configuration -----------------------------------------------------*/
 656:Drivers/BSP/STM32F429I-Discovery/stm32f429i_discovery.c ****     SpiHandle.Instance = DISCOVERY_SPIx;
 1182              		.loc 1 656 0
 1183 0010 164B     		ldr	r3, .L63
 1184 0012 174A     		ldr	r2, .L63+4
 1185 0014 1A60     		str	r2, [r3]
 657:Drivers/BSP/STM32F429I-Discovery/stm32f429i_discovery.c ****     /* SPI baudrate is set to 5.6 MHz (PCLK2/SPI_BaudRatePrescaler = 90/16 = 5.625 MHz) 
 658:Drivers/BSP/STM32F429I-Discovery/stm32f429i_discovery.c ****        to verify these constraints:
 659:Drivers/BSP/STM32F429I-Discovery/stm32f429i_discovery.c ****        - ILI9341 LCD SPI interface max baudrate is 10MHz for write and 6.66MHz for read
 660:Drivers/BSP/STM32F429I-Discovery/stm32f429i_discovery.c ****        - l3gd20 SPI interface max baudrate is 10MHz for write/read
 661:Drivers/BSP/STM32F429I-Discovery/stm32f429i_discovery.c ****        - PCLK2 frequency is set to 90 MHz 
 662:Drivers/BSP/STM32F429I-Discovery/stm32f429i_discovery.c ****     */  
 663:Drivers/BSP/STM32F429I-Discovery/stm32f429i_discovery.c ****     SpiHandle.Init.BaudRatePrescaler = SPI_BAUDRATEPRESCALER_16;
 1186              		.loc 1 663 0
 1187 0016 154B     		ldr	r3, .L63
 1188 0018 1822     		movs	r2, #24
 1189 001a DA61     		str	r2, [r3, #28]
 664:Drivers/BSP/STM32F429I-Discovery/stm32f429i_discovery.c **** 
 665:Drivers/BSP/STM32F429I-Discovery/stm32f429i_discovery.c ****     /* On STM32F429I-Discovery, LCD ID cannot be read then keep a common configuration */
 666:Drivers/BSP/STM32F429I-Discovery/stm32f429i_discovery.c ****     /* for LCD and GYRO (SPI_DIRECTION_2LINES) */
 667:Drivers/BSP/STM32F429I-Discovery/stm32f429i_discovery.c ****     /* Note: To read a register a LCD, SPI_DIRECTION_1LINE should be set */
 668:Drivers/BSP/STM32F429I-Discovery/stm32f429i_discovery.c ****     SpiHandle.Init.Direction      = SPI_DIRECTION_2LINES;
 1190              		.loc 1 668 0
 1191 001c 134B     		ldr	r3, .L63
 1192 001e 0022     		movs	r2, #0
 1193 0020 9A60     		str	r2, [r3, #8]
 669:Drivers/BSP/STM32F429I-Discovery/stm32f429i_discovery.c ****     SpiHandle.Init.CLKPhase       = SPI_PHASE_1EDGE;
 1194              		.loc 1 669 0
 1195 0022 124B     		ldr	r3, .L63
 1196 0024 0022     		movs	r2, #0
 1197 0026 5A61     		str	r2, [r3, #20]
 670:Drivers/BSP/STM32F429I-Discovery/stm32f429i_discovery.c ****     SpiHandle.Init.CLKPolarity    = SPI_POLARITY_LOW;
 1198              		.loc 1 670 0
 1199 0028 104B     		ldr	r3, .L63
ARM GAS  /tmp/ccoTsclT.s 			page 33


 1200 002a 0022     		movs	r2, #0
 1201 002c 1A61     		str	r2, [r3, #16]
 671:Drivers/BSP/STM32F429I-Discovery/stm32f429i_discovery.c ****     SpiHandle.Init.CRCCalculation = SPI_CRCCALCULATION_DISABLED;
 1202              		.loc 1 671 0
 1203 002e 0F4B     		ldr	r3, .L63
 1204 0030 0022     		movs	r2, #0
 1205 0032 9A62     		str	r2, [r3, #40]
 672:Drivers/BSP/STM32F429I-Discovery/stm32f429i_discovery.c ****     SpiHandle.Init.CRCPolynomial  = 7;
 1206              		.loc 1 672 0
 1207 0034 0D4B     		ldr	r3, .L63
 1208 0036 0722     		movs	r2, #7
 1209 0038 DA62     		str	r2, [r3, #44]
 673:Drivers/BSP/STM32F429I-Discovery/stm32f429i_discovery.c ****     SpiHandle.Init.DataSize       = SPI_DATASIZE_8BIT;
 1210              		.loc 1 673 0
 1211 003a 0C4B     		ldr	r3, .L63
 1212 003c 0022     		movs	r2, #0
 1213 003e DA60     		str	r2, [r3, #12]
 674:Drivers/BSP/STM32F429I-Discovery/stm32f429i_discovery.c ****     SpiHandle.Init.FirstBit       = SPI_FIRSTBIT_MSB;
 1214              		.loc 1 674 0
 1215 0040 0A4B     		ldr	r3, .L63
 1216 0042 0022     		movs	r2, #0
 1217 0044 1A62     		str	r2, [r3, #32]
 675:Drivers/BSP/STM32F429I-Discovery/stm32f429i_discovery.c ****     SpiHandle.Init.NSS            = SPI_NSS_SOFT;
 1218              		.loc 1 675 0
 1219 0046 094B     		ldr	r3, .L63
 1220 0048 4FF40072 		mov	r2, #512
 1221 004c 9A61     		str	r2, [r3, #24]
 676:Drivers/BSP/STM32F429I-Discovery/stm32f429i_discovery.c ****     SpiHandle.Init.TIMode         = SPI_TIMODE_DISABLED;
 1222              		.loc 1 676 0
 1223 004e 074B     		ldr	r3, .L63
 1224 0050 0022     		movs	r2, #0
 1225 0052 5A62     		str	r2, [r3, #36]
 677:Drivers/BSP/STM32F429I-Discovery/stm32f429i_discovery.c ****     SpiHandle.Init.Mode           = SPI_MODE_MASTER;
 1226              		.loc 1 677 0
 1227 0054 054B     		ldr	r3, .L63
 1228 0056 4FF48272 		mov	r2, #260
 1229 005a 5A60     		str	r2, [r3, #4]
 678:Drivers/BSP/STM32F429I-Discovery/stm32f429i_discovery.c ****   
 679:Drivers/BSP/STM32F429I-Discovery/stm32f429i_discovery.c ****     SPIx_MspInit(&SpiHandle);
 1230              		.loc 1 679 0
 1231 005c 0348     		ldr	r0, .L63
 1232 005e FFF7FEFF 		bl	SPIx_MspInit
 680:Drivers/BSP/STM32F429I-Discovery/stm32f429i_discovery.c ****     HAL_SPI_Init(&SpiHandle);
 1233              		.loc 1 680 0
 1234 0062 0248     		ldr	r0, .L63
 1235 0064 FFF7FEFF 		bl	HAL_SPI_Init
 1236              	.L61:
 681:Drivers/BSP/STM32F429I-Discovery/stm32f429i_discovery.c ****   } 
 682:Drivers/BSP/STM32F429I-Discovery/stm32f429i_discovery.c **** }
 1237              		.loc 1 682 0
 1238 0068 80BD     		pop	{r7, pc}
 1239              	.L64:
 1240 006a 00BF     		.align	2
 1241              	.L63:
 1242 006c 00000000 		.word	SpiHandle
 1243 0070 00500140 		.word	1073827840
 1244              		.cfi_endproc
ARM GAS  /tmp/ccoTsclT.s 			page 34


 1245              	.LFE140:
 1247              		.section	.text.SPIx_Read,"ax",%progbits
 1248              		.align	2
 1249              		.thumb
 1250              		.thumb_func
 1252              	SPIx_Read:
 1253              	.LFB141:
 683:Drivers/BSP/STM32F429I-Discovery/stm32f429i_discovery.c **** 
 684:Drivers/BSP/STM32F429I-Discovery/stm32f429i_discovery.c **** /**
 685:Drivers/BSP/STM32F429I-Discovery/stm32f429i_discovery.c ****   * @brief  Reads 4 bytes from device.
 686:Drivers/BSP/STM32F429I-Discovery/stm32f429i_discovery.c ****   * @param  ReadSize: Number of bytes to read (max 4 bytes)
 687:Drivers/BSP/STM32F429I-Discovery/stm32f429i_discovery.c ****   * @retval Value read on the SPI
 688:Drivers/BSP/STM32F429I-Discovery/stm32f429i_discovery.c ****   */
 689:Drivers/BSP/STM32F429I-Discovery/stm32f429i_discovery.c **** static uint32_t SPIx_Read(uint8_t ReadSize)
 690:Drivers/BSP/STM32F429I-Discovery/stm32f429i_discovery.c **** {
 1254              		.loc 1 690 0
 1255              		.cfi_startproc
 1256              		@ args = 0, pretend = 0, frame = 16
 1257              		@ frame_needed = 1, uses_anonymous_args = 0
 1258 0000 80B5     		push	{r7, lr}
 1259              	.LCFI44:
 1260              		.cfi_def_cfa_offset 8
 1261              		.cfi_offset 7, -8
 1262              		.cfi_offset 14, -4
 1263 0002 84B0     		sub	sp, sp, #16
 1264              	.LCFI45:
 1265              		.cfi_def_cfa_offset 24
 1266 0004 00AF     		add	r7, sp, #0
 1267              	.LCFI46:
 1268              		.cfi_def_cfa_register 7
 1269 0006 0346     		mov	r3, r0
 1270 0008 FB71     		strb	r3, [r7, #7]
 691:Drivers/BSP/STM32F429I-Discovery/stm32f429i_discovery.c ****   HAL_StatusTypeDef status = HAL_OK;
 1271              		.loc 1 691 0
 1272 000a 0023     		movs	r3, #0
 1273 000c FB73     		strb	r3, [r7, #15]
 692:Drivers/BSP/STM32F429I-Discovery/stm32f429i_discovery.c ****   uint32_t readvalue;
 693:Drivers/BSP/STM32F429I-Discovery/stm32f429i_discovery.c ****   
 694:Drivers/BSP/STM32F429I-Discovery/stm32f429i_discovery.c ****   status = HAL_SPI_Receive(&SpiHandle, (uint8_t*) &readvalue, ReadSize, SpixTimeout);
 1274              		.loc 1 694 0
 1275 000e FB79     		ldrb	r3, [r7, #7]	@ zero_extendqisi2
 1276 0010 9AB2     		uxth	r2, r3
 1277 0012 094B     		ldr	r3, .L68
 1278 0014 1B68     		ldr	r3, [r3]
 1279 0016 07F10801 		add	r1, r7, #8
 1280 001a 0848     		ldr	r0, .L68+4
 1281 001c FFF7FEFF 		bl	HAL_SPI_Receive
 1282 0020 0346     		mov	r3, r0
 1283 0022 FB73     		strb	r3, [r7, #15]
 695:Drivers/BSP/STM32F429I-Discovery/stm32f429i_discovery.c ****   
 696:Drivers/BSP/STM32F429I-Discovery/stm32f429i_discovery.c ****   /* Check the communication status */
 697:Drivers/BSP/STM32F429I-Discovery/stm32f429i_discovery.c ****   if(status != HAL_OK)
 1284              		.loc 1 697 0
 1285 0024 FB7B     		ldrb	r3, [r7, #15]	@ zero_extendqisi2
 1286 0026 002B     		cmp	r3, #0
 1287 0028 01D0     		beq	.L66
 698:Drivers/BSP/STM32F429I-Discovery/stm32f429i_discovery.c ****   {
ARM GAS  /tmp/ccoTsclT.s 			page 35


 699:Drivers/BSP/STM32F429I-Discovery/stm32f429i_discovery.c ****     /* Re-Initialize the BUS */
 700:Drivers/BSP/STM32F429I-Discovery/stm32f429i_discovery.c ****     SPIx_Error();
 1288              		.loc 1 700 0
 1289 002a FFF7FEFF 		bl	SPIx_Error
 1290              	.L66:
 701:Drivers/BSP/STM32F429I-Discovery/stm32f429i_discovery.c ****   }
 702:Drivers/BSP/STM32F429I-Discovery/stm32f429i_discovery.c ****   
 703:Drivers/BSP/STM32F429I-Discovery/stm32f429i_discovery.c ****   return readvalue;
 1291              		.loc 1 703 0
 1292 002e BB68     		ldr	r3, [r7, #8]
 704:Drivers/BSP/STM32F429I-Discovery/stm32f429i_discovery.c **** }
 1293              		.loc 1 704 0
 1294 0030 1846     		mov	r0, r3
 1295 0032 1037     		adds	r7, r7, #16
 1296 0034 BD46     		mov	sp, r7
 1297              		@ sp needed
 1298 0036 80BD     		pop	{r7, pc}
 1299              	.L69:
 1300              		.align	2
 1301              	.L68:
 1302 0038 00000000 		.word	SpixTimeout
 1303 003c 00000000 		.word	SpiHandle
 1304              		.cfi_endproc
 1305              	.LFE141:
 1307              		.section	.text.SPIx_Write,"ax",%progbits
 1308              		.align	2
 1309              		.thumb
 1310              		.thumb_func
 1312              	SPIx_Write:
 1313              	.LFB142:
 705:Drivers/BSP/STM32F429I-Discovery/stm32f429i_discovery.c **** 
 706:Drivers/BSP/STM32F429I-Discovery/stm32f429i_discovery.c **** /**
 707:Drivers/BSP/STM32F429I-Discovery/stm32f429i_discovery.c ****   * @brief  Writes a byte to device.
 708:Drivers/BSP/STM32F429I-Discovery/stm32f429i_discovery.c ****   * @param  Value: value to be written
 709:Drivers/BSP/STM32F429I-Discovery/stm32f429i_discovery.c ****   * @retval None
 710:Drivers/BSP/STM32F429I-Discovery/stm32f429i_discovery.c ****   */
 711:Drivers/BSP/STM32F429I-Discovery/stm32f429i_discovery.c **** static void SPIx_Write(uint16_t Value)
 712:Drivers/BSP/STM32F429I-Discovery/stm32f429i_discovery.c **** {
 1314              		.loc 1 712 0
 1315              		.cfi_startproc
 1316              		@ args = 0, pretend = 0, frame = 16
 1317              		@ frame_needed = 1, uses_anonymous_args = 0
 1318 0000 80B5     		push	{r7, lr}
 1319              	.LCFI47:
 1320              		.cfi_def_cfa_offset 8
 1321              		.cfi_offset 7, -8
 1322              		.cfi_offset 14, -4
 1323 0002 84B0     		sub	sp, sp, #16
 1324              	.LCFI48:
 1325              		.cfi_def_cfa_offset 24
 1326 0004 00AF     		add	r7, sp, #0
 1327              	.LCFI49:
 1328              		.cfi_def_cfa_register 7
 1329 0006 0346     		mov	r3, r0
 1330 0008 FB80     		strh	r3, [r7, #6]	@ movhi
 713:Drivers/BSP/STM32F429I-Discovery/stm32f429i_discovery.c ****   HAL_StatusTypeDef status = HAL_OK;
 1331              		.loc 1 713 0
ARM GAS  /tmp/ccoTsclT.s 			page 36


 1332 000a 0023     		movs	r3, #0
 1333 000c FB73     		strb	r3, [r7, #15]
 714:Drivers/BSP/STM32F429I-Discovery/stm32f429i_discovery.c ****   
 715:Drivers/BSP/STM32F429I-Discovery/stm32f429i_discovery.c ****   status = HAL_SPI_Transmit(&SpiHandle, (uint8_t*) &Value, 1, SpixTimeout);
 1334              		.loc 1 715 0
 1335 000e 094B     		ldr	r3, .L72
 1336 0010 1B68     		ldr	r3, [r3]
 1337 0012 BA1D     		adds	r2, r7, #6
 1338 0014 0848     		ldr	r0, .L72+4
 1339 0016 1146     		mov	r1, r2
 1340 0018 0122     		movs	r2, #1
 1341 001a FFF7FEFF 		bl	HAL_SPI_Transmit
 1342 001e 0346     		mov	r3, r0
 1343 0020 FB73     		strb	r3, [r7, #15]
 716:Drivers/BSP/STM32F429I-Discovery/stm32f429i_discovery.c ****   
 717:Drivers/BSP/STM32F429I-Discovery/stm32f429i_discovery.c ****   /* Check the communication status */
 718:Drivers/BSP/STM32F429I-Discovery/stm32f429i_discovery.c ****   if(status != HAL_OK)
 1344              		.loc 1 718 0
 1345 0022 FB7B     		ldrb	r3, [r7, #15]	@ zero_extendqisi2
 1346 0024 002B     		cmp	r3, #0
 1347 0026 01D0     		beq	.L70
 719:Drivers/BSP/STM32F429I-Discovery/stm32f429i_discovery.c ****   {
 720:Drivers/BSP/STM32F429I-Discovery/stm32f429i_discovery.c ****     /* Re-Initialize the BUS */
 721:Drivers/BSP/STM32F429I-Discovery/stm32f429i_discovery.c ****     SPIx_Error();
 1348              		.loc 1 721 0
 1349 0028 FFF7FEFF 		bl	SPIx_Error
 1350              	.L70:
 722:Drivers/BSP/STM32F429I-Discovery/stm32f429i_discovery.c ****   }
 723:Drivers/BSP/STM32F429I-Discovery/stm32f429i_discovery.c **** }
 1351              		.loc 1 723 0
 1352 002c 1037     		adds	r7, r7, #16
 1353 002e BD46     		mov	sp, r7
 1354              		@ sp needed
 1355 0030 80BD     		pop	{r7, pc}
 1356              	.L73:
 1357 0032 00BF     		.align	2
 1358              	.L72:
 1359 0034 00000000 		.word	SpixTimeout
 1360 0038 00000000 		.word	SpiHandle
 1361              		.cfi_endproc
 1362              	.LFE142:
 1364              		.section	.text.SPIx_WriteRead,"ax",%progbits
 1365              		.align	2
 1366              		.thumb
 1367              		.thumb_func
 1369              	SPIx_WriteRead:
 1370              	.LFB143:
 724:Drivers/BSP/STM32F429I-Discovery/stm32f429i_discovery.c **** 
 725:Drivers/BSP/STM32F429I-Discovery/stm32f429i_discovery.c **** /**
 726:Drivers/BSP/STM32F429I-Discovery/stm32f429i_discovery.c ****   * @brief  Sends a Byte through the SPI interface and return the Byte received 
 727:Drivers/BSP/STM32F429I-Discovery/stm32f429i_discovery.c ****   *         from the SPI bus.
 728:Drivers/BSP/STM32F429I-Discovery/stm32f429i_discovery.c ****   * @param  Byte: Byte send.
 729:Drivers/BSP/STM32F429I-Discovery/stm32f429i_discovery.c ****   * @retval The received byte value
 730:Drivers/BSP/STM32F429I-Discovery/stm32f429i_discovery.c ****   */
 731:Drivers/BSP/STM32F429I-Discovery/stm32f429i_discovery.c **** static uint8_t SPIx_WriteRead(uint8_t Byte)
 732:Drivers/BSP/STM32F429I-Discovery/stm32f429i_discovery.c **** {
 1371              		.loc 1 732 0
ARM GAS  /tmp/ccoTsclT.s 			page 37


 1372              		.cfi_startproc
 1373              		@ args = 0, pretend = 0, frame = 16
 1374              		@ frame_needed = 1, uses_anonymous_args = 0
 1375 0000 80B5     		push	{r7, lr}
 1376              	.LCFI50:
 1377              		.cfi_def_cfa_offset 8
 1378              		.cfi_offset 7, -8
 1379              		.cfi_offset 14, -4
 1380 0002 86B0     		sub	sp, sp, #24
 1381              	.LCFI51:
 1382              		.cfi_def_cfa_offset 32
 1383 0004 02AF     		add	r7, sp, #8
 1384              	.LCFI52:
 1385              		.cfi_def_cfa 7, 24
 1386 0006 0346     		mov	r3, r0
 1387 0008 FB71     		strb	r3, [r7, #7]
 733:Drivers/BSP/STM32F429I-Discovery/stm32f429i_discovery.c ****   uint8_t receivedbyte = 0;
 1388              		.loc 1 733 0
 1389 000a 0023     		movs	r3, #0
 1390 000c FB73     		strb	r3, [r7, #15]
 734:Drivers/BSP/STM32F429I-Discovery/stm32f429i_discovery.c ****   
 735:Drivers/BSP/STM32F429I-Discovery/stm32f429i_discovery.c ****   /* Send a Byte through the SPI peripheral */
 736:Drivers/BSP/STM32F429I-Discovery/stm32f429i_discovery.c ****   /* Read byte from the SPI bus */
 737:Drivers/BSP/STM32F429I-Discovery/stm32f429i_discovery.c ****   if(HAL_SPI_TransmitReceive(&SpiHandle, (uint8_t*) &Byte, (uint8_t*) &receivedbyte, 1, SpixTimeout
 1391              		.loc 1 737 0
 1392 000e 0B4B     		ldr	r3, .L77
 1393 0010 1968     		ldr	r1, [r3]
 1394 0012 FA1D     		adds	r2, r7, #7
 1395 0014 07F10F03 		add	r3, r7, #15
 1396 0018 0091     		str	r1, [sp]
 1397 001a 0948     		ldr	r0, .L77+4
 1398 001c 1146     		mov	r1, r2
 1399 001e 1A46     		mov	r2, r3
 1400 0020 0123     		movs	r3, #1
 1401 0022 FFF7FEFF 		bl	HAL_SPI_TransmitReceive
 1402 0026 0346     		mov	r3, r0
 1403 0028 002B     		cmp	r3, #0
 1404 002a 01D0     		beq	.L75
 738:Drivers/BSP/STM32F429I-Discovery/stm32f429i_discovery.c ****   {
 739:Drivers/BSP/STM32F429I-Discovery/stm32f429i_discovery.c ****     SPIx_Error();
 1405              		.loc 1 739 0
 1406 002c FFF7FEFF 		bl	SPIx_Error
 1407              	.L75:
 740:Drivers/BSP/STM32F429I-Discovery/stm32f429i_discovery.c ****   }
 741:Drivers/BSP/STM32F429I-Discovery/stm32f429i_discovery.c ****   
 742:Drivers/BSP/STM32F429I-Discovery/stm32f429i_discovery.c ****   return receivedbyte;
 1408              		.loc 1 742 0
 1409 0030 FB7B     		ldrb	r3, [r7, #15]	@ zero_extendqisi2
 743:Drivers/BSP/STM32F429I-Discovery/stm32f429i_discovery.c **** }
 1410              		.loc 1 743 0
 1411 0032 1846     		mov	r0, r3
 1412 0034 1037     		adds	r7, r7, #16
 1413 0036 BD46     		mov	sp, r7
 1414              		@ sp needed
 1415 0038 80BD     		pop	{r7, pc}
 1416              	.L78:
 1417 003a 00BF     		.align	2
ARM GAS  /tmp/ccoTsclT.s 			page 38


 1418              	.L77:
 1419 003c 00000000 		.word	SpixTimeout
 1420 0040 00000000 		.word	SpiHandle
 1421              		.cfi_endproc
 1422              	.LFE143:
 1424              		.section	.text.SPIx_Error,"ax",%progbits
 1425              		.align	2
 1426              		.thumb
 1427              		.thumb_func
 1429              	SPIx_Error:
 1430              	.LFB144:
 744:Drivers/BSP/STM32F429I-Discovery/stm32f429i_discovery.c **** 
 745:Drivers/BSP/STM32F429I-Discovery/stm32f429i_discovery.c **** /**
 746:Drivers/BSP/STM32F429I-Discovery/stm32f429i_discovery.c ****   * @brief  SPIx error treatment function.
 747:Drivers/BSP/STM32F429I-Discovery/stm32f429i_discovery.c ****   * @param  None
 748:Drivers/BSP/STM32F429I-Discovery/stm32f429i_discovery.c ****   * @retval None
 749:Drivers/BSP/STM32F429I-Discovery/stm32f429i_discovery.c ****   */
 750:Drivers/BSP/STM32F429I-Discovery/stm32f429i_discovery.c **** static void SPIx_Error(void)
 751:Drivers/BSP/STM32F429I-Discovery/stm32f429i_discovery.c **** {
 1431              		.loc 1 751 0
 1432              		.cfi_startproc
 1433              		@ args = 0, pretend = 0, frame = 0
 1434              		@ frame_needed = 1, uses_anonymous_args = 0
 1435 0000 80B5     		push	{r7, lr}
 1436              	.LCFI53:
 1437              		.cfi_def_cfa_offset 8
 1438              		.cfi_offset 7, -8
 1439              		.cfi_offset 14, -4
 1440 0002 00AF     		add	r7, sp, #0
 1441              	.LCFI54:
 1442              		.cfi_def_cfa_register 7
 752:Drivers/BSP/STM32F429I-Discovery/stm32f429i_discovery.c ****   /* De-initialize the SPI communication BUS */
 753:Drivers/BSP/STM32F429I-Discovery/stm32f429i_discovery.c ****   HAL_SPI_DeInit(&SpiHandle);
 1443              		.loc 1 753 0
 1444 0004 0248     		ldr	r0, .L80
 1445 0006 FFF7FEFF 		bl	HAL_SPI_DeInit
 754:Drivers/BSP/STM32F429I-Discovery/stm32f429i_discovery.c ****   
 755:Drivers/BSP/STM32F429I-Discovery/stm32f429i_discovery.c ****   /* Re- Initialize the SPI communication BUS */
 756:Drivers/BSP/STM32F429I-Discovery/stm32f429i_discovery.c ****   SPIx_Init();
 1446              		.loc 1 756 0
 1447 000a FFF7FEFF 		bl	SPIx_Init
 757:Drivers/BSP/STM32F429I-Discovery/stm32f429i_discovery.c **** }
 1448              		.loc 1 757 0
 1449 000e 80BD     		pop	{r7, pc}
 1450              	.L81:
 1451              		.align	2
 1452              	.L80:
 1453 0010 00000000 		.word	SpiHandle
 1454              		.cfi_endproc
 1455              	.LFE144:
 1457              		.section	.text.SPIx_MspInit,"ax",%progbits
 1458              		.align	2
 1459              		.thumb
 1460              		.thumb_func
 1462              	SPIx_MspInit:
 1463              	.LFB145:
 758:Drivers/BSP/STM32F429I-Discovery/stm32f429i_discovery.c **** 
ARM GAS  /tmp/ccoTsclT.s 			page 39


 759:Drivers/BSP/STM32F429I-Discovery/stm32f429i_discovery.c **** /**
 760:Drivers/BSP/STM32F429I-Discovery/stm32f429i_discovery.c ****   * @brief  SPI MSP Init.
 761:Drivers/BSP/STM32F429I-Discovery/stm32f429i_discovery.c ****   * @param  hspi: SPI handle
 762:Drivers/BSP/STM32F429I-Discovery/stm32f429i_discovery.c ****   * @retval None
 763:Drivers/BSP/STM32F429I-Discovery/stm32f429i_discovery.c ****   */
 764:Drivers/BSP/STM32F429I-Discovery/stm32f429i_discovery.c **** static void SPIx_MspInit(SPI_HandleTypeDef *hspi)
 765:Drivers/BSP/STM32F429I-Discovery/stm32f429i_discovery.c **** {
 1464              		.loc 1 765 0
 1465              		.cfi_startproc
 1466              		@ args = 0, pretend = 0, frame = 40
 1467              		@ frame_needed = 1, uses_anonymous_args = 0
 1468 0000 80B5     		push	{r7, lr}
 1469              	.LCFI55:
 1470              		.cfi_def_cfa_offset 8
 1471              		.cfi_offset 7, -8
 1472              		.cfi_offset 14, -4
 1473 0002 8AB0     		sub	sp, sp, #40
 1474              	.LCFI56:
 1475              		.cfi_def_cfa_offset 48
 1476 0004 00AF     		add	r7, sp, #0
 1477              	.LCFI57:
 1478              		.cfi_def_cfa_register 7
 1479 0006 7860     		str	r0, [r7, #4]
 1480              	.LBB9:
 766:Drivers/BSP/STM32F429I-Discovery/stm32f429i_discovery.c ****   GPIO_InitTypeDef   GPIO_InitStructure;
 767:Drivers/BSP/STM32F429I-Discovery/stm32f429i_discovery.c **** 
 768:Drivers/BSP/STM32F429I-Discovery/stm32f429i_discovery.c ****   /* Enable SPIx clock */
 769:Drivers/BSP/STM32F429I-Discovery/stm32f429i_discovery.c ****   DISCOVERY_SPIx_CLK_ENABLE();
 1481              		.loc 1 769 0
 1482 0008 154B     		ldr	r3, .L83
 1483 000a 154A     		ldr	r2, .L83
 1484 000c 526C     		ldr	r2, [r2, #68]
 1485 000e 42F48012 		orr	r2, r2, #1048576
 1486 0012 5A64     		str	r2, [r3, #68]
 1487 0014 124B     		ldr	r3, .L83
 1488 0016 5B6C     		ldr	r3, [r3, #68]
 1489 0018 03F48013 		and	r3, r3, #1048576
 1490 001c 3B61     		str	r3, [r7, #16]
 1491 001e 3B69     		ldr	r3, [r7, #16]
 1492              	.LBE9:
 1493              	.LBB10:
 770:Drivers/BSP/STM32F429I-Discovery/stm32f429i_discovery.c **** 
 771:Drivers/BSP/STM32F429I-Discovery/stm32f429i_discovery.c ****   /* Enable DISCOVERY_SPI GPIO clock */
 772:Drivers/BSP/STM32F429I-Discovery/stm32f429i_discovery.c ****   DISCOVERY_SPIx_GPIO_CLK_ENABLE();
 1494              		.loc 1 772 0
 1495 0020 0F4B     		ldr	r3, .L83
 1496 0022 0F4A     		ldr	r2, .L83
 1497 0024 126B     		ldr	r2, [r2, #48]
 1498 0026 42F02002 		orr	r2, r2, #32
 1499 002a 1A63     		str	r2, [r3, #48]
 1500 002c 0C4B     		ldr	r3, .L83
 1501 002e 1B6B     		ldr	r3, [r3, #48]
 1502 0030 03F02003 		and	r3, r3, #32
 1503 0034 FB60     		str	r3, [r7, #12]
 1504 0036 FB68     		ldr	r3, [r7, #12]
 1505              	.LBE10:
 773:Drivers/BSP/STM32F429I-Discovery/stm32f429i_discovery.c **** 
ARM GAS  /tmp/ccoTsclT.s 			page 40


 774:Drivers/BSP/STM32F429I-Discovery/stm32f429i_discovery.c ****   /* configure SPI SCK, MOSI and MISO */    
 775:Drivers/BSP/STM32F429I-Discovery/stm32f429i_discovery.c ****   GPIO_InitStructure.Pin    = (DISCOVERY_SPIx_SCK_PIN | DISCOVERY_SPIx_MOSI_PIN | DISCOVERY_SPIx_MI
 1506              		.loc 1 775 0
 1507 0038 4FF46073 		mov	r3, #896
 1508 003c 7B61     		str	r3, [r7, #20]
 776:Drivers/BSP/STM32F429I-Discovery/stm32f429i_discovery.c ****   GPIO_InitStructure.Mode   = GPIO_MODE_AF_PP;
 1509              		.loc 1 776 0
 1510 003e 0223     		movs	r3, #2
 1511 0040 BB61     		str	r3, [r7, #24]
 777:Drivers/BSP/STM32F429I-Discovery/stm32f429i_discovery.c ****   GPIO_InitStructure.Pull   = GPIO_PULLDOWN;
 1512              		.loc 1 777 0
 1513 0042 0223     		movs	r3, #2
 1514 0044 FB61     		str	r3, [r7, #28]
 778:Drivers/BSP/STM32F429I-Discovery/stm32f429i_discovery.c ****   GPIO_InitStructure.Speed  = GPIO_SPEED_MEDIUM;
 1515              		.loc 1 778 0
 1516 0046 0123     		movs	r3, #1
 1517 0048 3B62     		str	r3, [r7, #32]
 779:Drivers/BSP/STM32F429I-Discovery/stm32f429i_discovery.c ****   GPIO_InitStructure.Alternate = DISCOVERY_SPIx_AF;
 1518              		.loc 1 779 0
 1519 004a 0523     		movs	r3, #5
 1520 004c 7B62     		str	r3, [r7, #36]
 780:Drivers/BSP/STM32F429I-Discovery/stm32f429i_discovery.c ****   HAL_GPIO_Init(DISCOVERY_SPIx_GPIO_PORT, &GPIO_InitStructure);      
 1521              		.loc 1 780 0
 1522 004e 07F11403 		add	r3, r7, #20
 1523 0052 0448     		ldr	r0, .L83+4
 1524 0054 1946     		mov	r1, r3
 1525 0056 FFF7FEFF 		bl	HAL_GPIO_Init
 781:Drivers/BSP/STM32F429I-Discovery/stm32f429i_discovery.c **** }
 1526              		.loc 1 781 0
 1527 005a 2837     		adds	r7, r7, #40
 1528 005c BD46     		mov	sp, r7
 1529              		@ sp needed
 1530 005e 80BD     		pop	{r7, pc}
 1531              	.L84:
 1532              		.align	2
 1533              	.L83:
 1534 0060 00380240 		.word	1073887232
 1535 0064 00140240 		.word	1073878016
 1536              		.cfi_endproc
 1537              	.LFE145:
 1539              		.section	.text.LCD_IO_Init,"ax",%progbits
 1540              		.align	2
 1541              		.global	LCD_IO_Init
 1542              		.thumb
 1543              		.thumb_func
 1545              	LCD_IO_Init:
 1546              	.LFB146:
 782:Drivers/BSP/STM32F429I-Discovery/stm32f429i_discovery.c **** 
 783:Drivers/BSP/STM32F429I-Discovery/stm32f429i_discovery.c **** /********************************* LINK LCD ***********************************/
 784:Drivers/BSP/STM32F429I-Discovery/stm32f429i_discovery.c **** 
 785:Drivers/BSP/STM32F429I-Discovery/stm32f429i_discovery.c **** /**
 786:Drivers/BSP/STM32F429I-Discovery/stm32f429i_discovery.c ****   * @brief  Configures the LCD_SPI interface.
 787:Drivers/BSP/STM32F429I-Discovery/stm32f429i_discovery.c ****   * @param  None
 788:Drivers/BSP/STM32F429I-Discovery/stm32f429i_discovery.c ****   * @retval None
 789:Drivers/BSP/STM32F429I-Discovery/stm32f429i_discovery.c ****   */
 790:Drivers/BSP/STM32F429I-Discovery/stm32f429i_discovery.c **** void LCD_IO_Init(void)
 791:Drivers/BSP/STM32F429I-Discovery/stm32f429i_discovery.c **** {
ARM GAS  /tmp/ccoTsclT.s 			page 41


 1547              		.loc 1 791 0
 1548              		.cfi_startproc
 1549              		@ args = 0, pretend = 0, frame = 32
 1550              		@ frame_needed = 1, uses_anonymous_args = 0
 1551 0000 80B5     		push	{r7, lr}
 1552              	.LCFI58:
 1553              		.cfi_def_cfa_offset 8
 1554              		.cfi_offset 7, -8
 1555              		.cfi_offset 14, -4
 1556 0002 88B0     		sub	sp, sp, #32
 1557              	.LCFI59:
 1558              		.cfi_def_cfa_offset 40
 1559 0004 00AF     		add	r7, sp, #0
 1560              	.LCFI60:
 1561              		.cfi_def_cfa_register 7
 792:Drivers/BSP/STM32F429I-Discovery/stm32f429i_discovery.c ****   GPIO_InitTypeDef GPIO_InitStructure;
 793:Drivers/BSP/STM32F429I-Discovery/stm32f429i_discovery.c ****   
 794:Drivers/BSP/STM32F429I-Discovery/stm32f429i_discovery.c ****   if(Is_LCD_IO_Initialized == 0)
 1562              		.loc 1 794 0
 1563 0006 334B     		ldr	r3, .L87
 1564 0008 1B78     		ldrb	r3, [r3]	@ zero_extendqisi2
 1565 000a 002B     		cmp	r3, #0
 1566 000c 5ED1     		bne	.L85
 795:Drivers/BSP/STM32F429I-Discovery/stm32f429i_discovery.c ****   {
 796:Drivers/BSP/STM32F429I-Discovery/stm32f429i_discovery.c ****     Is_LCD_IO_Initialized = 1; 
 1567              		.loc 1 796 0
 1568 000e 314B     		ldr	r3, .L87
 1569 0010 0122     		movs	r2, #1
 1570 0012 1A70     		strb	r2, [r3]
 1571              	.LBB11:
 797:Drivers/BSP/STM32F429I-Discovery/stm32f429i_discovery.c ****     
 798:Drivers/BSP/STM32F429I-Discovery/stm32f429i_discovery.c ****     /* Configure NCS in Output Push-Pull mode */
 799:Drivers/BSP/STM32F429I-Discovery/stm32f429i_discovery.c ****     LCD_WRX_GPIO_CLK_ENABLE();
 1572              		.loc 1 799 0
 1573 0014 304B     		ldr	r3, .L87+4
 1574 0016 304A     		ldr	r2, .L87+4
 1575 0018 126B     		ldr	r2, [r2, #48]
 1576 001a 42F00802 		orr	r2, r2, #8
 1577 001e 1A63     		str	r2, [r3, #48]
 1578 0020 2D4B     		ldr	r3, .L87+4
 1579 0022 1B6B     		ldr	r3, [r3, #48]
 1580 0024 03F00803 		and	r3, r3, #8
 1581 0028 BB60     		str	r3, [r7, #8]
 1582 002a BB68     		ldr	r3, [r7, #8]
 1583              	.LBE11:
 800:Drivers/BSP/STM32F429I-Discovery/stm32f429i_discovery.c ****     GPIO_InitStructure.Pin     = LCD_WRX_PIN;
 1584              		.loc 1 800 0
 1585 002c 4FF40053 		mov	r3, #8192
 1586 0030 FB60     		str	r3, [r7, #12]
 801:Drivers/BSP/STM32F429I-Discovery/stm32f429i_discovery.c ****     GPIO_InitStructure.Mode    = GPIO_MODE_OUTPUT_PP;
 1587              		.loc 1 801 0
 1588 0032 0123     		movs	r3, #1
 1589 0034 3B61     		str	r3, [r7, #16]
 802:Drivers/BSP/STM32F429I-Discovery/stm32f429i_discovery.c ****     GPIO_InitStructure.Pull    = GPIO_NOPULL;
 1590              		.loc 1 802 0
 1591 0036 0023     		movs	r3, #0
 1592 0038 7B61     		str	r3, [r7, #20]
ARM GAS  /tmp/ccoTsclT.s 			page 42


 803:Drivers/BSP/STM32F429I-Discovery/stm32f429i_discovery.c ****     GPIO_InitStructure.Speed   = GPIO_SPEED_FAST;
 1593              		.loc 1 803 0
 1594 003a 0223     		movs	r3, #2
 1595 003c BB61     		str	r3, [r7, #24]
 804:Drivers/BSP/STM32F429I-Discovery/stm32f429i_discovery.c ****     HAL_GPIO_Init(LCD_WRX_GPIO_PORT, &GPIO_InitStructure);
 1596              		.loc 1 804 0
 1597 003e 07F10C03 		add	r3, r7, #12
 1598 0042 2648     		ldr	r0, .L87+8
 1599 0044 1946     		mov	r1, r3
 1600 0046 FFF7FEFF 		bl	HAL_GPIO_Init
 1601              	.LBB12:
 805:Drivers/BSP/STM32F429I-Discovery/stm32f429i_discovery.c ****     
 806:Drivers/BSP/STM32F429I-Discovery/stm32f429i_discovery.c ****     LCD_RDX_GPIO_CLK_ENABLE();
 1602              		.loc 1 806 0
 1603 004a 234B     		ldr	r3, .L87+4
 1604 004c 224A     		ldr	r2, .L87+4
 1605 004e 126B     		ldr	r2, [r2, #48]
 1606 0050 42F00802 		orr	r2, r2, #8
 1607 0054 1A63     		str	r2, [r3, #48]
 1608 0056 204B     		ldr	r3, .L87+4
 1609 0058 1B6B     		ldr	r3, [r3, #48]
 1610 005a 03F00803 		and	r3, r3, #8
 1611 005e 7B60     		str	r3, [r7, #4]
 1612 0060 7B68     		ldr	r3, [r7, #4]
 1613              	.LBE12:
 807:Drivers/BSP/STM32F429I-Discovery/stm32f429i_discovery.c ****     GPIO_InitStructure.Pin     = LCD_RDX_PIN;
 1614              		.loc 1 807 0
 1615 0062 4FF48053 		mov	r3, #4096
 1616 0066 FB60     		str	r3, [r7, #12]
 808:Drivers/BSP/STM32F429I-Discovery/stm32f429i_discovery.c ****     GPIO_InitStructure.Mode    = GPIO_MODE_OUTPUT_PP;
 1617              		.loc 1 808 0
 1618 0068 0123     		movs	r3, #1
 1619 006a 3B61     		str	r3, [r7, #16]
 809:Drivers/BSP/STM32F429I-Discovery/stm32f429i_discovery.c ****     GPIO_InitStructure.Pull    = GPIO_NOPULL;
 1620              		.loc 1 809 0
 1621 006c 0023     		movs	r3, #0
 1622 006e 7B61     		str	r3, [r7, #20]
 810:Drivers/BSP/STM32F429I-Discovery/stm32f429i_discovery.c ****     GPIO_InitStructure.Speed   = GPIO_SPEED_FAST;
 1623              		.loc 1 810 0
 1624 0070 0223     		movs	r3, #2
 1625 0072 BB61     		str	r3, [r7, #24]
 811:Drivers/BSP/STM32F429I-Discovery/stm32f429i_discovery.c ****     HAL_GPIO_Init(LCD_RDX_GPIO_PORT, &GPIO_InitStructure);
 1626              		.loc 1 811 0
 1627 0074 07F10C03 		add	r3, r7, #12
 1628 0078 1848     		ldr	r0, .L87+8
 1629 007a 1946     		mov	r1, r3
 1630 007c FFF7FEFF 		bl	HAL_GPIO_Init
 1631              	.LBB13:
 812:Drivers/BSP/STM32F429I-Discovery/stm32f429i_discovery.c ****     
 813:Drivers/BSP/STM32F429I-Discovery/stm32f429i_discovery.c ****     /* Configure the LCD Control pins ----------------------------------------*/
 814:Drivers/BSP/STM32F429I-Discovery/stm32f429i_discovery.c ****     LCD_NCS_GPIO_CLK_ENABLE();
 1632              		.loc 1 814 0
 1633 0080 154B     		ldr	r3, .L87+4
 1634 0082 154A     		ldr	r2, .L87+4
 1635 0084 126B     		ldr	r2, [r2, #48]
 1636 0086 42F00402 		orr	r2, r2, #4
 1637 008a 1A63     		str	r2, [r3, #48]
ARM GAS  /tmp/ccoTsclT.s 			page 43


 1638 008c 124B     		ldr	r3, .L87+4
 1639 008e 1B6B     		ldr	r3, [r3, #48]
 1640 0090 03F00403 		and	r3, r3, #4
 1641 0094 3B60     		str	r3, [r7]
 1642 0096 3B68     		ldr	r3, [r7]
 1643              	.LBE13:
 815:Drivers/BSP/STM32F429I-Discovery/stm32f429i_discovery.c ****     
 816:Drivers/BSP/STM32F429I-Discovery/stm32f429i_discovery.c ****     /* Configure NCS in Output Push-Pull mode */
 817:Drivers/BSP/STM32F429I-Discovery/stm32f429i_discovery.c ****     GPIO_InitStructure.Pin     = LCD_NCS_PIN;
 1644              		.loc 1 817 0
 1645 0098 0423     		movs	r3, #4
 1646 009a FB60     		str	r3, [r7, #12]
 818:Drivers/BSP/STM32F429I-Discovery/stm32f429i_discovery.c ****     GPIO_InitStructure.Mode    = GPIO_MODE_OUTPUT_PP;
 1647              		.loc 1 818 0
 1648 009c 0123     		movs	r3, #1
 1649 009e 3B61     		str	r3, [r7, #16]
 819:Drivers/BSP/STM32F429I-Discovery/stm32f429i_discovery.c ****     GPIO_InitStructure.Pull    = GPIO_NOPULL;
 1650              		.loc 1 819 0
 1651 00a0 0023     		movs	r3, #0
 1652 00a2 7B61     		str	r3, [r7, #20]
 820:Drivers/BSP/STM32F429I-Discovery/stm32f429i_discovery.c ****     GPIO_InitStructure.Speed   = GPIO_SPEED_FAST;
 1653              		.loc 1 820 0
 1654 00a4 0223     		movs	r3, #2
 1655 00a6 BB61     		str	r3, [r7, #24]
 821:Drivers/BSP/STM32F429I-Discovery/stm32f429i_discovery.c ****     HAL_GPIO_Init(LCD_NCS_GPIO_PORT, &GPIO_InitStructure);
 1656              		.loc 1 821 0
 1657 00a8 07F10C03 		add	r3, r7, #12
 1658 00ac 0C48     		ldr	r0, .L87+12
 1659 00ae 1946     		mov	r1, r3
 1660 00b0 FFF7FEFF 		bl	HAL_GPIO_Init
 822:Drivers/BSP/STM32F429I-Discovery/stm32f429i_discovery.c ****     
 823:Drivers/BSP/STM32F429I-Discovery/stm32f429i_discovery.c ****     /* Set or Reset the control line */
 824:Drivers/BSP/STM32F429I-Discovery/stm32f429i_discovery.c ****     LCD_CS_LOW();
 1661              		.loc 1 824 0
 1662 00b4 0A48     		ldr	r0, .L87+12
 1663 00b6 0421     		movs	r1, #4
 1664 00b8 0022     		movs	r2, #0
 1665 00ba FFF7FEFF 		bl	HAL_GPIO_WritePin
 825:Drivers/BSP/STM32F429I-Discovery/stm32f429i_discovery.c ****     LCD_CS_HIGH();
 1666              		.loc 1 825 0
 1667 00be 0848     		ldr	r0, .L87+12
 1668 00c0 0421     		movs	r1, #4
 1669 00c2 0122     		movs	r2, #1
 1670 00c4 FFF7FEFF 		bl	HAL_GPIO_WritePin
 826:Drivers/BSP/STM32F429I-Discovery/stm32f429i_discovery.c ****     
 827:Drivers/BSP/STM32F429I-Discovery/stm32f429i_discovery.c ****     SPIx_Init();
 1671              		.loc 1 827 0
 1672 00c8 FFF7FEFF 		bl	SPIx_Init
 1673              	.L85:
 828:Drivers/BSP/STM32F429I-Discovery/stm32f429i_discovery.c ****   }
 829:Drivers/BSP/STM32F429I-Discovery/stm32f429i_discovery.c **** }
 1674              		.loc 1 829 0
 1675 00cc 2037     		adds	r7, r7, #32
 1676 00ce BD46     		mov	sp, r7
 1677              		@ sp needed
 1678 00d0 80BD     		pop	{r7, pc}
 1679              	.L88:
ARM GAS  /tmp/ccoTsclT.s 			page 44


 1680 00d2 00BF     		.align	2
 1681              	.L87:
 1682 00d4 00000000 		.word	Is_LCD_IO_Initialized
 1683 00d8 00380240 		.word	1073887232
 1684 00dc 000C0240 		.word	1073875968
 1685 00e0 00080240 		.word	1073874944
 1686              		.cfi_endproc
 1687              	.LFE146:
 1689              		.section	.text.LCD_IO_WriteData,"ax",%progbits
 1690              		.align	2
 1691              		.global	LCD_IO_WriteData
 1692              		.thumb
 1693              		.thumb_func
 1695              	LCD_IO_WriteData:
 1696              	.LFB147:
 830:Drivers/BSP/STM32F429I-Discovery/stm32f429i_discovery.c **** 
 831:Drivers/BSP/STM32F429I-Discovery/stm32f429i_discovery.c **** /**
 832:Drivers/BSP/STM32F429I-Discovery/stm32f429i_discovery.c ****   * @brief  Writes register value.
 833:Drivers/BSP/STM32F429I-Discovery/stm32f429i_discovery.c ****   * @param  None
 834:Drivers/BSP/STM32F429I-Discovery/stm32f429i_discovery.c ****   * @retval None
 835:Drivers/BSP/STM32F429I-Discovery/stm32f429i_discovery.c ****   */
 836:Drivers/BSP/STM32F429I-Discovery/stm32f429i_discovery.c **** void LCD_IO_WriteData(uint16_t RegValue) 
 837:Drivers/BSP/STM32F429I-Discovery/stm32f429i_discovery.c **** {
 1697              		.loc 1 837 0
 1698              		.cfi_startproc
 1699              		@ args = 0, pretend = 0, frame = 8
 1700              		@ frame_needed = 1, uses_anonymous_args = 0
 1701 0000 80B5     		push	{r7, lr}
 1702              	.LCFI61:
 1703              		.cfi_def_cfa_offset 8
 1704              		.cfi_offset 7, -8
 1705              		.cfi_offset 14, -4
 1706 0002 82B0     		sub	sp, sp, #8
 1707              	.LCFI62:
 1708              		.cfi_def_cfa_offset 16
 1709 0004 00AF     		add	r7, sp, #0
 1710              	.LCFI63:
 1711              		.cfi_def_cfa_register 7
 1712 0006 0346     		mov	r3, r0
 1713 0008 FB80     		strh	r3, [r7, #6]	@ movhi
 838:Drivers/BSP/STM32F429I-Discovery/stm32f429i_discovery.c ****   /* Set WRX to send data */
 839:Drivers/BSP/STM32F429I-Discovery/stm32f429i_discovery.c ****   LCD_WRX_HIGH();
 1714              		.loc 1 839 0
 1715 000a 0B48     		ldr	r0, .L90
 1716 000c 4FF40051 		mov	r1, #8192
 1717 0010 0122     		movs	r2, #1
 1718 0012 FFF7FEFF 		bl	HAL_GPIO_WritePin
 840:Drivers/BSP/STM32F429I-Discovery/stm32f429i_discovery.c ****   
 841:Drivers/BSP/STM32F429I-Discovery/stm32f429i_discovery.c ****   /* Reset LCD control line(/CS) and Send data */  
 842:Drivers/BSP/STM32F429I-Discovery/stm32f429i_discovery.c ****   LCD_CS_LOW();
 1719              		.loc 1 842 0
 1720 0016 0948     		ldr	r0, .L90+4
 1721 0018 0421     		movs	r1, #4
 1722 001a 0022     		movs	r2, #0
 1723 001c FFF7FEFF 		bl	HAL_GPIO_WritePin
 843:Drivers/BSP/STM32F429I-Discovery/stm32f429i_discovery.c ****   SPIx_Write(RegValue);
 1724              		.loc 1 843 0
ARM GAS  /tmp/ccoTsclT.s 			page 45


 1725 0020 FB88     		ldrh	r3, [r7, #6]
 1726 0022 1846     		mov	r0, r3
 1727 0024 FFF7FEFF 		bl	SPIx_Write
 844:Drivers/BSP/STM32F429I-Discovery/stm32f429i_discovery.c ****   
 845:Drivers/BSP/STM32F429I-Discovery/stm32f429i_discovery.c ****   /* Deselect: Chip Select high */
 846:Drivers/BSP/STM32F429I-Discovery/stm32f429i_discovery.c ****   LCD_CS_HIGH();
 1728              		.loc 1 846 0
 1729 0028 0448     		ldr	r0, .L90+4
 1730 002a 0421     		movs	r1, #4
 1731 002c 0122     		movs	r2, #1
 1732 002e FFF7FEFF 		bl	HAL_GPIO_WritePin
 847:Drivers/BSP/STM32F429I-Discovery/stm32f429i_discovery.c **** }
 1733              		.loc 1 847 0
 1734 0032 0837     		adds	r7, r7, #8
 1735 0034 BD46     		mov	sp, r7
 1736              		@ sp needed
 1737 0036 80BD     		pop	{r7, pc}
 1738              	.L91:
 1739              		.align	2
 1740              	.L90:
 1741 0038 000C0240 		.word	1073875968
 1742 003c 00080240 		.word	1073874944
 1743              		.cfi_endproc
 1744              	.LFE147:
 1746              		.section	.text.LCD_IO_WriteReg,"ax",%progbits
 1747              		.align	2
 1748              		.global	LCD_IO_WriteReg
 1749              		.thumb
 1750              		.thumb_func
 1752              	LCD_IO_WriteReg:
 1753              	.LFB148:
 848:Drivers/BSP/STM32F429I-Discovery/stm32f429i_discovery.c **** 
 849:Drivers/BSP/STM32F429I-Discovery/stm32f429i_discovery.c **** /**
 850:Drivers/BSP/STM32F429I-Discovery/stm32f429i_discovery.c ****   * @brief  Writes register address.
 851:Drivers/BSP/STM32F429I-Discovery/stm32f429i_discovery.c ****   * @param  None
 852:Drivers/BSP/STM32F429I-Discovery/stm32f429i_discovery.c ****   * @retval None
 853:Drivers/BSP/STM32F429I-Discovery/stm32f429i_discovery.c ****   */
 854:Drivers/BSP/STM32F429I-Discovery/stm32f429i_discovery.c **** void LCD_IO_WriteReg(uint8_t Reg) 
 855:Drivers/BSP/STM32F429I-Discovery/stm32f429i_discovery.c **** {
 1754              		.loc 1 855 0
 1755              		.cfi_startproc
 1756              		@ args = 0, pretend = 0, frame = 8
 1757              		@ frame_needed = 1, uses_anonymous_args = 0
 1758 0000 80B5     		push	{r7, lr}
 1759              	.LCFI64:
 1760              		.cfi_def_cfa_offset 8
 1761              		.cfi_offset 7, -8
 1762              		.cfi_offset 14, -4
 1763 0002 82B0     		sub	sp, sp, #8
 1764              	.LCFI65:
 1765              		.cfi_def_cfa_offset 16
 1766 0004 00AF     		add	r7, sp, #0
 1767              	.LCFI66:
 1768              		.cfi_def_cfa_register 7
 1769 0006 0346     		mov	r3, r0
 1770 0008 FB71     		strb	r3, [r7, #7]
 856:Drivers/BSP/STM32F429I-Discovery/stm32f429i_discovery.c ****   /* Reset WRX to send command */
ARM GAS  /tmp/ccoTsclT.s 			page 46


 857:Drivers/BSP/STM32F429I-Discovery/stm32f429i_discovery.c ****   LCD_WRX_LOW();
 1771              		.loc 1 857 0
 1772 000a 0C48     		ldr	r0, .L93
 1773 000c 4FF40051 		mov	r1, #8192
 1774 0010 0022     		movs	r2, #0
 1775 0012 FFF7FEFF 		bl	HAL_GPIO_WritePin
 858:Drivers/BSP/STM32F429I-Discovery/stm32f429i_discovery.c ****   
 859:Drivers/BSP/STM32F429I-Discovery/stm32f429i_discovery.c ****   /* Reset LCD control line(/CS) and Send command */
 860:Drivers/BSP/STM32F429I-Discovery/stm32f429i_discovery.c ****   LCD_CS_LOW();
 1776              		.loc 1 860 0
 1777 0016 0A48     		ldr	r0, .L93+4
 1778 0018 0421     		movs	r1, #4
 1779 001a 0022     		movs	r2, #0
 1780 001c FFF7FEFF 		bl	HAL_GPIO_WritePin
 861:Drivers/BSP/STM32F429I-Discovery/stm32f429i_discovery.c ****   SPIx_Write(Reg);
 1781              		.loc 1 861 0
 1782 0020 FB79     		ldrb	r3, [r7, #7]	@ zero_extendqisi2
 1783 0022 9BB2     		uxth	r3, r3
 1784 0024 1846     		mov	r0, r3
 1785 0026 FFF7FEFF 		bl	SPIx_Write
 862:Drivers/BSP/STM32F429I-Discovery/stm32f429i_discovery.c ****   
 863:Drivers/BSP/STM32F429I-Discovery/stm32f429i_discovery.c ****   /* Deselect: Chip Select high */
 864:Drivers/BSP/STM32F429I-Discovery/stm32f429i_discovery.c ****   LCD_CS_HIGH();
 1786              		.loc 1 864 0
 1787 002a 0548     		ldr	r0, .L93+4
 1788 002c 0421     		movs	r1, #4
 1789 002e 0122     		movs	r2, #1
 1790 0030 FFF7FEFF 		bl	HAL_GPIO_WritePin
 865:Drivers/BSP/STM32F429I-Discovery/stm32f429i_discovery.c **** }
 1791              		.loc 1 865 0
 1792 0034 0837     		adds	r7, r7, #8
 1793 0036 BD46     		mov	sp, r7
 1794              		@ sp needed
 1795 0038 80BD     		pop	{r7, pc}
 1796              	.L94:
 1797 003a 00BF     		.align	2
 1798              	.L93:
 1799 003c 000C0240 		.word	1073875968
 1800 0040 00080240 		.word	1073874944
 1801              		.cfi_endproc
 1802              	.LFE148:
 1804              		.section	.text.LCD_IO_ReadData,"ax",%progbits
 1805              		.align	2
 1806              		.global	LCD_IO_ReadData
 1807              		.thumb
 1808              		.thumb_func
 1810              	LCD_IO_ReadData:
 1811              	.LFB149:
 866:Drivers/BSP/STM32F429I-Discovery/stm32f429i_discovery.c **** 
 867:Drivers/BSP/STM32F429I-Discovery/stm32f429i_discovery.c **** /**
 868:Drivers/BSP/STM32F429I-Discovery/stm32f429i_discovery.c ****   * @brief  Reads register value.
 869:Drivers/BSP/STM32F429I-Discovery/stm32f429i_discovery.c ****   * @param  RegValue Address of the register to read
 870:Drivers/BSP/STM32F429I-Discovery/stm32f429i_discovery.c ****   * @param  ReadSize Number of bytes to read
 871:Drivers/BSP/STM32F429I-Discovery/stm32f429i_discovery.c ****   * @retval Content of the register value
 872:Drivers/BSP/STM32F429I-Discovery/stm32f429i_discovery.c ****   */
 873:Drivers/BSP/STM32F429I-Discovery/stm32f429i_discovery.c **** uint32_t LCD_IO_ReadData(uint16_t RegValue, uint8_t ReadSize) 
 874:Drivers/BSP/STM32F429I-Discovery/stm32f429i_discovery.c **** {
ARM GAS  /tmp/ccoTsclT.s 			page 47


 1812              		.loc 1 874 0
 1813              		.cfi_startproc
 1814              		@ args = 0, pretend = 0, frame = 16
 1815              		@ frame_needed = 1, uses_anonymous_args = 0
 1816 0000 80B5     		push	{r7, lr}
 1817              	.LCFI67:
 1818              		.cfi_def_cfa_offset 8
 1819              		.cfi_offset 7, -8
 1820              		.cfi_offset 14, -4
 1821 0002 84B0     		sub	sp, sp, #16
 1822              	.LCFI68:
 1823              		.cfi_def_cfa_offset 24
 1824 0004 00AF     		add	r7, sp, #0
 1825              	.LCFI69:
 1826              		.cfi_def_cfa_register 7
 1827 0006 0246     		mov	r2, r0
 1828 0008 0B46     		mov	r3, r1
 1829 000a FA80     		strh	r2, [r7, #6]	@ movhi
 1830 000c 7B71     		strb	r3, [r7, #5]
 875:Drivers/BSP/STM32F429I-Discovery/stm32f429i_discovery.c ****   uint32_t readvalue = 0;
 1831              		.loc 1 875 0
 1832 000e 0023     		movs	r3, #0
 1833 0010 FB60     		str	r3, [r7, #12]
 876:Drivers/BSP/STM32F429I-Discovery/stm32f429i_discovery.c **** 
 877:Drivers/BSP/STM32F429I-Discovery/stm32f429i_discovery.c ****   /* Select: Chip Select low */
 878:Drivers/BSP/STM32F429I-Discovery/stm32f429i_discovery.c ****   LCD_CS_LOW();
 1834              		.loc 1 878 0
 1835 0012 1248     		ldr	r0, .L97
 1836 0014 0421     		movs	r1, #4
 1837 0016 0022     		movs	r2, #0
 1838 0018 FFF7FEFF 		bl	HAL_GPIO_WritePin
 879:Drivers/BSP/STM32F429I-Discovery/stm32f429i_discovery.c **** 
 880:Drivers/BSP/STM32F429I-Discovery/stm32f429i_discovery.c ****   /* Reset WRX to send command */
 881:Drivers/BSP/STM32F429I-Discovery/stm32f429i_discovery.c ****   LCD_WRX_LOW();
 1839              		.loc 1 881 0
 1840 001c 1048     		ldr	r0, .L97+4
 1841 001e 4FF40051 		mov	r1, #8192
 1842 0022 0022     		movs	r2, #0
 1843 0024 FFF7FEFF 		bl	HAL_GPIO_WritePin
 882:Drivers/BSP/STM32F429I-Discovery/stm32f429i_discovery.c ****   
 883:Drivers/BSP/STM32F429I-Discovery/stm32f429i_discovery.c ****   SPIx_Write(RegValue);
 1844              		.loc 1 883 0
 1845 0028 FB88     		ldrh	r3, [r7, #6]
 1846 002a 1846     		mov	r0, r3
 1847 002c FFF7FEFF 		bl	SPIx_Write
 884:Drivers/BSP/STM32F429I-Discovery/stm32f429i_discovery.c ****   
 885:Drivers/BSP/STM32F429I-Discovery/stm32f429i_discovery.c ****   readvalue = SPIx_Read(ReadSize);
 1848              		.loc 1 885 0
 1849 0030 7B79     		ldrb	r3, [r7, #5]	@ zero_extendqisi2
 1850 0032 1846     		mov	r0, r3
 1851 0034 FFF7FEFF 		bl	SPIx_Read
 1852 0038 F860     		str	r0, [r7, #12]
 886:Drivers/BSP/STM32F429I-Discovery/stm32f429i_discovery.c **** 
 887:Drivers/BSP/STM32F429I-Discovery/stm32f429i_discovery.c ****   /* Set WRX to send data */
 888:Drivers/BSP/STM32F429I-Discovery/stm32f429i_discovery.c ****   LCD_WRX_HIGH();
 1853              		.loc 1 888 0
 1854 003a 0948     		ldr	r0, .L97+4
ARM GAS  /tmp/ccoTsclT.s 			page 48


 1855 003c 4FF40051 		mov	r1, #8192
 1856 0040 0122     		movs	r2, #1
 1857 0042 FFF7FEFF 		bl	HAL_GPIO_WritePin
 889:Drivers/BSP/STM32F429I-Discovery/stm32f429i_discovery.c **** 
 890:Drivers/BSP/STM32F429I-Discovery/stm32f429i_discovery.c ****   /* Deselect: Chip Select high */
 891:Drivers/BSP/STM32F429I-Discovery/stm32f429i_discovery.c ****   LCD_CS_HIGH();
 1858              		.loc 1 891 0
 1859 0046 0548     		ldr	r0, .L97
 1860 0048 0421     		movs	r1, #4
 1861 004a 0122     		movs	r2, #1
 1862 004c FFF7FEFF 		bl	HAL_GPIO_WritePin
 892:Drivers/BSP/STM32F429I-Discovery/stm32f429i_discovery.c ****   
 893:Drivers/BSP/STM32F429I-Discovery/stm32f429i_discovery.c ****   return readvalue;
 1863              		.loc 1 893 0
 1864 0050 FB68     		ldr	r3, [r7, #12]
 894:Drivers/BSP/STM32F429I-Discovery/stm32f429i_discovery.c **** }
 1865              		.loc 1 894 0
 1866 0052 1846     		mov	r0, r3
 1867 0054 1037     		adds	r7, r7, #16
 1868 0056 BD46     		mov	sp, r7
 1869              		@ sp needed
 1870 0058 80BD     		pop	{r7, pc}
 1871              	.L98:
 1872 005a 00BF     		.align	2
 1873              	.L97:
 1874 005c 00080240 		.word	1073874944
 1875 0060 000C0240 		.word	1073875968
 1876              		.cfi_endproc
 1877              	.LFE149:
 1879              		.section	.text.LCD_Delay,"ax",%progbits
 1880              		.align	2
 1881              		.global	LCD_Delay
 1882              		.thumb
 1883              		.thumb_func
 1885              	LCD_Delay:
 1886              	.LFB150:
 895:Drivers/BSP/STM32F429I-Discovery/stm32f429i_discovery.c **** 
 896:Drivers/BSP/STM32F429I-Discovery/stm32f429i_discovery.c **** /**
 897:Drivers/BSP/STM32F429I-Discovery/stm32f429i_discovery.c ****   * @brief  Wait for loop in ms.
 898:Drivers/BSP/STM32F429I-Discovery/stm32f429i_discovery.c ****   * @param  Delay in ms.
 899:Drivers/BSP/STM32F429I-Discovery/stm32f429i_discovery.c ****   * @retval None
 900:Drivers/BSP/STM32F429I-Discovery/stm32f429i_discovery.c ****   */
 901:Drivers/BSP/STM32F429I-Discovery/stm32f429i_discovery.c **** void LCD_Delay(uint32_t Delay)
 902:Drivers/BSP/STM32F429I-Discovery/stm32f429i_discovery.c **** {
 1887              		.loc 1 902 0
 1888              		.cfi_startproc
 1889              		@ args = 0, pretend = 0, frame = 8
 1890              		@ frame_needed = 1, uses_anonymous_args = 0
 1891 0000 80B5     		push	{r7, lr}
 1892              	.LCFI70:
 1893              		.cfi_def_cfa_offset 8
 1894              		.cfi_offset 7, -8
 1895              		.cfi_offset 14, -4
 1896 0002 82B0     		sub	sp, sp, #8
 1897              	.LCFI71:
 1898              		.cfi_def_cfa_offset 16
 1899 0004 00AF     		add	r7, sp, #0
ARM GAS  /tmp/ccoTsclT.s 			page 49


 1900              	.LCFI72:
 1901              		.cfi_def_cfa_register 7
 1902 0006 7860     		str	r0, [r7, #4]
 903:Drivers/BSP/STM32F429I-Discovery/stm32f429i_discovery.c ****   HAL_Delay(Delay);
 1903              		.loc 1 903 0
 1904 0008 7868     		ldr	r0, [r7, #4]
 1905 000a FFF7FEFF 		bl	HAL_Delay
 904:Drivers/BSP/STM32F429I-Discovery/stm32f429i_discovery.c **** }
 1906              		.loc 1 904 0
 1907 000e 0837     		adds	r7, r7, #8
 1908 0010 BD46     		mov	sp, r7
 1909              		@ sp needed
 1910 0012 80BD     		pop	{r7, pc}
 1911              		.cfi_endproc
 1912              	.LFE150:
 1914              		.section	.text.IOE_Init,"ax",%progbits
 1915              		.align	2
 1916              		.global	IOE_Init
 1917              		.thumb
 1918              		.thumb_func
 1920              	IOE_Init:
 1921              	.LFB151:
 905:Drivers/BSP/STM32F429I-Discovery/stm32f429i_discovery.c **** 
 906:Drivers/BSP/STM32F429I-Discovery/stm32f429i_discovery.c **** /*******************************************************************************
 907:Drivers/BSP/STM32F429I-Discovery/stm32f429i_discovery.c ****                             LINK OPERATIONS
 908:Drivers/BSP/STM32F429I-Discovery/stm32f429i_discovery.c **** *******************************************************************************/
 909:Drivers/BSP/STM32F429I-Discovery/stm32f429i_discovery.c **** 
 910:Drivers/BSP/STM32F429I-Discovery/stm32f429i_discovery.c **** /********************************* LINK IOE ***********************************/
 911:Drivers/BSP/STM32F429I-Discovery/stm32f429i_discovery.c **** 
 912:Drivers/BSP/STM32F429I-Discovery/stm32f429i_discovery.c **** /**
 913:Drivers/BSP/STM32F429I-Discovery/stm32f429i_discovery.c ****   * @brief  IOE Low Level Initialization.
 914:Drivers/BSP/STM32F429I-Discovery/stm32f429i_discovery.c ****   * @param  None
 915:Drivers/BSP/STM32F429I-Discovery/stm32f429i_discovery.c ****   * @retval None
 916:Drivers/BSP/STM32F429I-Discovery/stm32f429i_discovery.c ****   */
 917:Drivers/BSP/STM32F429I-Discovery/stm32f429i_discovery.c **** void IOE_Init(void) 
 918:Drivers/BSP/STM32F429I-Discovery/stm32f429i_discovery.c **** {
 1922              		.loc 1 918 0
 1923              		.cfi_startproc
 1924              		@ args = 0, pretend = 0, frame = 0
 1925              		@ frame_needed = 1, uses_anonymous_args = 0
 1926 0000 80B5     		push	{r7, lr}
 1927              	.LCFI73:
 1928              		.cfi_def_cfa_offset 8
 1929              		.cfi_offset 7, -8
 1930              		.cfi_offset 14, -4
 1931 0002 00AF     		add	r7, sp, #0
 1932              	.LCFI74:
 1933              		.cfi_def_cfa_register 7
 919:Drivers/BSP/STM32F429I-Discovery/stm32f429i_discovery.c ****   I2Cx_Init();
 1934              		.loc 1 919 0
 1935 0004 FFF7FEFF 		bl	I2Cx_Init
 920:Drivers/BSP/STM32F429I-Discovery/stm32f429i_discovery.c **** }
 1936              		.loc 1 920 0
 1937 0008 80BD     		pop	{r7, pc}
 1938              		.cfi_endproc
 1939              	.LFE151:
 1941 000a 00BF     		.section	.text.IOE_ITConfig,"ax",%progbits
ARM GAS  /tmp/ccoTsclT.s 			page 50


 1942              		.align	2
 1943              		.global	IOE_ITConfig
 1944              		.thumb
 1945              		.thumb_func
 1947              	IOE_ITConfig:
 1948              	.LFB152:
 921:Drivers/BSP/STM32F429I-Discovery/stm32f429i_discovery.c **** 
 922:Drivers/BSP/STM32F429I-Discovery/stm32f429i_discovery.c **** /**
 923:Drivers/BSP/STM32F429I-Discovery/stm32f429i_discovery.c ****   * @brief  IOE Low Level Interrupt configuration.
 924:Drivers/BSP/STM32F429I-Discovery/stm32f429i_discovery.c ****   * @param  None
 925:Drivers/BSP/STM32F429I-Discovery/stm32f429i_discovery.c ****   * @retval None
 926:Drivers/BSP/STM32F429I-Discovery/stm32f429i_discovery.c ****   */
 927:Drivers/BSP/STM32F429I-Discovery/stm32f429i_discovery.c **** void IOE_ITConfig(void)
 928:Drivers/BSP/STM32F429I-Discovery/stm32f429i_discovery.c **** {
 1949              		.loc 1 928 0
 1950              		.cfi_startproc
 1951              		@ args = 0, pretend = 0, frame = 0
 1952              		@ frame_needed = 1, uses_anonymous_args = 0
 1953 0000 80B5     		push	{r7, lr}
 1954              	.LCFI75:
 1955              		.cfi_def_cfa_offset 8
 1956              		.cfi_offset 7, -8
 1957              		.cfi_offset 14, -4
 1958 0002 00AF     		add	r7, sp, #0
 1959              	.LCFI76:
 1960              		.cfi_def_cfa_register 7
 929:Drivers/BSP/STM32F429I-Discovery/stm32f429i_discovery.c ****   I2Cx_ITConfig();
 1961              		.loc 1 929 0
 1962 0004 FFF7FEFF 		bl	I2Cx_ITConfig
 930:Drivers/BSP/STM32F429I-Discovery/stm32f429i_discovery.c **** }
 1963              		.loc 1 930 0
 1964 0008 80BD     		pop	{r7, pc}
 1965              		.cfi_endproc
 1966              	.LFE152:
 1968 000a 00BF     		.section	.text.IOE_Write,"ax",%progbits
 1969              		.align	2
 1970              		.global	IOE_Write
 1971              		.thumb
 1972              		.thumb_func
 1974              	IOE_Write:
 1975              	.LFB153:
 931:Drivers/BSP/STM32F429I-Discovery/stm32f429i_discovery.c **** 
 932:Drivers/BSP/STM32F429I-Discovery/stm32f429i_discovery.c **** /**
 933:Drivers/BSP/STM32F429I-Discovery/stm32f429i_discovery.c ****   * @brief  IOE Writes single data operation.
 934:Drivers/BSP/STM32F429I-Discovery/stm32f429i_discovery.c ****   * @param  Addr: I2C Address
 935:Drivers/BSP/STM32F429I-Discovery/stm32f429i_discovery.c ****   * @param  Reg: Reg Address 
 936:Drivers/BSP/STM32F429I-Discovery/stm32f429i_discovery.c ****   * @param  Value: Data to be written
 937:Drivers/BSP/STM32F429I-Discovery/stm32f429i_discovery.c ****   * @retval None
 938:Drivers/BSP/STM32F429I-Discovery/stm32f429i_discovery.c ****   */
 939:Drivers/BSP/STM32F429I-Discovery/stm32f429i_discovery.c **** void IOE_Write(uint8_t Addr, uint8_t Reg, uint8_t Value)
 940:Drivers/BSP/STM32F429I-Discovery/stm32f429i_discovery.c **** {
 1976              		.loc 1 940 0
 1977              		.cfi_startproc
 1978              		@ args = 0, pretend = 0, frame = 8
 1979              		@ frame_needed = 1, uses_anonymous_args = 0
 1980 0000 80B5     		push	{r7, lr}
 1981              	.LCFI77:
ARM GAS  /tmp/ccoTsclT.s 			page 51


 1982              		.cfi_def_cfa_offset 8
 1983              		.cfi_offset 7, -8
 1984              		.cfi_offset 14, -4
 1985 0002 82B0     		sub	sp, sp, #8
 1986              	.LCFI78:
 1987              		.cfi_def_cfa_offset 16
 1988 0004 00AF     		add	r7, sp, #0
 1989              	.LCFI79:
 1990              		.cfi_def_cfa_register 7
 1991 0006 1346     		mov	r3, r2
 1992 0008 0246     		mov	r2, r0
 1993 000a FA71     		strb	r2, [r7, #7]
 1994 000c 0A46     		mov	r2, r1
 1995 000e BA71     		strb	r2, [r7, #6]
 1996 0010 7B71     		strb	r3, [r7, #5]
 941:Drivers/BSP/STM32F429I-Discovery/stm32f429i_discovery.c ****   I2Cx_WriteData(Addr, Reg, Value);
 1997              		.loc 1 941 0
 1998 0012 F979     		ldrb	r1, [r7, #7]	@ zero_extendqisi2
 1999 0014 BA79     		ldrb	r2, [r7, #6]	@ zero_extendqisi2
 2000 0016 7B79     		ldrb	r3, [r7, #5]	@ zero_extendqisi2
 2001 0018 0846     		mov	r0, r1
 2002 001a 1146     		mov	r1, r2
 2003 001c 1A46     		mov	r2, r3
 2004 001e FFF7FEFF 		bl	I2Cx_WriteData
 942:Drivers/BSP/STM32F429I-Discovery/stm32f429i_discovery.c **** }
 2005              		.loc 1 942 0
 2006 0022 0837     		adds	r7, r7, #8
 2007 0024 BD46     		mov	sp, r7
 2008              		@ sp needed
 2009 0026 80BD     		pop	{r7, pc}
 2010              		.cfi_endproc
 2011              	.LFE153:
 2013              		.section	.text.IOE_Read,"ax",%progbits
 2014              		.align	2
 2015              		.global	IOE_Read
 2016              		.thumb
 2017              		.thumb_func
 2019              	IOE_Read:
 2020              	.LFB154:
 943:Drivers/BSP/STM32F429I-Discovery/stm32f429i_discovery.c **** 
 944:Drivers/BSP/STM32F429I-Discovery/stm32f429i_discovery.c **** /**
 945:Drivers/BSP/STM32F429I-Discovery/stm32f429i_discovery.c ****   * @brief  IOE Reads single data.
 946:Drivers/BSP/STM32F429I-Discovery/stm32f429i_discovery.c ****   * @param  Addr: I2C Address
 947:Drivers/BSP/STM32F429I-Discovery/stm32f429i_discovery.c ****   * @param  Reg: Reg Address 
 948:Drivers/BSP/STM32F429I-Discovery/stm32f429i_discovery.c ****   * @retval The read data
 949:Drivers/BSP/STM32F429I-Discovery/stm32f429i_discovery.c ****   */
 950:Drivers/BSP/STM32F429I-Discovery/stm32f429i_discovery.c **** uint8_t IOE_Read(uint8_t Addr, uint8_t Reg)
 951:Drivers/BSP/STM32F429I-Discovery/stm32f429i_discovery.c **** {
 2021              		.loc 1 951 0
 2022              		.cfi_startproc
 2023              		@ args = 0, pretend = 0, frame = 8
 2024              		@ frame_needed = 1, uses_anonymous_args = 0
 2025 0000 80B5     		push	{r7, lr}
 2026              	.LCFI80:
 2027              		.cfi_def_cfa_offset 8
 2028              		.cfi_offset 7, -8
 2029              		.cfi_offset 14, -4
ARM GAS  /tmp/ccoTsclT.s 			page 52


 2030 0002 82B0     		sub	sp, sp, #8
 2031              	.LCFI81:
 2032              		.cfi_def_cfa_offset 16
 2033 0004 00AF     		add	r7, sp, #0
 2034              	.LCFI82:
 2035              		.cfi_def_cfa_register 7
 2036 0006 0246     		mov	r2, r0
 2037 0008 0B46     		mov	r3, r1
 2038 000a FA71     		strb	r2, [r7, #7]
 2039 000c BB71     		strb	r3, [r7, #6]
 952:Drivers/BSP/STM32F429I-Discovery/stm32f429i_discovery.c ****   return I2Cx_ReadData(Addr, Reg);
 2040              		.loc 1 952 0
 2041 000e FA79     		ldrb	r2, [r7, #7]	@ zero_extendqisi2
 2042 0010 BB79     		ldrb	r3, [r7, #6]	@ zero_extendqisi2
 2043 0012 1046     		mov	r0, r2
 2044 0014 1946     		mov	r1, r3
 2045 0016 FFF7FEFF 		bl	I2Cx_ReadData
 2046 001a 0346     		mov	r3, r0
 953:Drivers/BSP/STM32F429I-Discovery/stm32f429i_discovery.c **** }
 2047              		.loc 1 953 0
 2048 001c 1846     		mov	r0, r3
 2049 001e 0837     		adds	r7, r7, #8
 2050 0020 BD46     		mov	sp, r7
 2051              		@ sp needed
 2052 0022 80BD     		pop	{r7, pc}
 2053              		.cfi_endproc
 2054              	.LFE154:
 2056              		.section	.text.IOE_WriteMultiple,"ax",%progbits
 2057              		.align	2
 2058              		.global	IOE_WriteMultiple
 2059              		.thumb
 2060              		.thumb_func
 2062              	IOE_WriteMultiple:
 2063              	.LFB155:
 954:Drivers/BSP/STM32F429I-Discovery/stm32f429i_discovery.c **** 
 955:Drivers/BSP/STM32F429I-Discovery/stm32f429i_discovery.c **** /**
 956:Drivers/BSP/STM32F429I-Discovery/stm32f429i_discovery.c ****   * @brief  IOE Writes multiple data.
 957:Drivers/BSP/STM32F429I-Discovery/stm32f429i_discovery.c ****   * @param  Addr: I2C Address
 958:Drivers/BSP/STM32F429I-Discovery/stm32f429i_discovery.c ****   * @param  Reg: Reg Address 
 959:Drivers/BSP/STM32F429I-Discovery/stm32f429i_discovery.c ****   * @param  pBuffer: pointer to data buffer
 960:Drivers/BSP/STM32F429I-Discovery/stm32f429i_discovery.c ****   * @param  Length: length of the data
 961:Drivers/BSP/STM32F429I-Discovery/stm32f429i_discovery.c ****   * @retval None
 962:Drivers/BSP/STM32F429I-Discovery/stm32f429i_discovery.c ****   */
 963:Drivers/BSP/STM32F429I-Discovery/stm32f429i_discovery.c **** void IOE_WriteMultiple(uint8_t Addr, uint8_t Reg, uint8_t *pBuffer, uint16_t Length)
 964:Drivers/BSP/STM32F429I-Discovery/stm32f429i_discovery.c **** {
 2064              		.loc 1 964 0
 2065              		.cfi_startproc
 2066              		@ args = 0, pretend = 0, frame = 8
 2067              		@ frame_needed = 1, uses_anonymous_args = 0
 2068 0000 80B5     		push	{r7, lr}
 2069              	.LCFI83:
 2070              		.cfi_def_cfa_offset 8
 2071              		.cfi_offset 7, -8
 2072              		.cfi_offset 14, -4
 2073 0002 82B0     		sub	sp, sp, #8
 2074              	.LCFI84:
 2075              		.cfi_def_cfa_offset 16
ARM GAS  /tmp/ccoTsclT.s 			page 53


 2076 0004 00AF     		add	r7, sp, #0
 2077              	.LCFI85:
 2078              		.cfi_def_cfa_register 7
 2079 0006 3A60     		str	r2, [r7]
 2080 0008 0246     		mov	r2, r0
 2081 000a FA71     		strb	r2, [r7, #7]
 2082 000c 0A46     		mov	r2, r1
 2083 000e BA71     		strb	r2, [r7, #6]
 2084 0010 BB80     		strh	r3, [r7, #4]	@ movhi
 965:Drivers/BSP/STM32F429I-Discovery/stm32f429i_discovery.c ****   I2Cx_WriteBuffer(Addr, Reg, pBuffer, Length);
 2085              		.loc 1 965 0
 2086 0012 F979     		ldrb	r1, [r7, #7]	@ zero_extendqisi2
 2087 0014 BA79     		ldrb	r2, [r7, #6]	@ zero_extendqisi2
 2088 0016 BB88     		ldrh	r3, [r7, #4]
 2089 0018 0846     		mov	r0, r1
 2090 001a 1146     		mov	r1, r2
 2091 001c 3A68     		ldr	r2, [r7]
 2092 001e FFF7FEFF 		bl	I2Cx_WriteBuffer
 966:Drivers/BSP/STM32F429I-Discovery/stm32f429i_discovery.c **** }
 2093              		.loc 1 966 0
 2094 0022 0837     		adds	r7, r7, #8
 2095 0024 BD46     		mov	sp, r7
 2096              		@ sp needed
 2097 0026 80BD     		pop	{r7, pc}
 2098              		.cfi_endproc
 2099              	.LFE155:
 2101              		.section	.text.IOE_ReadMultiple,"ax",%progbits
 2102              		.align	2
 2103              		.global	IOE_ReadMultiple
 2104              		.thumb
 2105              		.thumb_func
 2107              	IOE_ReadMultiple:
 2108              	.LFB156:
 967:Drivers/BSP/STM32F429I-Discovery/stm32f429i_discovery.c **** 
 968:Drivers/BSP/STM32F429I-Discovery/stm32f429i_discovery.c **** /**
 969:Drivers/BSP/STM32F429I-Discovery/stm32f429i_discovery.c ****   * @brief  IOE Reads multiple data.
 970:Drivers/BSP/STM32F429I-Discovery/stm32f429i_discovery.c ****   * @param  Addr: I2C Address
 971:Drivers/BSP/STM32F429I-Discovery/stm32f429i_discovery.c ****   * @param  Reg: Reg Address 
 972:Drivers/BSP/STM32F429I-Discovery/stm32f429i_discovery.c ****   * @param  pBuffer: pointer to data buffer
 973:Drivers/BSP/STM32F429I-Discovery/stm32f429i_discovery.c ****   * @param  Length: length of the data
 974:Drivers/BSP/STM32F429I-Discovery/stm32f429i_discovery.c ****   * @retval 0 if no problems to read multiple data
 975:Drivers/BSP/STM32F429I-Discovery/stm32f429i_discovery.c ****   */
 976:Drivers/BSP/STM32F429I-Discovery/stm32f429i_discovery.c **** uint16_t IOE_ReadMultiple(uint8_t Addr, uint8_t Reg, uint8_t *pBuffer, uint16_t Length)
 977:Drivers/BSP/STM32F429I-Discovery/stm32f429i_discovery.c **** {
 2109              		.loc 1 977 0
 2110              		.cfi_startproc
 2111              		@ args = 0, pretend = 0, frame = 8
 2112              		@ frame_needed = 1, uses_anonymous_args = 0
 2113 0000 80B5     		push	{r7, lr}
 2114              	.LCFI86:
 2115              		.cfi_def_cfa_offset 8
 2116              		.cfi_offset 7, -8
 2117              		.cfi_offset 14, -4
 2118 0002 82B0     		sub	sp, sp, #8
 2119              	.LCFI87:
 2120              		.cfi_def_cfa_offset 16
 2121 0004 00AF     		add	r7, sp, #0
ARM GAS  /tmp/ccoTsclT.s 			page 54


 2122              	.LCFI88:
 2123              		.cfi_def_cfa_register 7
 2124 0006 3A60     		str	r2, [r7]
 2125 0008 0246     		mov	r2, r0
 2126 000a FA71     		strb	r2, [r7, #7]
 2127 000c 0A46     		mov	r2, r1
 2128 000e BA71     		strb	r2, [r7, #6]
 2129 0010 BB80     		strh	r3, [r7, #4]	@ movhi
 978:Drivers/BSP/STM32F429I-Discovery/stm32f429i_discovery.c ****  return I2Cx_ReadBuffer(Addr, Reg, pBuffer, Length);
 2130              		.loc 1 978 0
 2131 0012 F979     		ldrb	r1, [r7, #7]	@ zero_extendqisi2
 2132 0014 BA79     		ldrb	r2, [r7, #6]	@ zero_extendqisi2
 2133 0016 BB88     		ldrh	r3, [r7, #4]
 2134 0018 0846     		mov	r0, r1
 2135 001a 1146     		mov	r1, r2
 2136 001c 3A68     		ldr	r2, [r7]
 2137 001e FFF7FEFF 		bl	I2Cx_ReadBuffer
 2138 0022 0346     		mov	r3, r0
 979:Drivers/BSP/STM32F429I-Discovery/stm32f429i_discovery.c **** }
 2139              		.loc 1 979 0
 2140 0024 1846     		mov	r0, r3
 2141 0026 0837     		adds	r7, r7, #8
 2142 0028 BD46     		mov	sp, r7
 2143              		@ sp needed
 2144 002a 80BD     		pop	{r7, pc}
 2145              		.cfi_endproc
 2146              	.LFE156:
 2148              		.section	.text.IOE_Delay,"ax",%progbits
 2149              		.align	2
 2150              		.global	IOE_Delay
 2151              		.thumb
 2152              		.thumb_func
 2154              	IOE_Delay:
 2155              	.LFB157:
 980:Drivers/BSP/STM32F429I-Discovery/stm32f429i_discovery.c **** 
 981:Drivers/BSP/STM32F429I-Discovery/stm32f429i_discovery.c **** /**
 982:Drivers/BSP/STM32F429I-Discovery/stm32f429i_discovery.c ****   * @brief  IOE Delay.
 983:Drivers/BSP/STM32F429I-Discovery/stm32f429i_discovery.c ****   * @param  Delay in ms
 984:Drivers/BSP/STM32F429I-Discovery/stm32f429i_discovery.c ****   * @retval None
 985:Drivers/BSP/STM32F429I-Discovery/stm32f429i_discovery.c ****   */
 986:Drivers/BSP/STM32F429I-Discovery/stm32f429i_discovery.c **** void IOE_Delay(uint32_t Delay)
 987:Drivers/BSP/STM32F429I-Discovery/stm32f429i_discovery.c **** {
 2156              		.loc 1 987 0
 2157              		.cfi_startproc
 2158              		@ args = 0, pretend = 0, frame = 8
 2159              		@ frame_needed = 1, uses_anonymous_args = 0
 2160 0000 80B5     		push	{r7, lr}
 2161              	.LCFI89:
 2162              		.cfi_def_cfa_offset 8
 2163              		.cfi_offset 7, -8
 2164              		.cfi_offset 14, -4
 2165 0002 82B0     		sub	sp, sp, #8
 2166              	.LCFI90:
 2167              		.cfi_def_cfa_offset 16
 2168 0004 00AF     		add	r7, sp, #0
 2169              	.LCFI91:
 2170              		.cfi_def_cfa_register 7
ARM GAS  /tmp/ccoTsclT.s 			page 55


 2171 0006 7860     		str	r0, [r7, #4]
 988:Drivers/BSP/STM32F429I-Discovery/stm32f429i_discovery.c ****   HAL_Delay(Delay);
 2172              		.loc 1 988 0
 2173 0008 7868     		ldr	r0, [r7, #4]
 2174 000a FFF7FEFF 		bl	HAL_Delay
 989:Drivers/BSP/STM32F429I-Discovery/stm32f429i_discovery.c **** }
 2175              		.loc 1 989 0
 2176 000e 0837     		adds	r7, r7, #8
 2177 0010 BD46     		mov	sp, r7
 2178              		@ sp needed
 2179 0012 80BD     		pop	{r7, pc}
 2180              		.cfi_endproc
 2181              	.LFE157:
 2183              		.section	.text.GYRO_IO_Init,"ax",%progbits
 2184              		.align	2
 2185              		.global	GYRO_IO_Init
 2186              		.thumb
 2187              		.thumb_func
 2189              	GYRO_IO_Init:
 2190              	.LFB158:
 990:Drivers/BSP/STM32F429I-Discovery/stm32f429i_discovery.c **** 
 991:Drivers/BSP/STM32F429I-Discovery/stm32f429i_discovery.c **** /********************************* LINK GYROSCOPE *****************************/
 992:Drivers/BSP/STM32F429I-Discovery/stm32f429i_discovery.c **** 
 993:Drivers/BSP/STM32F429I-Discovery/stm32f429i_discovery.c **** /**
 994:Drivers/BSP/STM32F429I-Discovery/stm32f429i_discovery.c ****   * @brief  Configures the Gyroscope SPI interface.
 995:Drivers/BSP/STM32F429I-Discovery/stm32f429i_discovery.c ****   * @param  None
 996:Drivers/BSP/STM32F429I-Discovery/stm32f429i_discovery.c ****   * @retval None
 997:Drivers/BSP/STM32F429I-Discovery/stm32f429i_discovery.c ****   */
 998:Drivers/BSP/STM32F429I-Discovery/stm32f429i_discovery.c **** void GYRO_IO_Init(void)
 999:Drivers/BSP/STM32F429I-Discovery/stm32f429i_discovery.c **** {
 2191              		.loc 1 999 0
 2192              		.cfi_startproc
 2193              		@ args = 0, pretend = 0, frame = 32
 2194              		@ frame_needed = 1, uses_anonymous_args = 0
 2195 0000 80B5     		push	{r7, lr}
 2196              	.LCFI92:
 2197              		.cfi_def_cfa_offset 8
 2198              		.cfi_offset 7, -8
 2199              		.cfi_offset 14, -4
 2200 0002 88B0     		sub	sp, sp, #32
 2201              	.LCFI93:
 2202              		.cfi_def_cfa_offset 40
 2203 0004 00AF     		add	r7, sp, #0
 2204              	.LCFI94:
 2205              		.cfi_def_cfa_register 7
 2206              	.LBB14:
1000:Drivers/BSP/STM32F429I-Discovery/stm32f429i_discovery.c ****   GPIO_InitTypeDef GPIO_InitStructure;
1001:Drivers/BSP/STM32F429I-Discovery/stm32f429i_discovery.c ****   
1002:Drivers/BSP/STM32F429I-Discovery/stm32f429i_discovery.c ****   /* Configure the Gyroscope Control pins ------------------------------------*/
1003:Drivers/BSP/STM32F429I-Discovery/stm32f429i_discovery.c ****   /* Enable CS GPIO clock and Configure GPIO PIN for Gyroscope Chip select */  
1004:Drivers/BSP/STM32F429I-Discovery/stm32f429i_discovery.c ****   GYRO_CS_GPIO_CLK_ENABLE();  
 2207              		.loc 1 1004 0
 2208 0006 1F4B     		ldr	r3, .L110
 2209 0008 1E4A     		ldr	r2, .L110
 2210 000a 126B     		ldr	r2, [r2, #48]
 2211 000c 42F00402 		orr	r2, r2, #4
 2212 0010 1A63     		str	r2, [r3, #48]
ARM GAS  /tmp/ccoTsclT.s 			page 56


 2213 0012 1C4B     		ldr	r3, .L110
 2214 0014 1B6B     		ldr	r3, [r3, #48]
 2215 0016 03F00403 		and	r3, r3, #4
 2216 001a BB60     		str	r3, [r7, #8]
 2217 001c BB68     		ldr	r3, [r7, #8]
 2218              	.LBE14:
1005:Drivers/BSP/STM32F429I-Discovery/stm32f429i_discovery.c ****   GPIO_InitStructure.Pin = GYRO_CS_PIN;
 2219              		.loc 1 1005 0
 2220 001e 0223     		movs	r3, #2
 2221 0020 FB60     		str	r3, [r7, #12]
1006:Drivers/BSP/STM32F429I-Discovery/stm32f429i_discovery.c ****   GPIO_InitStructure.Mode = GPIO_MODE_OUTPUT_PP;
 2222              		.loc 1 1006 0
 2223 0022 0123     		movs	r3, #1
 2224 0024 3B61     		str	r3, [r7, #16]
1007:Drivers/BSP/STM32F429I-Discovery/stm32f429i_discovery.c ****   GPIO_InitStructure.Pull  = GPIO_NOPULL;
 2225              		.loc 1 1007 0
 2226 0026 0023     		movs	r3, #0
 2227 0028 7B61     		str	r3, [r7, #20]
1008:Drivers/BSP/STM32F429I-Discovery/stm32f429i_discovery.c ****   GPIO_InitStructure.Speed = GPIO_SPEED_MEDIUM;
 2228              		.loc 1 1008 0
 2229 002a 0123     		movs	r3, #1
 2230 002c BB61     		str	r3, [r7, #24]
1009:Drivers/BSP/STM32F429I-Discovery/stm32f429i_discovery.c ****   HAL_GPIO_Init(GYRO_CS_GPIO_PORT, &GPIO_InitStructure);
 2231              		.loc 1 1009 0
 2232 002e 07F10C03 		add	r3, r7, #12
 2233 0032 1548     		ldr	r0, .L110+4
 2234 0034 1946     		mov	r1, r3
 2235 0036 FFF7FEFF 		bl	HAL_GPIO_Init
1010:Drivers/BSP/STM32F429I-Discovery/stm32f429i_discovery.c ****   
1011:Drivers/BSP/STM32F429I-Discovery/stm32f429i_discovery.c ****   /* Deselect: Chip Select high */
1012:Drivers/BSP/STM32F429I-Discovery/stm32f429i_discovery.c ****   GYRO_CS_HIGH();
 2236              		.loc 1 1012 0
 2237 003a 1348     		ldr	r0, .L110+4
 2238 003c 0221     		movs	r1, #2
 2239 003e 0122     		movs	r2, #1
 2240 0040 FFF7FEFF 		bl	HAL_GPIO_WritePin
 2241              	.LBB15:
1013:Drivers/BSP/STM32F429I-Discovery/stm32f429i_discovery.c ****   
1014:Drivers/BSP/STM32F429I-Discovery/stm32f429i_discovery.c ****   /* Enable INT1, INT2 GPIO clock and Configure GPIO PINs to detect Interrupts */
1015:Drivers/BSP/STM32F429I-Discovery/stm32f429i_discovery.c ****   GYRO_INT_GPIO_CLK_ENABLE();
 2242              		.loc 1 1015 0
 2243 0044 0F4B     		ldr	r3, .L110
 2244 0046 0F4A     		ldr	r2, .L110
 2245 0048 126B     		ldr	r2, [r2, #48]
 2246 004a 42F00102 		orr	r2, r2, #1
 2247 004e 1A63     		str	r2, [r3, #48]
 2248 0050 0C4B     		ldr	r3, .L110
 2249 0052 1B6B     		ldr	r3, [r3, #48]
 2250 0054 03F00103 		and	r3, r3, #1
 2251 0058 7B60     		str	r3, [r7, #4]
 2252 005a 7B68     		ldr	r3, [r7, #4]
 2253              	.LBE15:
1016:Drivers/BSP/STM32F429I-Discovery/stm32f429i_discovery.c ****   GPIO_InitStructure.Pin = GYRO_INT1_PIN | GYRO_INT2_PIN;
 2254              		.loc 1 1016 0
 2255 005c 0623     		movs	r3, #6
 2256 005e FB60     		str	r3, [r7, #12]
1017:Drivers/BSP/STM32F429I-Discovery/stm32f429i_discovery.c ****   GPIO_InitStructure.Mode = GPIO_MODE_INPUT;
ARM GAS  /tmp/ccoTsclT.s 			page 57


 2257              		.loc 1 1017 0
 2258 0060 0023     		movs	r3, #0
 2259 0062 3B61     		str	r3, [r7, #16]
1018:Drivers/BSP/STM32F429I-Discovery/stm32f429i_discovery.c ****   GPIO_InitStructure.Speed = GPIO_SPEED_FAST;
 2260              		.loc 1 1018 0
 2261 0064 0223     		movs	r3, #2
 2262 0066 BB61     		str	r3, [r7, #24]
1019:Drivers/BSP/STM32F429I-Discovery/stm32f429i_discovery.c ****   GPIO_InitStructure.Pull= GPIO_NOPULL;
 2263              		.loc 1 1019 0
 2264 0068 0023     		movs	r3, #0
 2265 006a 7B61     		str	r3, [r7, #20]
1020:Drivers/BSP/STM32F429I-Discovery/stm32f429i_discovery.c ****   HAL_GPIO_Init(GYRO_INT_GPIO_PORT, &GPIO_InitStructure);
 2266              		.loc 1 1020 0
 2267 006c 07F10C03 		add	r3, r7, #12
 2268 0070 0648     		ldr	r0, .L110+8
 2269 0072 1946     		mov	r1, r3
 2270 0074 FFF7FEFF 		bl	HAL_GPIO_Init
1021:Drivers/BSP/STM32F429I-Discovery/stm32f429i_discovery.c **** 
1022:Drivers/BSP/STM32F429I-Discovery/stm32f429i_discovery.c ****   SPIx_Init();
 2271              		.loc 1 1022 0
 2272 0078 FFF7FEFF 		bl	SPIx_Init
1023:Drivers/BSP/STM32F429I-Discovery/stm32f429i_discovery.c **** }
 2273              		.loc 1 1023 0
 2274 007c 2037     		adds	r7, r7, #32
 2275 007e BD46     		mov	sp, r7
 2276              		@ sp needed
 2277 0080 80BD     		pop	{r7, pc}
 2278              	.L111:
 2279 0082 00BF     		.align	2
 2280              	.L110:
 2281 0084 00380240 		.word	1073887232
 2282 0088 00080240 		.word	1073874944
 2283 008c 00000240 		.word	1073872896
 2284              		.cfi_endproc
 2285              	.LFE158:
 2287              		.section	.text.GYRO_IO_Write,"ax",%progbits
 2288              		.align	2
 2289              		.global	GYRO_IO_Write
 2290              		.thumb
 2291              		.thumb_func
 2293              	GYRO_IO_Write:
 2294              	.LFB159:
1024:Drivers/BSP/STM32F429I-Discovery/stm32f429i_discovery.c **** 
1025:Drivers/BSP/STM32F429I-Discovery/stm32f429i_discovery.c **** /**
1026:Drivers/BSP/STM32F429I-Discovery/stm32f429i_discovery.c ****   * @brief  Writes one byte to the Gyroscope.
1027:Drivers/BSP/STM32F429I-Discovery/stm32f429i_discovery.c ****   * @param  pBuffer: Pointer to the buffer containing the data to be written to the Gyroscope.
1028:Drivers/BSP/STM32F429I-Discovery/stm32f429i_discovery.c ****   * @param  WriteAdd: Gyroscope's internal address to write to.
1029:Drivers/BSP/STM32F429I-Discovery/stm32f429i_discovery.c ****   * @param  NumByteToWrite: Number of bytes to write.
1030:Drivers/BSP/STM32F429I-Discovery/stm32f429i_discovery.c ****   * @retval None
1031:Drivers/BSP/STM32F429I-Discovery/stm32f429i_discovery.c ****   */
1032:Drivers/BSP/STM32F429I-Discovery/stm32f429i_discovery.c **** void GYRO_IO_Write(uint8_t* pBuffer, uint8_t WriteAddr, uint16_t NumByteToWrite)
1033:Drivers/BSP/STM32F429I-Discovery/stm32f429i_discovery.c **** {
 2295              		.loc 1 1033 0
 2296              		.cfi_startproc
 2297              		@ args = 0, pretend = 0, frame = 8
 2298              		@ frame_needed = 1, uses_anonymous_args = 0
 2299 0000 80B5     		push	{r7, lr}
ARM GAS  /tmp/ccoTsclT.s 			page 58


 2300              	.LCFI95:
 2301              		.cfi_def_cfa_offset 8
 2302              		.cfi_offset 7, -8
 2303              		.cfi_offset 14, -4
 2304 0002 82B0     		sub	sp, sp, #8
 2305              	.LCFI96:
 2306              		.cfi_def_cfa_offset 16
 2307 0004 00AF     		add	r7, sp, #0
 2308              	.LCFI97:
 2309              		.cfi_def_cfa_register 7
 2310 0006 7860     		str	r0, [r7, #4]
 2311 0008 1346     		mov	r3, r2
 2312 000a 0A46     		mov	r2, r1
 2313 000c FA70     		strb	r2, [r7, #3]
 2314 000e 3B80     		strh	r3, [r7]	@ movhi
1034:Drivers/BSP/STM32F429I-Discovery/stm32f429i_discovery.c ****   /* Configure the MS bit: 
1035:Drivers/BSP/STM32F429I-Discovery/stm32f429i_discovery.c ****        - When 0, the address will remain unchanged in multiple read/write commands.
1036:Drivers/BSP/STM32F429I-Discovery/stm32f429i_discovery.c ****        - When 1, the address will be auto incremented in multiple read/write commands.
1037:Drivers/BSP/STM32F429I-Discovery/stm32f429i_discovery.c ****   */
1038:Drivers/BSP/STM32F429I-Discovery/stm32f429i_discovery.c ****   if(NumByteToWrite > 0x01)
 2315              		.loc 1 1038 0
 2316 0010 3B88     		ldrh	r3, [r7]
 2317 0012 012B     		cmp	r3, #1
 2318 0014 03D9     		bls	.L113
1039:Drivers/BSP/STM32F429I-Discovery/stm32f429i_discovery.c ****   {
1040:Drivers/BSP/STM32F429I-Discovery/stm32f429i_discovery.c ****     WriteAddr |= (uint8_t)MULTIPLEBYTE_CMD;
 2319              		.loc 1 1040 0
 2320 0016 FB78     		ldrb	r3, [r7, #3]
 2321 0018 43F04003 		orr	r3, r3, #64
 2322 001c FB70     		strb	r3, [r7, #3]
 2323              	.L113:
1041:Drivers/BSP/STM32F429I-Discovery/stm32f429i_discovery.c ****   }
1042:Drivers/BSP/STM32F429I-Discovery/stm32f429i_discovery.c ****   /* Set chip select Low at the start of the transmission */
1043:Drivers/BSP/STM32F429I-Discovery/stm32f429i_discovery.c ****   GYRO_CS_LOW();
 2324              		.loc 1 1043 0
 2325 001e 1048     		ldr	r0, .L116
 2326 0020 0221     		movs	r1, #2
 2327 0022 0022     		movs	r2, #0
 2328 0024 FFF7FEFF 		bl	HAL_GPIO_WritePin
1044:Drivers/BSP/STM32F429I-Discovery/stm32f429i_discovery.c ****   
1045:Drivers/BSP/STM32F429I-Discovery/stm32f429i_discovery.c ****   /* Send the Address of the indexed register */
1046:Drivers/BSP/STM32F429I-Discovery/stm32f429i_discovery.c ****   SPIx_WriteRead(WriteAddr);
 2329              		.loc 1 1046 0
 2330 0028 FB78     		ldrb	r3, [r7, #3]	@ zero_extendqisi2
 2331 002a 1846     		mov	r0, r3
 2332 002c FFF7FEFF 		bl	SPIx_WriteRead
1047:Drivers/BSP/STM32F429I-Discovery/stm32f429i_discovery.c ****   
1048:Drivers/BSP/STM32F429I-Discovery/stm32f429i_discovery.c ****   /* Send the data that will be written into the device (MSB First) */
1049:Drivers/BSP/STM32F429I-Discovery/stm32f429i_discovery.c ****   while(NumByteToWrite >= 0x01)
 2333              		.loc 1 1049 0
 2334 0030 0AE0     		b	.L114
 2335              	.L115:
1050:Drivers/BSP/STM32F429I-Discovery/stm32f429i_discovery.c ****   {
1051:Drivers/BSP/STM32F429I-Discovery/stm32f429i_discovery.c ****     SPIx_WriteRead(*pBuffer);
 2336              		.loc 1 1051 0
 2337 0032 7B68     		ldr	r3, [r7, #4]
 2338 0034 1B78     		ldrb	r3, [r3]	@ zero_extendqisi2
ARM GAS  /tmp/ccoTsclT.s 			page 59


 2339 0036 1846     		mov	r0, r3
 2340 0038 FFF7FEFF 		bl	SPIx_WriteRead
1052:Drivers/BSP/STM32F429I-Discovery/stm32f429i_discovery.c ****     NumByteToWrite--;
 2341              		.loc 1 1052 0
 2342 003c 3B88     		ldrh	r3, [r7]
 2343 003e 013B     		subs	r3, r3, #1
 2344 0040 3B80     		strh	r3, [r7]	@ movhi
1053:Drivers/BSP/STM32F429I-Discovery/stm32f429i_discovery.c ****     pBuffer++;
 2345              		.loc 1 1053 0
 2346 0042 7B68     		ldr	r3, [r7, #4]
 2347 0044 0133     		adds	r3, r3, #1
 2348 0046 7B60     		str	r3, [r7, #4]
 2349              	.L114:
1049:Drivers/BSP/STM32F429I-Discovery/stm32f429i_discovery.c ****   {
 2350              		.loc 1 1049 0 discriminator 1
 2351 0048 3B88     		ldrh	r3, [r7]
 2352 004a 002B     		cmp	r3, #0
 2353 004c F1D1     		bne	.L115
1054:Drivers/BSP/STM32F429I-Discovery/stm32f429i_discovery.c ****   }
1055:Drivers/BSP/STM32F429I-Discovery/stm32f429i_discovery.c ****   
1056:Drivers/BSP/STM32F429I-Discovery/stm32f429i_discovery.c ****   /* Set chip select High at the end of the transmission */ 
1057:Drivers/BSP/STM32F429I-Discovery/stm32f429i_discovery.c ****   GYRO_CS_HIGH();
 2354              		.loc 1 1057 0
 2355 004e 0448     		ldr	r0, .L116
 2356 0050 0221     		movs	r1, #2
 2357 0052 0122     		movs	r2, #1
 2358 0054 FFF7FEFF 		bl	HAL_GPIO_WritePin
1058:Drivers/BSP/STM32F429I-Discovery/stm32f429i_discovery.c **** }
 2359              		.loc 1 1058 0
 2360 0058 0837     		adds	r7, r7, #8
 2361 005a BD46     		mov	sp, r7
 2362              		@ sp needed
 2363 005c 80BD     		pop	{r7, pc}
 2364              	.L117:
 2365 005e 00BF     		.align	2
 2366              	.L116:
 2367 0060 00080240 		.word	1073874944
 2368              		.cfi_endproc
 2369              	.LFE159:
 2371              		.section	.text.GYRO_IO_Read,"ax",%progbits
 2372              		.align	2
 2373              		.global	GYRO_IO_Read
 2374              		.thumb
 2375              		.thumb_func
 2377              	GYRO_IO_Read:
 2378              	.LFB160:
1059:Drivers/BSP/STM32F429I-Discovery/stm32f429i_discovery.c **** 
1060:Drivers/BSP/STM32F429I-Discovery/stm32f429i_discovery.c **** /**
1061:Drivers/BSP/STM32F429I-Discovery/stm32f429i_discovery.c ****   * @brief  Reads a block of data from the Gyroscope.
1062:Drivers/BSP/STM32F429I-Discovery/stm32f429i_discovery.c ****   * @param  pBuffer: Pointer to the buffer that receives the data read from the Gyroscope.
1063:Drivers/BSP/STM32F429I-Discovery/stm32f429i_discovery.c ****   * @param  ReadAddr: Gyroscope's internal address to read from.
1064:Drivers/BSP/STM32F429I-Discovery/stm32f429i_discovery.c ****   * @param  NumByteToRead: Number of bytes to read from the Gyroscope.
1065:Drivers/BSP/STM32F429I-Discovery/stm32f429i_discovery.c ****   * @retval None
1066:Drivers/BSP/STM32F429I-Discovery/stm32f429i_discovery.c ****   */
1067:Drivers/BSP/STM32F429I-Discovery/stm32f429i_discovery.c **** void GYRO_IO_Read(uint8_t* pBuffer, uint8_t ReadAddr, uint16_t NumByteToRead)
1068:Drivers/BSP/STM32F429I-Discovery/stm32f429i_discovery.c **** {  
 2379              		.loc 1 1068 0
ARM GAS  /tmp/ccoTsclT.s 			page 60


 2380              		.cfi_startproc
 2381              		@ args = 0, pretend = 0, frame = 8
 2382              		@ frame_needed = 1, uses_anonymous_args = 0
 2383 0000 80B5     		push	{r7, lr}
 2384              	.LCFI98:
 2385              		.cfi_def_cfa_offset 8
 2386              		.cfi_offset 7, -8
 2387              		.cfi_offset 14, -4
 2388 0002 82B0     		sub	sp, sp, #8
 2389              	.LCFI99:
 2390              		.cfi_def_cfa_offset 16
 2391 0004 00AF     		add	r7, sp, #0
 2392              	.LCFI100:
 2393              		.cfi_def_cfa_register 7
 2394 0006 7860     		str	r0, [r7, #4]
 2395 0008 1346     		mov	r3, r2
 2396 000a 0A46     		mov	r2, r1
 2397 000c FA70     		strb	r2, [r7, #3]
 2398 000e 3B80     		strh	r3, [r7]	@ movhi
1069:Drivers/BSP/STM32F429I-Discovery/stm32f429i_discovery.c ****   if(NumByteToRead > 0x01)
 2399              		.loc 1 1069 0
 2400 0010 3B88     		ldrh	r3, [r7]
 2401 0012 012B     		cmp	r3, #1
 2402 0014 04D9     		bls	.L119
1070:Drivers/BSP/STM32F429I-Discovery/stm32f429i_discovery.c ****   {
1071:Drivers/BSP/STM32F429I-Discovery/stm32f429i_discovery.c ****     ReadAddr |= (uint8_t)(READWRITE_CMD | MULTIPLEBYTE_CMD);
 2403              		.loc 1 1071 0
 2404 0016 FB78     		ldrb	r3, [r7, #3]
 2405 0018 63F03F03 		orn	r3, r3, #63
 2406 001c FB70     		strb	r3, [r7, #3]
 2407 001e 03E0     		b	.L120
 2408              	.L119:
1072:Drivers/BSP/STM32F429I-Discovery/stm32f429i_discovery.c ****   }
1073:Drivers/BSP/STM32F429I-Discovery/stm32f429i_discovery.c ****   else
1074:Drivers/BSP/STM32F429I-Discovery/stm32f429i_discovery.c ****   {
1075:Drivers/BSP/STM32F429I-Discovery/stm32f429i_discovery.c ****     ReadAddr |= (uint8_t)READWRITE_CMD;
 2409              		.loc 1 1075 0
 2410 0020 FB78     		ldrb	r3, [r7, #3]
 2411 0022 63F07F03 		orn	r3, r3, #127
 2412 0026 FB70     		strb	r3, [r7, #3]
 2413              	.L120:
1076:Drivers/BSP/STM32F429I-Discovery/stm32f429i_discovery.c ****   }
1077:Drivers/BSP/STM32F429I-Discovery/stm32f429i_discovery.c ****   /* Set chip select Low at the start of the transmission */
1078:Drivers/BSP/STM32F429I-Discovery/stm32f429i_discovery.c ****   GYRO_CS_LOW();
 2414              		.loc 1 1078 0
 2415 0028 1048     		ldr	r0, .L123
 2416 002a 0221     		movs	r1, #2
 2417 002c 0022     		movs	r2, #0
 2418 002e FFF7FEFF 		bl	HAL_GPIO_WritePin
1079:Drivers/BSP/STM32F429I-Discovery/stm32f429i_discovery.c ****   
1080:Drivers/BSP/STM32F429I-Discovery/stm32f429i_discovery.c ****   /* Send the Address of the indexed register */
1081:Drivers/BSP/STM32F429I-Discovery/stm32f429i_discovery.c ****   SPIx_WriteRead(ReadAddr);
 2419              		.loc 1 1081 0
 2420 0032 FB78     		ldrb	r3, [r7, #3]	@ zero_extendqisi2
 2421 0034 1846     		mov	r0, r3
 2422 0036 FFF7FEFF 		bl	SPIx_WriteRead
1082:Drivers/BSP/STM32F429I-Discovery/stm32f429i_discovery.c ****   
ARM GAS  /tmp/ccoTsclT.s 			page 61


1083:Drivers/BSP/STM32F429I-Discovery/stm32f429i_discovery.c ****   /* Receive the data that will be read from the device (MSB First) */
1084:Drivers/BSP/STM32F429I-Discovery/stm32f429i_discovery.c ****   while(NumByteToRead > 0x00)
 2423              		.loc 1 1084 0
 2424 003a 0CE0     		b	.L121
 2425              	.L122:
1085:Drivers/BSP/STM32F429I-Discovery/stm32f429i_discovery.c ****   {
1086:Drivers/BSP/STM32F429I-Discovery/stm32f429i_discovery.c ****     /* Send dummy byte (0x00) to generate the SPI clock to Gyroscope (Slave device) */
1087:Drivers/BSP/STM32F429I-Discovery/stm32f429i_discovery.c ****     *pBuffer = SPIx_WriteRead(DUMMY_BYTE);
 2426              		.loc 1 1087 0
 2427 003c 0020     		movs	r0, #0
 2428 003e FFF7FEFF 		bl	SPIx_WriteRead
 2429 0042 0346     		mov	r3, r0
 2430 0044 1A46     		mov	r2, r3
 2431 0046 7B68     		ldr	r3, [r7, #4]
 2432 0048 1A70     		strb	r2, [r3]
1088:Drivers/BSP/STM32F429I-Discovery/stm32f429i_discovery.c ****     NumByteToRead--;
 2433              		.loc 1 1088 0
 2434 004a 3B88     		ldrh	r3, [r7]
 2435 004c 013B     		subs	r3, r3, #1
 2436 004e 3B80     		strh	r3, [r7]	@ movhi
1089:Drivers/BSP/STM32F429I-Discovery/stm32f429i_discovery.c ****     pBuffer++;
 2437              		.loc 1 1089 0
 2438 0050 7B68     		ldr	r3, [r7, #4]
 2439 0052 0133     		adds	r3, r3, #1
 2440 0054 7B60     		str	r3, [r7, #4]
 2441              	.L121:
1084:Drivers/BSP/STM32F429I-Discovery/stm32f429i_discovery.c ****   {
 2442              		.loc 1 1084 0 discriminator 1
 2443 0056 3B88     		ldrh	r3, [r7]
 2444 0058 002B     		cmp	r3, #0
 2445 005a EFD1     		bne	.L122
1090:Drivers/BSP/STM32F429I-Discovery/stm32f429i_discovery.c ****   }
1091:Drivers/BSP/STM32F429I-Discovery/stm32f429i_discovery.c ****   
1092:Drivers/BSP/STM32F429I-Discovery/stm32f429i_discovery.c ****   /* Set chip select High at the end of the transmission */ 
1093:Drivers/BSP/STM32F429I-Discovery/stm32f429i_discovery.c ****   GYRO_CS_HIGH();
 2446              		.loc 1 1093 0
 2447 005c 0348     		ldr	r0, .L123
 2448 005e 0221     		movs	r1, #2
 2449 0060 0122     		movs	r2, #1
 2450 0062 FFF7FEFF 		bl	HAL_GPIO_WritePin
1094:Drivers/BSP/STM32F429I-Discovery/stm32f429i_discovery.c **** }  
 2451              		.loc 1 1094 0
 2452 0066 0837     		adds	r7, r7, #8
 2453 0068 BD46     		mov	sp, r7
 2454              		@ sp needed
 2455 006a 80BD     		pop	{r7, pc}
 2456              	.L124:
 2457              		.align	2
 2458              	.L123:
 2459 006c 00080240 		.word	1073874944
 2460              		.cfi_endproc
 2461              	.LFE160:
 2463              		.text
 2464              	.Letext0:
 2465              		.file 2 "Drivers/CMSIS/Device/ST/STM32F4xx/Include/stm32f429xx.h"
 2466              		.file 3 "/usr/include/newlib/machine/_default_types.h"
 2467              		.file 4 "/usr/include/newlib/stdint.h"
ARM GAS  /tmp/ccoTsclT.s 			page 62


 2468              		.file 5 "Drivers/STM32F4xx_HAL_Driver/Inc/stm32f4xx_hal_def.h"
 2469              		.file 6 "Drivers/STM32F4xx_HAL_Driver/Inc/stm32f4xx_hal_gpio.h"
 2470              		.file 7 "Drivers/STM32F4xx_HAL_Driver/Inc/stm32f4xx_hal_dma.h"
 2471              		.file 8 "Drivers/STM32F4xx_HAL_Driver/Inc/stm32f4xx_hal_i2c.h"
 2472              		.file 9 "Drivers/STM32F4xx_HAL_Driver/Inc/stm32f4xx_hal_spi.h"
 2473              		.file 10 "Drivers/BSP/STM32F429I-Discovery/stm32f429i_discovery.h"
 2474              		.file 11 "Drivers/CMSIS/Include/core_cm4.h"
ARM GAS  /tmp/ccoTsclT.s 			page 63

