ARM GAS  /tmp/cc5bMm9J.s 			page 1


   1              		.syntax unified
   2              		.cpu cortex-m4
   3              		.eabi_attribute 27, 3
   4              		.fpu fpv4-sp-d16
   5              		.eabi_attribute 20, 1
   6              		.eabi_attribute 21, 1
   7              		.eabi_attribute 23, 3
   8              		.eabi_attribute 24, 1
   9              		.eabi_attribute 25, 1
  10              		.eabi_attribute 26, 1
  11              		.eabi_attribute 30, 6
  12              		.eabi_attribute 34, 1
  13              		.eabi_attribute 18, 4
  14              		.thumb
  15              		.file	"stm32f4xx_hal_i2c.c"
  16              		.text
  17              	.Ltext0:
  18              		.cfi_sections	.debug_frame
  19              		.section	.text.HAL_I2C_Init,"ax",%progbits
  20              		.align	2
  21              		.global	HAL_I2C_Init
  22              		.thumb
  23              		.thumb_func
  25              	HAL_I2C_Init:
  26              	.LFB125:
  27              		.file 1 "Drivers/STM32F4xx_HAL_Driver/Src/stm32f4xx_hal_i2c.c"
   1:Drivers/STM32F4xx_HAL_Driver/Src/stm32f4xx_hal_i2c.c **** /**
   2:Drivers/STM32F4xx_HAL_Driver/Src/stm32f4xx_hal_i2c.c ****   ******************************************************************************
   3:Drivers/STM32F4xx_HAL_Driver/Src/stm32f4xx_hal_i2c.c ****   * @file    stm32f4xx_hal_i2c.c
   4:Drivers/STM32F4xx_HAL_Driver/Src/stm32f4xx_hal_i2c.c ****   * @author  MCD Application Team
   5:Drivers/STM32F4xx_HAL_Driver/Src/stm32f4xx_hal_i2c.c ****   * @version V1.4.1
   6:Drivers/STM32F4xx_HAL_Driver/Src/stm32f4xx_hal_i2c.c ****   * @date    09-October-2015
   7:Drivers/STM32F4xx_HAL_Driver/Src/stm32f4xx_hal_i2c.c ****   * @brief   I2C HAL module driver.
   8:Drivers/STM32F4xx_HAL_Driver/Src/stm32f4xx_hal_i2c.c ****   *          This file provides firmware functions to manage the following
   9:Drivers/STM32F4xx_HAL_Driver/Src/stm32f4xx_hal_i2c.c ****   *          functionalities of the Inter Integrated Circuit (I2C) peripheral:
  10:Drivers/STM32F4xx_HAL_Driver/Src/stm32f4xx_hal_i2c.c ****   *           + Initialization and de-initialization functions
  11:Drivers/STM32F4xx_HAL_Driver/Src/stm32f4xx_hal_i2c.c ****   *           + IO operation functions
  12:Drivers/STM32F4xx_HAL_Driver/Src/stm32f4xx_hal_i2c.c ****   *           + Peripheral Control functions
  13:Drivers/STM32F4xx_HAL_Driver/Src/stm32f4xx_hal_i2c.c ****   *           + Peripheral State functions
  14:Drivers/STM32F4xx_HAL_Driver/Src/stm32f4xx_hal_i2c.c ****   *
  15:Drivers/STM32F4xx_HAL_Driver/Src/stm32f4xx_hal_i2c.c ****   @verbatim
  16:Drivers/STM32F4xx_HAL_Driver/Src/stm32f4xx_hal_i2c.c ****   ==============================================================================
  17:Drivers/STM32F4xx_HAL_Driver/Src/stm32f4xx_hal_i2c.c ****                         ##### How to use this driver #####
  18:Drivers/STM32F4xx_HAL_Driver/Src/stm32f4xx_hal_i2c.c ****   ==============================================================================
  19:Drivers/STM32F4xx_HAL_Driver/Src/stm32f4xx_hal_i2c.c ****   [..]
  20:Drivers/STM32F4xx_HAL_Driver/Src/stm32f4xx_hal_i2c.c ****     The I2C HAL driver can be used as follows:
  21:Drivers/STM32F4xx_HAL_Driver/Src/stm32f4xx_hal_i2c.c **** 
  22:Drivers/STM32F4xx_HAL_Driver/Src/stm32f4xx_hal_i2c.c ****     (#) Declare a I2C_HandleTypeDef handle structure, for example:
  23:Drivers/STM32F4xx_HAL_Driver/Src/stm32f4xx_hal_i2c.c ****         I2C_HandleTypeDef  hi2c;
  24:Drivers/STM32F4xx_HAL_Driver/Src/stm32f4xx_hal_i2c.c **** 
  25:Drivers/STM32F4xx_HAL_Driver/Src/stm32f4xx_hal_i2c.c ****     (#)Initialize the I2C low level resources by implement the HAL_I2C_MspInit() API:
  26:Drivers/STM32F4xx_HAL_Driver/Src/stm32f4xx_hal_i2c.c ****         (##) Enable the I2Cx interface clock
  27:Drivers/STM32F4xx_HAL_Driver/Src/stm32f4xx_hal_i2c.c ****         (##) I2C pins configuration
  28:Drivers/STM32F4xx_HAL_Driver/Src/stm32f4xx_hal_i2c.c ****             (+++) Enable the clock for the I2C GPIOs
  29:Drivers/STM32F4xx_HAL_Driver/Src/stm32f4xx_hal_i2c.c ****             (+++) Configure I2C pins as alternate function open-drain
  30:Drivers/STM32F4xx_HAL_Driver/Src/stm32f4xx_hal_i2c.c ****         (##) NVIC configuration if you need to use interrupt process
  31:Drivers/STM32F4xx_HAL_Driver/Src/stm32f4xx_hal_i2c.c ****             (+++) Configure the I2Cx interrupt priority
ARM GAS  /tmp/cc5bMm9J.s 			page 2


  32:Drivers/STM32F4xx_HAL_Driver/Src/stm32f4xx_hal_i2c.c ****             (+++) Enable the NVIC I2C IRQ Channel
  33:Drivers/STM32F4xx_HAL_Driver/Src/stm32f4xx_hal_i2c.c ****         (##) DMA Configuration if you need to use DMA process
  34:Drivers/STM32F4xx_HAL_Driver/Src/stm32f4xx_hal_i2c.c ****             (+++) Declare a DMA_HandleTypeDef handle structure for the transmit or receive stream
  35:Drivers/STM32F4xx_HAL_Driver/Src/stm32f4xx_hal_i2c.c ****             (+++) Enable the DMAx interface clock using
  36:Drivers/STM32F4xx_HAL_Driver/Src/stm32f4xx_hal_i2c.c ****             (+++) Configure the DMA handle parameters
  37:Drivers/STM32F4xx_HAL_Driver/Src/stm32f4xx_hal_i2c.c ****             (+++) Configure the DMA Tx or Rx Stream
  38:Drivers/STM32F4xx_HAL_Driver/Src/stm32f4xx_hal_i2c.c ****             (+++) Associate the initialized DMA handle to the hi2c DMA Tx or Rx handle
  39:Drivers/STM32F4xx_HAL_Driver/Src/stm32f4xx_hal_i2c.c ****             (+++) Configure the priority and enable the NVIC for the transfer complete interrupt on
  40:Drivers/STM32F4xx_HAL_Driver/Src/stm32f4xx_hal_i2c.c ****                   the DMA Tx or Rx Stream
  41:Drivers/STM32F4xx_HAL_Driver/Src/stm32f4xx_hal_i2c.c **** 
  42:Drivers/STM32F4xx_HAL_Driver/Src/stm32f4xx_hal_i2c.c ****     (#) Configure the Communication Speed, Duty cycle, Addressing mode, Own Address1,
  43:Drivers/STM32F4xx_HAL_Driver/Src/stm32f4xx_hal_i2c.c ****         Dual Addressing mode, Own Address2, General call and Nostretch mode in the hi2c Init struct
  44:Drivers/STM32F4xx_HAL_Driver/Src/stm32f4xx_hal_i2c.c **** 
  45:Drivers/STM32F4xx_HAL_Driver/Src/stm32f4xx_hal_i2c.c ****     (#) Initialize the I2C registers by calling the HAL_I2C_Init(), configures also the low level H
  46:Drivers/STM32F4xx_HAL_Driver/Src/stm32f4xx_hal_i2c.c ****         (GPIO, CLOCK, NVIC...etc) by calling the customized HAL_I2C_MspInit(&hi2c) API.
  47:Drivers/STM32F4xx_HAL_Driver/Src/stm32f4xx_hal_i2c.c **** 
  48:Drivers/STM32F4xx_HAL_Driver/Src/stm32f4xx_hal_i2c.c ****     (#) To check if target device is ready for communication, use the function HAL_I2C_IsDeviceRead
  49:Drivers/STM32F4xx_HAL_Driver/Src/stm32f4xx_hal_i2c.c **** 
  50:Drivers/STM32F4xx_HAL_Driver/Src/stm32f4xx_hal_i2c.c ****     (#) For I2C IO and IO MEM operations, three operation modes are available within this driver :
  51:Drivers/STM32F4xx_HAL_Driver/Src/stm32f4xx_hal_i2c.c **** 
  52:Drivers/STM32F4xx_HAL_Driver/Src/stm32f4xx_hal_i2c.c ****     *** Polling mode IO operation ***
  53:Drivers/STM32F4xx_HAL_Driver/Src/stm32f4xx_hal_i2c.c ****     =================================
  54:Drivers/STM32F4xx_HAL_Driver/Src/stm32f4xx_hal_i2c.c ****     [..]
  55:Drivers/STM32F4xx_HAL_Driver/Src/stm32f4xx_hal_i2c.c ****       (+) Transmit in master mode an amount of data in blocking mode using HAL_I2C_Master_Transmit(
  56:Drivers/STM32F4xx_HAL_Driver/Src/stm32f4xx_hal_i2c.c ****       (+) Receive in master mode an amount of data in blocking mode using HAL_I2C_Master_Receive()
  57:Drivers/STM32F4xx_HAL_Driver/Src/stm32f4xx_hal_i2c.c ****       (+) Transmit in slave mode an amount of data in blocking mode using HAL_I2C_Slave_Transmit()
  58:Drivers/STM32F4xx_HAL_Driver/Src/stm32f4xx_hal_i2c.c ****       (+) Receive in slave mode an amount of data in blocking mode using HAL_I2C_Slave_Receive()
  59:Drivers/STM32F4xx_HAL_Driver/Src/stm32f4xx_hal_i2c.c **** 
  60:Drivers/STM32F4xx_HAL_Driver/Src/stm32f4xx_hal_i2c.c ****     *** Polling mode IO MEM operation ***
  61:Drivers/STM32F4xx_HAL_Driver/Src/stm32f4xx_hal_i2c.c ****     =====================================
  62:Drivers/STM32F4xx_HAL_Driver/Src/stm32f4xx_hal_i2c.c ****     [..]
  63:Drivers/STM32F4xx_HAL_Driver/Src/stm32f4xx_hal_i2c.c ****       (+) Write an amount of data in blocking mode to a specific memory address using HAL_I2C_Mem_W
  64:Drivers/STM32F4xx_HAL_Driver/Src/stm32f4xx_hal_i2c.c ****       (+) Read an amount of data in blocking mode from a specific memory address using HAL_I2C_Mem_
  65:Drivers/STM32F4xx_HAL_Driver/Src/stm32f4xx_hal_i2c.c **** 
  66:Drivers/STM32F4xx_HAL_Driver/Src/stm32f4xx_hal_i2c.c **** 
  67:Drivers/STM32F4xx_HAL_Driver/Src/stm32f4xx_hal_i2c.c ****     *** Interrupt mode IO operation ***
  68:Drivers/STM32F4xx_HAL_Driver/Src/stm32f4xx_hal_i2c.c ****     ===================================
  69:Drivers/STM32F4xx_HAL_Driver/Src/stm32f4xx_hal_i2c.c ****     [..]
  70:Drivers/STM32F4xx_HAL_Driver/Src/stm32f4xx_hal_i2c.c ****       (+) Transmit in master mode an amount of data in non blocking mode using HAL_I2C_Master_Trans
  71:Drivers/STM32F4xx_HAL_Driver/Src/stm32f4xx_hal_i2c.c ****       (+) At transmission end of transfer HAL_I2C_MasterTxCpltCallback is executed and user can
  72:Drivers/STM32F4xx_HAL_Driver/Src/stm32f4xx_hal_i2c.c ****            add his own code by customization of function pointer HAL_I2C_MasterTxCpltCallback
  73:Drivers/STM32F4xx_HAL_Driver/Src/stm32f4xx_hal_i2c.c ****       (+) Receive in master mode an amount of data in non blocking mode using HAL_I2C_Master_Receiv
  74:Drivers/STM32F4xx_HAL_Driver/Src/stm32f4xx_hal_i2c.c ****       (+) At reception end of transfer HAL_I2C_MasterRxCpltCallback is executed and user can
  75:Drivers/STM32F4xx_HAL_Driver/Src/stm32f4xx_hal_i2c.c ****            add his own code by customization of function pointer HAL_I2C_MasterRxCpltCallback
  76:Drivers/STM32F4xx_HAL_Driver/Src/stm32f4xx_hal_i2c.c ****       (+) Transmit in slave mode an amount of data in non blocking mode using HAL_I2C_Slave_Transmi
  77:Drivers/STM32F4xx_HAL_Driver/Src/stm32f4xx_hal_i2c.c ****       (+) At transmission end of transfer HAL_I2C_SlaveTxCpltCallback is executed and user can
  78:Drivers/STM32F4xx_HAL_Driver/Src/stm32f4xx_hal_i2c.c ****            add his own code by customization of function pointer HAL_I2C_SlaveTxCpltCallback
  79:Drivers/STM32F4xx_HAL_Driver/Src/stm32f4xx_hal_i2c.c ****       (+) Receive in slave mode an amount of data in non blocking mode using HAL_I2C_Slave_Receive_
  80:Drivers/STM32F4xx_HAL_Driver/Src/stm32f4xx_hal_i2c.c ****       (+) At reception end of transfer HAL_I2C_SlaveRxCpltCallback is executed and user can
  81:Drivers/STM32F4xx_HAL_Driver/Src/stm32f4xx_hal_i2c.c ****            add his own code by customization of function pointer HAL_I2C_SlaveRxCpltCallback
  82:Drivers/STM32F4xx_HAL_Driver/Src/stm32f4xx_hal_i2c.c ****       (+) In case of transfer Error, HAL_I2C_ErrorCallback() function is executed and user can
  83:Drivers/STM32F4xx_HAL_Driver/Src/stm32f4xx_hal_i2c.c ****            add his own code by customization of function pointer HAL_I2C_ErrorCallback
  84:Drivers/STM32F4xx_HAL_Driver/Src/stm32f4xx_hal_i2c.c **** 
  85:Drivers/STM32F4xx_HAL_Driver/Src/stm32f4xx_hal_i2c.c ****     *** Interrupt mode IO MEM operation ***
  86:Drivers/STM32F4xx_HAL_Driver/Src/stm32f4xx_hal_i2c.c ****     =======================================
  87:Drivers/STM32F4xx_HAL_Driver/Src/stm32f4xx_hal_i2c.c ****     [..]
  88:Drivers/STM32F4xx_HAL_Driver/Src/stm32f4xx_hal_i2c.c ****       (+) Write an amount of data in no-blocking mode with Interrupt to a specific memory address u
ARM GAS  /tmp/cc5bMm9J.s 			page 3


  89:Drivers/STM32F4xx_HAL_Driver/Src/stm32f4xx_hal_i2c.c ****           HAL_I2C_Mem_Write_IT()
  90:Drivers/STM32F4xx_HAL_Driver/Src/stm32f4xx_hal_i2c.c ****       (+) At MEM end of write transfer HAL_I2C_MemTxCpltCallback is executed and user can
  91:Drivers/STM32F4xx_HAL_Driver/Src/stm32f4xx_hal_i2c.c ****            add his own code by customization of function pointer HAL_I2C_MemTxCpltCallback
  92:Drivers/STM32F4xx_HAL_Driver/Src/stm32f4xx_hal_i2c.c ****       (+) Read an amount of data in no-blocking mode with Interrupt from a specific memory address 
  93:Drivers/STM32F4xx_HAL_Driver/Src/stm32f4xx_hal_i2c.c ****           HAL_I2C_Mem_Read_IT()
  94:Drivers/STM32F4xx_HAL_Driver/Src/stm32f4xx_hal_i2c.c ****       (+) At MEM end of read transfer HAL_I2C_MemRxCpltCallback is executed and user can
  95:Drivers/STM32F4xx_HAL_Driver/Src/stm32f4xx_hal_i2c.c ****            add his own code by customization of function pointer HAL_I2C_MemRxCpltCallback
  96:Drivers/STM32F4xx_HAL_Driver/Src/stm32f4xx_hal_i2c.c ****       (+) In case of transfer Error, HAL_I2C_ErrorCallback() function is executed and user can
  97:Drivers/STM32F4xx_HAL_Driver/Src/stm32f4xx_hal_i2c.c ****            add his own code by customization of function pointer HAL_I2C_ErrorCallback
  98:Drivers/STM32F4xx_HAL_Driver/Src/stm32f4xx_hal_i2c.c **** 
  99:Drivers/STM32F4xx_HAL_Driver/Src/stm32f4xx_hal_i2c.c ****     *** DMA mode IO operation ***
 100:Drivers/STM32F4xx_HAL_Driver/Src/stm32f4xx_hal_i2c.c ****     ==============================
 101:Drivers/STM32F4xx_HAL_Driver/Src/stm32f4xx_hal_i2c.c ****     [..]
 102:Drivers/STM32F4xx_HAL_Driver/Src/stm32f4xx_hal_i2c.c ****       (+) Transmit in master mode an amount of data in non blocking mode (DMA) using
 103:Drivers/STM32F4xx_HAL_Driver/Src/stm32f4xx_hal_i2c.c ****           HAL_I2C_Master_Transmit_DMA()
 104:Drivers/STM32F4xx_HAL_Driver/Src/stm32f4xx_hal_i2c.c ****       (+) At transmission end of transfer HAL_I2C_MasterTxCpltCallback is executed and user can
 105:Drivers/STM32F4xx_HAL_Driver/Src/stm32f4xx_hal_i2c.c ****            add his own code by customization of function pointer HAL_I2C_MasterTxCpltCallback
 106:Drivers/STM32F4xx_HAL_Driver/Src/stm32f4xx_hal_i2c.c ****       (+) Receive in master mode an amount of data in non blocking mode (DMA) using
 107:Drivers/STM32F4xx_HAL_Driver/Src/stm32f4xx_hal_i2c.c ****           HAL_I2C_Master_Receive_DMA()
 108:Drivers/STM32F4xx_HAL_Driver/Src/stm32f4xx_hal_i2c.c ****       (+) At reception end of transfer HAL_I2C_MasterRxCpltCallback is executed and user can
 109:Drivers/STM32F4xx_HAL_Driver/Src/stm32f4xx_hal_i2c.c ****            add his own code by customization of function pointer HAL_I2C_MasterRxCpltCallback
 110:Drivers/STM32F4xx_HAL_Driver/Src/stm32f4xx_hal_i2c.c ****       (+) Transmit in slave mode an amount of data in non blocking mode (DMA) using
 111:Drivers/STM32F4xx_HAL_Driver/Src/stm32f4xx_hal_i2c.c ****           HAL_I2C_Slave_Transmit_DMA()
 112:Drivers/STM32F4xx_HAL_Driver/Src/stm32f4xx_hal_i2c.c ****       (+) At transmission end of transfer HAL_I2C_SlaveTxCpltCallback is executed and user can
 113:Drivers/STM32F4xx_HAL_Driver/Src/stm32f4xx_hal_i2c.c ****            add his own code by customization of function pointer HAL_I2C_SlaveTxCpltCallback
 114:Drivers/STM32F4xx_HAL_Driver/Src/stm32f4xx_hal_i2c.c ****       (+) Receive in slave mode an amount of data in non blocking mode (DMA) using
 115:Drivers/STM32F4xx_HAL_Driver/Src/stm32f4xx_hal_i2c.c ****           HAL_I2C_Slave_Receive_DMA()
 116:Drivers/STM32F4xx_HAL_Driver/Src/stm32f4xx_hal_i2c.c ****       (+) At reception end of transfer HAL_I2C_SlaveRxCpltCallback is executed and user can
 117:Drivers/STM32F4xx_HAL_Driver/Src/stm32f4xx_hal_i2c.c ****            add his own code by customization of function pointer HAL_I2C_SlaveRxCpltCallback
 118:Drivers/STM32F4xx_HAL_Driver/Src/stm32f4xx_hal_i2c.c ****       (+) In case of transfer Error, HAL_I2C_ErrorCallback() function is executed and user can
 119:Drivers/STM32F4xx_HAL_Driver/Src/stm32f4xx_hal_i2c.c ****            add his own code by customization of function pointer HAL_I2C_ErrorCallback
 120:Drivers/STM32F4xx_HAL_Driver/Src/stm32f4xx_hal_i2c.c **** 
 121:Drivers/STM32F4xx_HAL_Driver/Src/stm32f4xx_hal_i2c.c ****     *** DMA mode IO MEM operation ***
 122:Drivers/STM32F4xx_HAL_Driver/Src/stm32f4xx_hal_i2c.c ****     =================================
 123:Drivers/STM32F4xx_HAL_Driver/Src/stm32f4xx_hal_i2c.c ****     [..]
 124:Drivers/STM32F4xx_HAL_Driver/Src/stm32f4xx_hal_i2c.c ****       (+) Write an amount of data in no-blocking mode with DMA to a specific memory address using
 125:Drivers/STM32F4xx_HAL_Driver/Src/stm32f4xx_hal_i2c.c ****           HAL_I2C_Mem_Write_DMA()
 126:Drivers/STM32F4xx_HAL_Driver/Src/stm32f4xx_hal_i2c.c ****       (+) At MEM end of write transfer HAL_I2C_MemTxCpltCallback is executed and user can
 127:Drivers/STM32F4xx_HAL_Driver/Src/stm32f4xx_hal_i2c.c ****            add his own code by customization of function pointer HAL_I2C_MemTxCpltCallback
 128:Drivers/STM32F4xx_HAL_Driver/Src/stm32f4xx_hal_i2c.c ****       (+) Read an amount of data in no-blocking mode with DMA from a specific memory address using
 129:Drivers/STM32F4xx_HAL_Driver/Src/stm32f4xx_hal_i2c.c ****           HAL_I2C_Mem_Read_DMA()
 130:Drivers/STM32F4xx_HAL_Driver/Src/stm32f4xx_hal_i2c.c ****       (+) At MEM end of read transfer HAL_I2C_MemRxCpltCallback is executed and user can
 131:Drivers/STM32F4xx_HAL_Driver/Src/stm32f4xx_hal_i2c.c ****            add his own code by customization of function pointer HAL_I2C_MemRxCpltCallback
 132:Drivers/STM32F4xx_HAL_Driver/Src/stm32f4xx_hal_i2c.c ****       (+) In case of transfer Error, HAL_I2C_ErrorCallback() function is executed and user can
 133:Drivers/STM32F4xx_HAL_Driver/Src/stm32f4xx_hal_i2c.c ****            add his own code by customization of function pointer HAL_I2C_ErrorCallback
 134:Drivers/STM32F4xx_HAL_Driver/Src/stm32f4xx_hal_i2c.c **** 
 135:Drivers/STM32F4xx_HAL_Driver/Src/stm32f4xx_hal_i2c.c **** 
 136:Drivers/STM32F4xx_HAL_Driver/Src/stm32f4xx_hal_i2c.c ****      *** I2C HAL driver macros list ***
 137:Drivers/STM32F4xx_HAL_Driver/Src/stm32f4xx_hal_i2c.c ****      ==================================
 138:Drivers/STM32F4xx_HAL_Driver/Src/stm32f4xx_hal_i2c.c ****      [..]
 139:Drivers/STM32F4xx_HAL_Driver/Src/stm32f4xx_hal_i2c.c ****        Below the list of most used macros in I2C HAL driver.
 140:Drivers/STM32F4xx_HAL_Driver/Src/stm32f4xx_hal_i2c.c **** 
 141:Drivers/STM32F4xx_HAL_Driver/Src/stm32f4xx_hal_i2c.c ****       (+) __HAL_I2C_ENABLE: Enable the I2C peripheral
 142:Drivers/STM32F4xx_HAL_Driver/Src/stm32f4xx_hal_i2c.c ****       (+) __HAL_I2C_DISABLE: Disable the I2C peripheral
 143:Drivers/STM32F4xx_HAL_Driver/Src/stm32f4xx_hal_i2c.c ****       (+) __HAL_I2C_GET_FLAG : Checks whether the specified I2C flag is set or not
 144:Drivers/STM32F4xx_HAL_Driver/Src/stm32f4xx_hal_i2c.c ****       (+) __HAL_I2C_CLEAR_FLAG : Clear the specified I2C pending flag
 145:Drivers/STM32F4xx_HAL_Driver/Src/stm32f4xx_hal_i2c.c ****       (+) __HAL_I2C_ENABLE_IT: Enable the specified I2C interrupt
ARM GAS  /tmp/cc5bMm9J.s 			page 4


 146:Drivers/STM32F4xx_HAL_Driver/Src/stm32f4xx_hal_i2c.c ****       (+) __HAL_I2C_DISABLE_IT: Disable the specified I2C interrupt
 147:Drivers/STM32F4xx_HAL_Driver/Src/stm32f4xx_hal_i2c.c **** 
 148:Drivers/STM32F4xx_HAL_Driver/Src/stm32f4xx_hal_i2c.c ****      [..]
 149:Drivers/STM32F4xx_HAL_Driver/Src/stm32f4xx_hal_i2c.c ****        (@) You can refer to the I2C HAL driver header file for more useful macros
 150:Drivers/STM32F4xx_HAL_Driver/Src/stm32f4xx_hal_i2c.c **** 
 151:Drivers/STM32F4xx_HAL_Driver/Src/stm32f4xx_hal_i2c.c **** 
 152:Drivers/STM32F4xx_HAL_Driver/Src/stm32f4xx_hal_i2c.c ****   @endverbatim
 153:Drivers/STM32F4xx_HAL_Driver/Src/stm32f4xx_hal_i2c.c ****   ******************************************************************************
 154:Drivers/STM32F4xx_HAL_Driver/Src/stm32f4xx_hal_i2c.c ****   * @attention
 155:Drivers/STM32F4xx_HAL_Driver/Src/stm32f4xx_hal_i2c.c ****   *
 156:Drivers/STM32F4xx_HAL_Driver/Src/stm32f4xx_hal_i2c.c ****   * <h2><center>&copy; COPYRIGHT(c) 2015 STMicroelectronics</center></h2>
 157:Drivers/STM32F4xx_HAL_Driver/Src/stm32f4xx_hal_i2c.c ****   *
 158:Drivers/STM32F4xx_HAL_Driver/Src/stm32f4xx_hal_i2c.c ****   * Redistribution and use in source and binary forms, with or without modification,
 159:Drivers/STM32F4xx_HAL_Driver/Src/stm32f4xx_hal_i2c.c ****   * are permitted provided that the following conditions are met:
 160:Drivers/STM32F4xx_HAL_Driver/Src/stm32f4xx_hal_i2c.c ****   *   1. Redistributions of source code must retain the above copyright notice,
 161:Drivers/STM32F4xx_HAL_Driver/Src/stm32f4xx_hal_i2c.c ****   *      this list of conditions and the following disclaimer.
 162:Drivers/STM32F4xx_HAL_Driver/Src/stm32f4xx_hal_i2c.c ****   *   2. Redistributions in binary form must reproduce the above copyright notice,
 163:Drivers/STM32F4xx_HAL_Driver/Src/stm32f4xx_hal_i2c.c ****   *      this list of conditions and the following disclaimer in the documentation
 164:Drivers/STM32F4xx_HAL_Driver/Src/stm32f4xx_hal_i2c.c ****   *      and/or other materials provided with the distribution.
 165:Drivers/STM32F4xx_HAL_Driver/Src/stm32f4xx_hal_i2c.c ****   *   3. Neither the name of STMicroelectronics nor the names of its contributors
 166:Drivers/STM32F4xx_HAL_Driver/Src/stm32f4xx_hal_i2c.c ****   *      may be used to endorse or promote products derived from this software
 167:Drivers/STM32F4xx_HAL_Driver/Src/stm32f4xx_hal_i2c.c ****   *      without specific prior written permission.
 168:Drivers/STM32F4xx_HAL_Driver/Src/stm32f4xx_hal_i2c.c ****   *
 169:Drivers/STM32F4xx_HAL_Driver/Src/stm32f4xx_hal_i2c.c ****   * THIS SOFTWARE IS PROVIDED BY THE COPYRIGHT HOLDERS AND CONTRIBUTORS "AS IS"
 170:Drivers/STM32F4xx_HAL_Driver/Src/stm32f4xx_hal_i2c.c ****   * AND ANY EXPRESS OR IMPLIED WARRANTIES, INCLUDING, BUT NOT LIMITED TO, THE
 171:Drivers/STM32F4xx_HAL_Driver/Src/stm32f4xx_hal_i2c.c ****   * IMPLIED WARRANTIES OF MERCHANTABILITY AND FITNESS FOR A PARTICULAR PURPOSE ARE
 172:Drivers/STM32F4xx_HAL_Driver/Src/stm32f4xx_hal_i2c.c ****   * DISCLAIMED. IN NO EVENT SHALL THE COPYRIGHT HOLDER OR CONTRIBUTORS BE LIABLE
 173:Drivers/STM32F4xx_HAL_Driver/Src/stm32f4xx_hal_i2c.c ****   * FOR ANY DIRECT, INDIRECT, INCIDENTAL, SPECIAL, EXEMPLARY, OR CONSEQUENTIAL
 174:Drivers/STM32F4xx_HAL_Driver/Src/stm32f4xx_hal_i2c.c ****   * DAMAGES (INCLUDING, BUT NOT LIMITED TO, PROCUREMENT OF SUBSTITUTE GOODS OR
 175:Drivers/STM32F4xx_HAL_Driver/Src/stm32f4xx_hal_i2c.c ****   * SERVICES; LOSS OF USE, DATA, OR PROFITS; OR BUSINESS INTERRUPTION) HOWEVER
 176:Drivers/STM32F4xx_HAL_Driver/Src/stm32f4xx_hal_i2c.c ****   * CAUSED AND ON ANY THEORY OF LIABILITY, WHETHER IN CONTRACT, STRICT LIABILITY,
 177:Drivers/STM32F4xx_HAL_Driver/Src/stm32f4xx_hal_i2c.c ****   * OR TORT (INCLUDING NEGLIGENCE OR OTHERWISE) ARISING IN ANY WAY OUT OF THE USE
 178:Drivers/STM32F4xx_HAL_Driver/Src/stm32f4xx_hal_i2c.c ****   * OF THIS SOFTWARE, EVEN IF ADVISED OF THE POSSIBILITY OF SUCH DAMAGE.
 179:Drivers/STM32F4xx_HAL_Driver/Src/stm32f4xx_hal_i2c.c ****   *
 180:Drivers/STM32F4xx_HAL_Driver/Src/stm32f4xx_hal_i2c.c ****   ******************************************************************************
 181:Drivers/STM32F4xx_HAL_Driver/Src/stm32f4xx_hal_i2c.c ****   */
 182:Drivers/STM32F4xx_HAL_Driver/Src/stm32f4xx_hal_i2c.c **** 
 183:Drivers/STM32F4xx_HAL_Driver/Src/stm32f4xx_hal_i2c.c **** /* Includes ------------------------------------------------------------------*/
 184:Drivers/STM32F4xx_HAL_Driver/Src/stm32f4xx_hal_i2c.c **** #include "stm32f4xx_hal.h"
 185:Drivers/STM32F4xx_HAL_Driver/Src/stm32f4xx_hal_i2c.c **** 
 186:Drivers/STM32F4xx_HAL_Driver/Src/stm32f4xx_hal_i2c.c **** /** @addtogroup STM32F4xx_HAL_Driver
 187:Drivers/STM32F4xx_HAL_Driver/Src/stm32f4xx_hal_i2c.c ****   * @{
 188:Drivers/STM32F4xx_HAL_Driver/Src/stm32f4xx_hal_i2c.c ****   */
 189:Drivers/STM32F4xx_HAL_Driver/Src/stm32f4xx_hal_i2c.c **** 
 190:Drivers/STM32F4xx_HAL_Driver/Src/stm32f4xx_hal_i2c.c **** /** @defgroup I2C I2C
 191:Drivers/STM32F4xx_HAL_Driver/Src/stm32f4xx_hal_i2c.c ****   * @brief I2C HAL module driver
 192:Drivers/STM32F4xx_HAL_Driver/Src/stm32f4xx_hal_i2c.c ****   * @{
 193:Drivers/STM32F4xx_HAL_Driver/Src/stm32f4xx_hal_i2c.c ****   */
 194:Drivers/STM32F4xx_HAL_Driver/Src/stm32f4xx_hal_i2c.c **** 
 195:Drivers/STM32F4xx_HAL_Driver/Src/stm32f4xx_hal_i2c.c **** #ifdef HAL_I2C_MODULE_ENABLED
 196:Drivers/STM32F4xx_HAL_Driver/Src/stm32f4xx_hal_i2c.c **** 
 197:Drivers/STM32F4xx_HAL_Driver/Src/stm32f4xx_hal_i2c.c **** /* Private typedef -----------------------------------------------------------*/
 198:Drivers/STM32F4xx_HAL_Driver/Src/stm32f4xx_hal_i2c.c **** /* Private define ------------------------------------------------------------*/
 199:Drivers/STM32F4xx_HAL_Driver/Src/stm32f4xx_hal_i2c.c **** /** @addtogroup I2C_Private_Constants
 200:Drivers/STM32F4xx_HAL_Driver/Src/stm32f4xx_hal_i2c.c ****   * @{
 201:Drivers/STM32F4xx_HAL_Driver/Src/stm32f4xx_hal_i2c.c ****   */    
 202:Drivers/STM32F4xx_HAL_Driver/Src/stm32f4xx_hal_i2c.c **** #define I2C_TIMEOUT_FLAG          ((uint32_t)35)     /* 35 ms */
ARM GAS  /tmp/cc5bMm9J.s 			page 5


 203:Drivers/STM32F4xx_HAL_Driver/Src/stm32f4xx_hal_i2c.c **** #define I2C_TIMEOUT_ADDR_SLAVE    ((uint32_t)10000)  /* 10 s  */
 204:Drivers/STM32F4xx_HAL_Driver/Src/stm32f4xx_hal_i2c.c **** #define I2C_TIMEOUT_BUSY_FLAG     ((uint32_t)10000)  /* 10 s  */
 205:Drivers/STM32F4xx_HAL_Driver/Src/stm32f4xx_hal_i2c.c **** /**
 206:Drivers/STM32F4xx_HAL_Driver/Src/stm32f4xx_hal_i2c.c ****   * @}
 207:Drivers/STM32F4xx_HAL_Driver/Src/stm32f4xx_hal_i2c.c ****   */
 208:Drivers/STM32F4xx_HAL_Driver/Src/stm32f4xx_hal_i2c.c **** 
 209:Drivers/STM32F4xx_HAL_Driver/Src/stm32f4xx_hal_i2c.c **** /* Private macro -------------------------------------------------------------*/
 210:Drivers/STM32F4xx_HAL_Driver/Src/stm32f4xx_hal_i2c.c **** /* Private variables ---------------------------------------------------------*/
 211:Drivers/STM32F4xx_HAL_Driver/Src/stm32f4xx_hal_i2c.c **** /* Private function prototypes -----------------------------------------------*/
 212:Drivers/STM32F4xx_HAL_Driver/Src/stm32f4xx_hal_i2c.c **** /** @addtogroup I2C_Private_Functions
 213:Drivers/STM32F4xx_HAL_Driver/Src/stm32f4xx_hal_i2c.c ****   * @{
 214:Drivers/STM32F4xx_HAL_Driver/Src/stm32f4xx_hal_i2c.c ****   */
 215:Drivers/STM32F4xx_HAL_Driver/Src/stm32f4xx_hal_i2c.c **** static void I2C_DMAMasterTransmitCplt(DMA_HandleTypeDef *hdma);
 216:Drivers/STM32F4xx_HAL_Driver/Src/stm32f4xx_hal_i2c.c **** static void I2C_DMAMasterReceiveCplt(DMA_HandleTypeDef *hdma);
 217:Drivers/STM32F4xx_HAL_Driver/Src/stm32f4xx_hal_i2c.c **** static void I2C_DMASlaveTransmitCplt(DMA_HandleTypeDef *hdma);
 218:Drivers/STM32F4xx_HAL_Driver/Src/stm32f4xx_hal_i2c.c **** static void I2C_DMASlaveReceiveCplt(DMA_HandleTypeDef *hdma);
 219:Drivers/STM32F4xx_HAL_Driver/Src/stm32f4xx_hal_i2c.c **** static void I2C_DMAMemTransmitCplt(DMA_HandleTypeDef *hdma);
 220:Drivers/STM32F4xx_HAL_Driver/Src/stm32f4xx_hal_i2c.c **** static void I2C_DMAMemReceiveCplt(DMA_HandleTypeDef *hdma);
 221:Drivers/STM32F4xx_HAL_Driver/Src/stm32f4xx_hal_i2c.c **** static void I2C_DMAError(DMA_HandleTypeDef *hdma);
 222:Drivers/STM32F4xx_HAL_Driver/Src/stm32f4xx_hal_i2c.c **** 
 223:Drivers/STM32F4xx_HAL_Driver/Src/stm32f4xx_hal_i2c.c **** static HAL_StatusTypeDef I2C_MasterRequestWrite(I2C_HandleTypeDef *hi2c, uint16_t DevAddress, uint3
 224:Drivers/STM32F4xx_HAL_Driver/Src/stm32f4xx_hal_i2c.c **** static HAL_StatusTypeDef I2C_MasterRequestRead(I2C_HandleTypeDef *hi2c, uint16_t DevAddress, uint32
 225:Drivers/STM32F4xx_HAL_Driver/Src/stm32f4xx_hal_i2c.c **** static HAL_StatusTypeDef I2C_RequestMemoryWrite(I2C_HandleTypeDef *hi2c, uint16_t DevAddress, uint1
 226:Drivers/STM32F4xx_HAL_Driver/Src/stm32f4xx_hal_i2c.c **** static HAL_StatusTypeDef I2C_RequestMemoryRead(I2C_HandleTypeDef *hi2c, uint16_t DevAddress, uint16
 227:Drivers/STM32F4xx_HAL_Driver/Src/stm32f4xx_hal_i2c.c **** static HAL_StatusTypeDef I2C_WaitOnFlagUntilTimeout(I2C_HandleTypeDef *hi2c, uint32_t Flag, FlagSta
 228:Drivers/STM32F4xx_HAL_Driver/Src/stm32f4xx_hal_i2c.c **** static HAL_StatusTypeDef I2C_WaitOnMasterAddressFlagUntilTimeout(I2C_HandleTypeDef *hi2c, uint32_t 
 229:Drivers/STM32F4xx_HAL_Driver/Src/stm32f4xx_hal_i2c.c **** 
 230:Drivers/STM32F4xx_HAL_Driver/Src/stm32f4xx_hal_i2c.c **** static HAL_StatusTypeDef I2C_MasterTransmit_TXE(I2C_HandleTypeDef *hi2c);
 231:Drivers/STM32F4xx_HAL_Driver/Src/stm32f4xx_hal_i2c.c **** static HAL_StatusTypeDef I2C_MasterTransmit_BTF(I2C_HandleTypeDef *hi2c);
 232:Drivers/STM32F4xx_HAL_Driver/Src/stm32f4xx_hal_i2c.c **** static HAL_StatusTypeDef I2C_MasterReceive_RXNE(I2C_HandleTypeDef *hi2c);
 233:Drivers/STM32F4xx_HAL_Driver/Src/stm32f4xx_hal_i2c.c **** static HAL_StatusTypeDef I2C_MasterReceive_BTF(I2C_HandleTypeDef *hi2c);
 234:Drivers/STM32F4xx_HAL_Driver/Src/stm32f4xx_hal_i2c.c **** 
 235:Drivers/STM32F4xx_HAL_Driver/Src/stm32f4xx_hal_i2c.c **** static HAL_StatusTypeDef I2C_SlaveTransmit_TXE(I2C_HandleTypeDef *hi2c);
 236:Drivers/STM32F4xx_HAL_Driver/Src/stm32f4xx_hal_i2c.c **** static HAL_StatusTypeDef I2C_SlaveTransmit_BTF(I2C_HandleTypeDef *hi2c);
 237:Drivers/STM32F4xx_HAL_Driver/Src/stm32f4xx_hal_i2c.c **** static HAL_StatusTypeDef I2C_SlaveReceive_RXNE(I2C_HandleTypeDef *hi2c);
 238:Drivers/STM32F4xx_HAL_Driver/Src/stm32f4xx_hal_i2c.c **** static HAL_StatusTypeDef I2C_SlaveReceive_BTF(I2C_HandleTypeDef *hi2c);
 239:Drivers/STM32F4xx_HAL_Driver/Src/stm32f4xx_hal_i2c.c **** static HAL_StatusTypeDef I2C_Slave_ADDR(I2C_HandleTypeDef *hi2c);
 240:Drivers/STM32F4xx_HAL_Driver/Src/stm32f4xx_hal_i2c.c **** static HAL_StatusTypeDef I2C_Slave_STOPF(I2C_HandleTypeDef *hi2c);
 241:Drivers/STM32F4xx_HAL_Driver/Src/stm32f4xx_hal_i2c.c **** static HAL_StatusTypeDef I2C_Slave_AF(I2C_HandleTypeDef *hi2c);
 242:Drivers/STM32F4xx_HAL_Driver/Src/stm32f4xx_hal_i2c.c **** /**
 243:Drivers/STM32F4xx_HAL_Driver/Src/stm32f4xx_hal_i2c.c ****   * @}
 244:Drivers/STM32F4xx_HAL_Driver/Src/stm32f4xx_hal_i2c.c ****   */
 245:Drivers/STM32F4xx_HAL_Driver/Src/stm32f4xx_hal_i2c.c **** 
 246:Drivers/STM32F4xx_HAL_Driver/Src/stm32f4xx_hal_i2c.c **** /* Exported functions --------------------------------------------------------*/
 247:Drivers/STM32F4xx_HAL_Driver/Src/stm32f4xx_hal_i2c.c **** /** @defgroup I2C_Exported_Functions I2C Exported Functions
 248:Drivers/STM32F4xx_HAL_Driver/Src/stm32f4xx_hal_i2c.c ****   * @{
 249:Drivers/STM32F4xx_HAL_Driver/Src/stm32f4xx_hal_i2c.c ****   */
 250:Drivers/STM32F4xx_HAL_Driver/Src/stm32f4xx_hal_i2c.c **** 
 251:Drivers/STM32F4xx_HAL_Driver/Src/stm32f4xx_hal_i2c.c **** /** @defgroup I2C_Exported_Functions_Group1 Initialization and de-initialization functions
 252:Drivers/STM32F4xx_HAL_Driver/Src/stm32f4xx_hal_i2c.c ****  *  @brief    Initialization and Configuration functions
 253:Drivers/STM32F4xx_HAL_Driver/Src/stm32f4xx_hal_i2c.c ****  *
 254:Drivers/STM32F4xx_HAL_Driver/Src/stm32f4xx_hal_i2c.c **** @verbatim
 255:Drivers/STM32F4xx_HAL_Driver/Src/stm32f4xx_hal_i2c.c ****  ===============================================================================
 256:Drivers/STM32F4xx_HAL_Driver/Src/stm32f4xx_hal_i2c.c ****               ##### Initialization and de-initialization functions #####
 257:Drivers/STM32F4xx_HAL_Driver/Src/stm32f4xx_hal_i2c.c ****  ===============================================================================
 258:Drivers/STM32F4xx_HAL_Driver/Src/stm32f4xx_hal_i2c.c ****     [..]  This subsection provides a set of functions allowing to initialize and
 259:Drivers/STM32F4xx_HAL_Driver/Src/stm32f4xx_hal_i2c.c ****           de-initialize the I2Cx peripheral:
ARM GAS  /tmp/cc5bMm9J.s 			page 6


 260:Drivers/STM32F4xx_HAL_Driver/Src/stm32f4xx_hal_i2c.c **** 
 261:Drivers/STM32F4xx_HAL_Driver/Src/stm32f4xx_hal_i2c.c ****       (+) User must Implement HAL_I2C_MspInit() function in which he configures
 262:Drivers/STM32F4xx_HAL_Driver/Src/stm32f4xx_hal_i2c.c ****           all related peripherals resources (CLOCK, GPIO, DMA, IT and NVIC).
 263:Drivers/STM32F4xx_HAL_Driver/Src/stm32f4xx_hal_i2c.c **** 
 264:Drivers/STM32F4xx_HAL_Driver/Src/stm32f4xx_hal_i2c.c ****       (+) Call the function HAL_I2C_Init() to configure the selected device with
 265:Drivers/STM32F4xx_HAL_Driver/Src/stm32f4xx_hal_i2c.c ****           the selected configuration:
 266:Drivers/STM32F4xx_HAL_Driver/Src/stm32f4xx_hal_i2c.c ****         (++) Communication Speed
 267:Drivers/STM32F4xx_HAL_Driver/Src/stm32f4xx_hal_i2c.c ****         (++) Duty cycle
 268:Drivers/STM32F4xx_HAL_Driver/Src/stm32f4xx_hal_i2c.c ****         (++) Addressing mode
 269:Drivers/STM32F4xx_HAL_Driver/Src/stm32f4xx_hal_i2c.c ****         (++) Own Address 1
 270:Drivers/STM32F4xx_HAL_Driver/Src/stm32f4xx_hal_i2c.c ****         (++) Dual Addressing mode
 271:Drivers/STM32F4xx_HAL_Driver/Src/stm32f4xx_hal_i2c.c ****         (++) Own Address 2
 272:Drivers/STM32F4xx_HAL_Driver/Src/stm32f4xx_hal_i2c.c ****         (++) General call mode
 273:Drivers/STM32F4xx_HAL_Driver/Src/stm32f4xx_hal_i2c.c ****         (++) Nostretch mode
 274:Drivers/STM32F4xx_HAL_Driver/Src/stm32f4xx_hal_i2c.c **** 
 275:Drivers/STM32F4xx_HAL_Driver/Src/stm32f4xx_hal_i2c.c ****       (+) Call the function HAL_I2C_DeInit() to restore the default configuration
 276:Drivers/STM32F4xx_HAL_Driver/Src/stm32f4xx_hal_i2c.c ****           of the selected I2Cx peripheral.
 277:Drivers/STM32F4xx_HAL_Driver/Src/stm32f4xx_hal_i2c.c **** 
 278:Drivers/STM32F4xx_HAL_Driver/Src/stm32f4xx_hal_i2c.c **** @endverbatim
 279:Drivers/STM32F4xx_HAL_Driver/Src/stm32f4xx_hal_i2c.c ****   * @{
 280:Drivers/STM32F4xx_HAL_Driver/Src/stm32f4xx_hal_i2c.c ****   */
 281:Drivers/STM32F4xx_HAL_Driver/Src/stm32f4xx_hal_i2c.c **** 
 282:Drivers/STM32F4xx_HAL_Driver/Src/stm32f4xx_hal_i2c.c **** /**
 283:Drivers/STM32F4xx_HAL_Driver/Src/stm32f4xx_hal_i2c.c ****   * @brief  Initializes the I2C according to the specified parameters
 284:Drivers/STM32F4xx_HAL_Driver/Src/stm32f4xx_hal_i2c.c ****   *         in the I2C_InitTypeDef and create the associated handle.
 285:Drivers/STM32F4xx_HAL_Driver/Src/stm32f4xx_hal_i2c.c ****   * @param  hi2c: pointer to a I2C_HandleTypeDef structure that contains
 286:Drivers/STM32F4xx_HAL_Driver/Src/stm32f4xx_hal_i2c.c ****   *         the configuration information for I2C module
 287:Drivers/STM32F4xx_HAL_Driver/Src/stm32f4xx_hal_i2c.c ****   * @retval HAL status
 288:Drivers/STM32F4xx_HAL_Driver/Src/stm32f4xx_hal_i2c.c ****   */
 289:Drivers/STM32F4xx_HAL_Driver/Src/stm32f4xx_hal_i2c.c **** HAL_StatusTypeDef HAL_I2C_Init(I2C_HandleTypeDef *hi2c)
 290:Drivers/STM32F4xx_HAL_Driver/Src/stm32f4xx_hal_i2c.c **** {
  28              		.loc 1 290 0
  29              		.cfi_startproc
  30              		@ args = 0, pretend = 0, frame = 16
  31              		@ frame_needed = 1, uses_anonymous_args = 0
  32 0000 80B5     		push	{r7, lr}
  33              	.LCFI0:
  34              		.cfi_def_cfa_offset 8
  35              		.cfi_offset 7, -8
  36              		.cfi_offset 14, -4
  37 0002 84B0     		sub	sp, sp, #16
  38              	.LCFI1:
  39              		.cfi_def_cfa_offset 24
  40 0004 00AF     		add	r7, sp, #0
  41              	.LCFI2:
  42              		.cfi_def_cfa_register 7
  43 0006 7860     		str	r0, [r7, #4]
 291:Drivers/STM32F4xx_HAL_Driver/Src/stm32f4xx_hal_i2c.c ****   uint32_t freqrange = 0;
  44              		.loc 1 291 0
  45 0008 0023     		movs	r3, #0
  46 000a FB60     		str	r3, [r7, #12]
 292:Drivers/STM32F4xx_HAL_Driver/Src/stm32f4xx_hal_i2c.c ****   uint32_t pclk1 = 0;
  47              		.loc 1 292 0
  48 000c 0023     		movs	r3, #0
  49 000e BB60     		str	r3, [r7, #8]
 293:Drivers/STM32F4xx_HAL_Driver/Src/stm32f4xx_hal_i2c.c **** 
 294:Drivers/STM32F4xx_HAL_Driver/Src/stm32f4xx_hal_i2c.c ****   /* Check the I2C handle allocation */
ARM GAS  /tmp/cc5bMm9J.s 			page 7


 295:Drivers/STM32F4xx_HAL_Driver/Src/stm32f4xx_hal_i2c.c ****   if(hi2c == NULL)
  50              		.loc 1 295 0
  51 0010 7B68     		ldr	r3, [r7, #4]
  52 0012 002B     		cmp	r3, #0
  53 0014 01D1     		bne	.L2
 296:Drivers/STM32F4xx_HAL_Driver/Src/stm32f4xx_hal_i2c.c ****   {
 297:Drivers/STM32F4xx_HAL_Driver/Src/stm32f4xx_hal_i2c.c ****     return HAL_ERROR;
  54              		.loc 1 297 0
  55 0016 0123     		movs	r3, #1
  56 0018 C1E0     		b	.L3
  57              	.L2:
 298:Drivers/STM32F4xx_HAL_Driver/Src/stm32f4xx_hal_i2c.c ****   }
 299:Drivers/STM32F4xx_HAL_Driver/Src/stm32f4xx_hal_i2c.c **** 
 300:Drivers/STM32F4xx_HAL_Driver/Src/stm32f4xx_hal_i2c.c ****   /* Check the parameters */
 301:Drivers/STM32F4xx_HAL_Driver/Src/stm32f4xx_hal_i2c.c ****   assert_param(IS_I2C_ALL_INSTANCE(hi2c->Instance));
 302:Drivers/STM32F4xx_HAL_Driver/Src/stm32f4xx_hal_i2c.c ****   assert_param(IS_I2C_CLOCK_SPEED(hi2c->Init.ClockSpeed));
 303:Drivers/STM32F4xx_HAL_Driver/Src/stm32f4xx_hal_i2c.c ****   assert_param(IS_I2C_DUTY_CYCLE(hi2c->Init.DutyCycle));
 304:Drivers/STM32F4xx_HAL_Driver/Src/stm32f4xx_hal_i2c.c ****   assert_param(IS_I2C_OWN_ADDRESS1(hi2c->Init.OwnAddress1));
 305:Drivers/STM32F4xx_HAL_Driver/Src/stm32f4xx_hal_i2c.c ****   assert_param(IS_I2C_ADDRESSING_MODE(hi2c->Init.AddressingMode));
 306:Drivers/STM32F4xx_HAL_Driver/Src/stm32f4xx_hal_i2c.c ****   assert_param(IS_I2C_DUAL_ADDRESS(hi2c->Init.DualAddressMode));
 307:Drivers/STM32F4xx_HAL_Driver/Src/stm32f4xx_hal_i2c.c ****   assert_param(IS_I2C_OWN_ADDRESS2(hi2c->Init.OwnAddress2));
 308:Drivers/STM32F4xx_HAL_Driver/Src/stm32f4xx_hal_i2c.c ****   assert_param(IS_I2C_GENERAL_CALL(hi2c->Init.GeneralCallMode));
 309:Drivers/STM32F4xx_HAL_Driver/Src/stm32f4xx_hal_i2c.c ****   assert_param(IS_I2C_NO_STRETCH(hi2c->Init.NoStretchMode));
 310:Drivers/STM32F4xx_HAL_Driver/Src/stm32f4xx_hal_i2c.c **** 
 311:Drivers/STM32F4xx_HAL_Driver/Src/stm32f4xx_hal_i2c.c ****   if(hi2c->State == HAL_I2C_STATE_RESET)
  58              		.loc 1 311 0
  59 001a 7B68     		ldr	r3, [r7, #4]
  60 001c 93F83530 		ldrb	r3, [r3, #53]
  61 0020 DBB2     		uxtb	r3, r3
  62 0022 002B     		cmp	r3, #0
  63 0024 06D1     		bne	.L4
 312:Drivers/STM32F4xx_HAL_Driver/Src/stm32f4xx_hal_i2c.c ****   {
 313:Drivers/STM32F4xx_HAL_Driver/Src/stm32f4xx_hal_i2c.c ****     /* Allocate lock resource and initialize it */
 314:Drivers/STM32F4xx_HAL_Driver/Src/stm32f4xx_hal_i2c.c ****     hi2c->Lock = HAL_UNLOCKED;
  64              		.loc 1 314 0
  65 0026 7B68     		ldr	r3, [r7, #4]
  66 0028 0022     		movs	r2, #0
  67 002a 83F83420 		strb	r2, [r3, #52]
 315:Drivers/STM32F4xx_HAL_Driver/Src/stm32f4xx_hal_i2c.c ****     /* Init the low level hardware : GPIO, CLOCK, NVIC */
 316:Drivers/STM32F4xx_HAL_Driver/Src/stm32f4xx_hal_i2c.c ****     HAL_I2C_MspInit(hi2c);
  68              		.loc 1 316 0
  69 002e 7868     		ldr	r0, [r7, #4]
  70 0030 FFF7FEFF 		bl	HAL_I2C_MspInit
  71              	.L4:
 317:Drivers/STM32F4xx_HAL_Driver/Src/stm32f4xx_hal_i2c.c ****   }
 318:Drivers/STM32F4xx_HAL_Driver/Src/stm32f4xx_hal_i2c.c **** 
 319:Drivers/STM32F4xx_HAL_Driver/Src/stm32f4xx_hal_i2c.c ****   hi2c->State = HAL_I2C_STATE_BUSY;
  72              		.loc 1 319 0
  73 0034 7B68     		ldr	r3, [r7, #4]
  74 0036 0222     		movs	r2, #2
  75 0038 83F83520 		strb	r2, [r3, #53]
 320:Drivers/STM32F4xx_HAL_Driver/Src/stm32f4xx_hal_i2c.c **** 
 321:Drivers/STM32F4xx_HAL_Driver/Src/stm32f4xx_hal_i2c.c ****   /* Disable the selected I2C peripheral */
 322:Drivers/STM32F4xx_HAL_Driver/Src/stm32f4xx_hal_i2c.c ****   __HAL_I2C_DISABLE(hi2c);
  76              		.loc 1 322 0
  77 003c 7B68     		ldr	r3, [r7, #4]
  78 003e 1B68     		ldr	r3, [r3]
ARM GAS  /tmp/cc5bMm9J.s 			page 8


  79 0040 7A68     		ldr	r2, [r7, #4]
  80 0042 1268     		ldr	r2, [r2]
  81 0044 1268     		ldr	r2, [r2]
  82 0046 22F00102 		bic	r2, r2, #1
  83 004a 1A60     		str	r2, [r3]
 323:Drivers/STM32F4xx_HAL_Driver/Src/stm32f4xx_hal_i2c.c **** 
 324:Drivers/STM32F4xx_HAL_Driver/Src/stm32f4xx_hal_i2c.c ****   /* Get PCLK1 frequency */
 325:Drivers/STM32F4xx_HAL_Driver/Src/stm32f4xx_hal_i2c.c ****   pclk1 = HAL_RCC_GetPCLK1Freq();
  84              		.loc 1 325 0
  85 004c FFF7FEFF 		bl	HAL_RCC_GetPCLK1Freq
  86 0050 B860     		str	r0, [r7, #8]
 326:Drivers/STM32F4xx_HAL_Driver/Src/stm32f4xx_hal_i2c.c **** 
 327:Drivers/STM32F4xx_HAL_Driver/Src/stm32f4xx_hal_i2c.c ****   /* Calculate frequency range */
 328:Drivers/STM32F4xx_HAL_Driver/Src/stm32f4xx_hal_i2c.c ****   freqrange = I2C_FREQRANGE(pclk1);
  87              		.loc 1 328 0
  88 0052 BA68     		ldr	r2, [r7, #8]
  89 0054 544B     		ldr	r3, .L17
  90 0056 A3FB0203 		umull	r0, r3, r3, r2
  91 005a 9B0C     		lsrs	r3, r3, #18
  92 005c FB60     		str	r3, [r7, #12]
 329:Drivers/STM32F4xx_HAL_Driver/Src/stm32f4xx_hal_i2c.c **** 
 330:Drivers/STM32F4xx_HAL_Driver/Src/stm32f4xx_hal_i2c.c ****   /*---------------------------- I2Cx CR2 Configuration ----------------------*/
 331:Drivers/STM32F4xx_HAL_Driver/Src/stm32f4xx_hal_i2c.c ****   /* Configure I2Cx: Frequency range */
 332:Drivers/STM32F4xx_HAL_Driver/Src/stm32f4xx_hal_i2c.c ****   hi2c->Instance->CR2 = freqrange;
  93              		.loc 1 332 0
  94 005e 7B68     		ldr	r3, [r7, #4]
  95 0060 1B68     		ldr	r3, [r3]
  96 0062 FA68     		ldr	r2, [r7, #12]
  97 0064 5A60     		str	r2, [r3, #4]
 333:Drivers/STM32F4xx_HAL_Driver/Src/stm32f4xx_hal_i2c.c **** 
 334:Drivers/STM32F4xx_HAL_Driver/Src/stm32f4xx_hal_i2c.c ****   /*---------------------------- I2Cx TRISE Configuration --------------------*/
 335:Drivers/STM32F4xx_HAL_Driver/Src/stm32f4xx_hal_i2c.c ****   /* Configure I2Cx: Rise Time */
 336:Drivers/STM32F4xx_HAL_Driver/Src/stm32f4xx_hal_i2c.c ****   hi2c->Instance->TRISE = I2C_RISE_TIME(freqrange, hi2c->Init.ClockSpeed);
  98              		.loc 1 336 0
  99 0066 7B68     		ldr	r3, [r7, #4]
 100 0068 1A68     		ldr	r2, [r3]
 101 006a 7B68     		ldr	r3, [r7, #4]
 102 006c 5968     		ldr	r1, [r3, #4]
 103 006e 4F4B     		ldr	r3, .L17+4
 104 0070 9942     		cmp	r1, r3
 105 0072 02D8     		bhi	.L5
 106              		.loc 1 336 0 is_stmt 0 discriminator 1
 107 0074 FB68     		ldr	r3, [r7, #12]
 108 0076 0133     		adds	r3, r3, #1
 109 0078 09E0     		b	.L6
 110              	.L5:
 111              		.loc 1 336 0 discriminator 2
 112 007a FB68     		ldr	r3, [r7, #12]
 113 007c 4FF49671 		mov	r1, #300
 114 0080 01FB03F1 		mul	r1, r1, r3
 115 0084 4A4B     		ldr	r3, .L17+8
 116 0086 A3FB0103 		umull	r0, r3, r3, r1
 117 008a 9B09     		lsrs	r3, r3, #6
 118 008c 0133     		adds	r3, r3, #1
 119              	.L6:
 120              		.loc 1 336 0 discriminator 3
 121 008e 1362     		str	r3, [r2, #32]
ARM GAS  /tmp/cc5bMm9J.s 			page 9


 337:Drivers/STM32F4xx_HAL_Driver/Src/stm32f4xx_hal_i2c.c **** 
 338:Drivers/STM32F4xx_HAL_Driver/Src/stm32f4xx_hal_i2c.c ****   /*---------------------------- I2Cx CCR Configuration ----------------------*/
 339:Drivers/STM32F4xx_HAL_Driver/Src/stm32f4xx_hal_i2c.c ****   /* Configure I2Cx: Speed */
 340:Drivers/STM32F4xx_HAL_Driver/Src/stm32f4xx_hal_i2c.c ****   hi2c->Instance->CCR = I2C_SPEED(pclk1, hi2c->Init.ClockSpeed, hi2c->Init.DutyCycle);
 122              		.loc 1 340 0 is_stmt 1 discriminator 3
 123 0090 7B68     		ldr	r3, [r7, #4]
 124 0092 1968     		ldr	r1, [r3]
 125 0094 7B68     		ldr	r3, [r7, #4]
 126 0096 5A68     		ldr	r2, [r3, #4]
 127 0098 444B     		ldr	r3, .L17+4
 128 009a 9A42     		cmp	r2, r3
 129 009c 12D8     		bhi	.L7
 130              		.loc 1 340 0 is_stmt 0 discriminator 1
 131 009e 7B68     		ldr	r3, [r7, #4]
 132 00a0 5B68     		ldr	r3, [r3, #4]
 133 00a2 5B00     		lsls	r3, r3, #1
 134 00a4 BA68     		ldr	r2, [r7, #8]
 135 00a6 B2FBF3F3 		udiv	r3, r2, r3
 136 00aa C3F30B03 		ubfx	r3, r3, #0, #12
 137 00ae 032B     		cmp	r3, #3
 138 00b0 06D9     		bls	.L8
 139 00b2 7B68     		ldr	r3, [r7, #4]
 140 00b4 5B68     		ldr	r3, [r3, #4]
 141 00b6 5B00     		lsls	r3, r3, #1
 142 00b8 BA68     		ldr	r2, [r7, #8]
 143 00ba B2FBF3F3 		udiv	r3, r2, r3
 144 00be 45E0     		b	.L10
 145              	.L8:
 146              		.loc 1 340 0 discriminator 2
 147 00c0 0423     		movs	r3, #4
 148 00c2 43E0     		b	.L10
 149              	.L7:
 150 00c4 7B68     		ldr	r3, [r7, #4]
 151 00c6 9B68     		ldr	r3, [r3, #8]
 152 00c8 002B     		cmp	r3, #0
 153 00ca 0FD1     		bne	.L11
 154              		.loc 1 340 0 discriminator 1
 155 00cc 7B68     		ldr	r3, [r7, #4]
 156 00ce 5A68     		ldr	r2, [r3, #4]
 157 00d0 1346     		mov	r3, r2
 158 00d2 5B00     		lsls	r3, r3, #1
 159 00d4 1344     		add	r3, r3, r2
 160 00d6 BA68     		ldr	r2, [r7, #8]
 161 00d8 B2FBF3F3 		udiv	r3, r2, r3
 162 00dc C3F30B03 		ubfx	r3, r3, #0, #12
 163 00e0 002B     		cmp	r3, #0
 164 00e2 14BF     		ite	ne
 165 00e4 0023     		movne	r3, #0
 166 00e6 0123     		moveq	r3, #1
 167 00e8 DBB2     		uxtb	r3, r3
 168 00ea 10E0     		b	.L12
 169              	.L11:
 170              		.loc 1 340 0 discriminator 2
 171 00ec 7B68     		ldr	r3, [r7, #4]
 172 00ee 5A68     		ldr	r2, [r3, #4]
 173 00f0 1346     		mov	r3, r2
 174 00f2 9B00     		lsls	r3, r3, #2
ARM GAS  /tmp/cc5bMm9J.s 			page 10


 175 00f4 1344     		add	r3, r3, r2
 176 00f6 9A00     		lsls	r2, r3, #2
 177 00f8 1344     		add	r3, r3, r2
 178 00fa BA68     		ldr	r2, [r7, #8]
 179 00fc B2FBF3F3 		udiv	r3, r2, r3
 180 0100 C3F30B03 		ubfx	r3, r3, #0, #12
 181 0104 002B     		cmp	r3, #0
 182 0106 14BF     		ite	ne
 183 0108 0023     		movne	r3, #0
 184 010a 0123     		moveq	r3, #1
 185 010c DBB2     		uxtb	r3, r3
 186              	.L12:
 187              		.loc 1 340 0 discriminator 3
 188 010e 002B     		cmp	r3, #0
 189 0110 01D0     		beq	.L13
 190              		.loc 1 340 0 discriminator 1
 191 0112 0123     		movs	r3, #1
 192 0114 1AE0     		b	.L10
 193              	.L13:
 194              		.loc 1 340 0 discriminator 2
 195 0116 7B68     		ldr	r3, [r7, #4]
 196 0118 9B68     		ldr	r3, [r3, #8]
 197 011a 002B     		cmp	r3, #0
 198 011c 0AD1     		bne	.L15
 199              		.loc 1 340 0 discriminator 1
 200 011e 7B68     		ldr	r3, [r7, #4]
 201 0120 5A68     		ldr	r2, [r3, #4]
 202 0122 1346     		mov	r3, r2
 203 0124 5B00     		lsls	r3, r3, #1
 204 0126 1344     		add	r3, r3, r2
 205 0128 BA68     		ldr	r2, [r7, #8]
 206 012a B2FBF3F3 		udiv	r3, r2, r3
 207 012e 43F40043 		orr	r3, r3, #32768
 208 0132 0BE0     		b	.L10
 209              	.L15:
 210              		.loc 1 340 0 discriminator 2
 211 0134 7B68     		ldr	r3, [r7, #4]
 212 0136 5A68     		ldr	r2, [r3, #4]
 213 0138 1346     		mov	r3, r2
 214 013a 9B00     		lsls	r3, r3, #2
 215 013c 1344     		add	r3, r3, r2
 216 013e 9A00     		lsls	r2, r3, #2
 217 0140 1344     		add	r3, r3, r2
 218 0142 BA68     		ldr	r2, [r7, #8]
 219 0144 B2FBF3F3 		udiv	r3, r2, r3
 220 0148 43F44043 		orr	r3, r3, #49152
 221              	.L10:
 222              		.loc 1 340 0 discriminator 3
 223 014c CB61     		str	r3, [r1, #28]
 341:Drivers/STM32F4xx_HAL_Driver/Src/stm32f4xx_hal_i2c.c **** 
 342:Drivers/STM32F4xx_HAL_Driver/Src/stm32f4xx_hal_i2c.c ****   /*---------------------------- I2Cx CR1 Configuration ----------------------*/
 343:Drivers/STM32F4xx_HAL_Driver/Src/stm32f4xx_hal_i2c.c ****   /* Configure I2Cx: Generalcall and NoStretch mode */
 344:Drivers/STM32F4xx_HAL_Driver/Src/stm32f4xx_hal_i2c.c ****   hi2c->Instance->CR1 = (hi2c->Init.GeneralCallMode | hi2c->Init.NoStretchMode);
 224              		.loc 1 344 0 is_stmt 1 discriminator 3
 225 014e 7B68     		ldr	r3, [r7, #4]
 226 0150 1B68     		ldr	r3, [r3]
 227 0152 7A68     		ldr	r2, [r7, #4]
ARM GAS  /tmp/cc5bMm9J.s 			page 11


 228 0154 D169     		ldr	r1, [r2, #28]
 229 0156 7A68     		ldr	r2, [r7, #4]
 230 0158 126A     		ldr	r2, [r2, #32]
 231 015a 0A43     		orrs	r2, r2, r1
 232 015c 1A60     		str	r2, [r3]
 345:Drivers/STM32F4xx_HAL_Driver/Src/stm32f4xx_hal_i2c.c **** 
 346:Drivers/STM32F4xx_HAL_Driver/Src/stm32f4xx_hal_i2c.c ****   /*---------------------------- I2Cx OAR1 Configuration ---------------------*/
 347:Drivers/STM32F4xx_HAL_Driver/Src/stm32f4xx_hal_i2c.c ****   /* Configure I2Cx: Own Address1 and addressing mode */
 348:Drivers/STM32F4xx_HAL_Driver/Src/stm32f4xx_hal_i2c.c ****   hi2c->Instance->OAR1 = (hi2c->Init.AddressingMode | hi2c->Init.OwnAddress1);
 233              		.loc 1 348 0 discriminator 3
 234 015e 7B68     		ldr	r3, [r7, #4]
 235 0160 1B68     		ldr	r3, [r3]
 236 0162 7A68     		ldr	r2, [r7, #4]
 237 0164 1169     		ldr	r1, [r2, #16]
 238 0166 7A68     		ldr	r2, [r7, #4]
 239 0168 D268     		ldr	r2, [r2, #12]
 240 016a 0A43     		orrs	r2, r2, r1
 241 016c 9A60     		str	r2, [r3, #8]
 349:Drivers/STM32F4xx_HAL_Driver/Src/stm32f4xx_hal_i2c.c **** 
 350:Drivers/STM32F4xx_HAL_Driver/Src/stm32f4xx_hal_i2c.c ****   /*---------------------------- I2Cx OAR2 Configuration ---------------------*/
 351:Drivers/STM32F4xx_HAL_Driver/Src/stm32f4xx_hal_i2c.c ****   /* Configure I2Cx: Dual mode and Own Address2 */
 352:Drivers/STM32F4xx_HAL_Driver/Src/stm32f4xx_hal_i2c.c ****   hi2c->Instance->OAR2 = (hi2c->Init.DualAddressMode | hi2c->Init.OwnAddress2);
 242              		.loc 1 352 0 discriminator 3
 243 016e 7B68     		ldr	r3, [r7, #4]
 244 0170 1B68     		ldr	r3, [r3]
 245 0172 7A68     		ldr	r2, [r7, #4]
 246 0174 5169     		ldr	r1, [r2, #20]
 247 0176 7A68     		ldr	r2, [r7, #4]
 248 0178 9269     		ldr	r2, [r2, #24]
 249 017a 0A43     		orrs	r2, r2, r1
 250 017c DA60     		str	r2, [r3, #12]
 353:Drivers/STM32F4xx_HAL_Driver/Src/stm32f4xx_hal_i2c.c **** 
 354:Drivers/STM32F4xx_HAL_Driver/Src/stm32f4xx_hal_i2c.c ****   /* Enable the selected I2C peripheral */
 355:Drivers/STM32F4xx_HAL_Driver/Src/stm32f4xx_hal_i2c.c ****   __HAL_I2C_ENABLE(hi2c);
 251              		.loc 1 355 0 discriminator 3
 252 017e 7B68     		ldr	r3, [r7, #4]
 253 0180 1B68     		ldr	r3, [r3]
 254 0182 7A68     		ldr	r2, [r7, #4]
 255 0184 1268     		ldr	r2, [r2]
 256 0186 1268     		ldr	r2, [r2]
 257 0188 42F00102 		orr	r2, r2, #1
 258 018c 1A60     		str	r2, [r3]
 356:Drivers/STM32F4xx_HAL_Driver/Src/stm32f4xx_hal_i2c.c **** 
 357:Drivers/STM32F4xx_HAL_Driver/Src/stm32f4xx_hal_i2c.c ****   hi2c->ErrorCode = HAL_I2C_ERROR_NONE;
 259              		.loc 1 357 0 discriminator 3
 260 018e 7B68     		ldr	r3, [r7, #4]
 261 0190 0022     		movs	r2, #0
 262 0192 9A63     		str	r2, [r3, #56]
 358:Drivers/STM32F4xx_HAL_Driver/Src/stm32f4xx_hal_i2c.c ****   hi2c->State = HAL_I2C_STATE_READY;
 263              		.loc 1 358 0 discriminator 3
 264 0194 7B68     		ldr	r3, [r7, #4]
 265 0196 0122     		movs	r2, #1
 266 0198 83F83520 		strb	r2, [r3, #53]
 359:Drivers/STM32F4xx_HAL_Driver/Src/stm32f4xx_hal_i2c.c **** 
 360:Drivers/STM32F4xx_HAL_Driver/Src/stm32f4xx_hal_i2c.c ****   return HAL_OK;
 267              		.loc 1 360 0 discriminator 3
 268 019c 0023     		movs	r3, #0
ARM GAS  /tmp/cc5bMm9J.s 			page 12


 269              	.L3:
 361:Drivers/STM32F4xx_HAL_Driver/Src/stm32f4xx_hal_i2c.c **** }
 270              		.loc 1 361 0
 271 019e 1846     		mov	r0, r3
 272 01a0 1037     		adds	r7, r7, #16
 273 01a2 BD46     		mov	sp, r7
 274              		@ sp needed
 275 01a4 80BD     		pop	{r7, pc}
 276              	.L18:
 277 01a6 00BF     		.align	2
 278              	.L17:
 279 01a8 83DE1B43 		.word	1125899907
 280 01ac A0860100 		.word	100000
 281 01b0 D34D6210 		.word	274877907
 282              		.cfi_endproc
 283              	.LFE125:
 285              		.section	.text.HAL_I2C_DeInit,"ax",%progbits
 286              		.align	2
 287              		.global	HAL_I2C_DeInit
 288              		.thumb
 289              		.thumb_func
 291              	HAL_I2C_DeInit:
 292              	.LFB126:
 362:Drivers/STM32F4xx_HAL_Driver/Src/stm32f4xx_hal_i2c.c **** 
 363:Drivers/STM32F4xx_HAL_Driver/Src/stm32f4xx_hal_i2c.c **** /**
 364:Drivers/STM32F4xx_HAL_Driver/Src/stm32f4xx_hal_i2c.c ****   * @brief  DeInitializes the I2C peripheral.
 365:Drivers/STM32F4xx_HAL_Driver/Src/stm32f4xx_hal_i2c.c ****   * @param  hi2c: pointer to a I2C_HandleTypeDef structure that contains
 366:Drivers/STM32F4xx_HAL_Driver/Src/stm32f4xx_hal_i2c.c ****   *         the configuration information for I2C module
 367:Drivers/STM32F4xx_HAL_Driver/Src/stm32f4xx_hal_i2c.c ****   * @retval HAL status
 368:Drivers/STM32F4xx_HAL_Driver/Src/stm32f4xx_hal_i2c.c ****   */
 369:Drivers/STM32F4xx_HAL_Driver/Src/stm32f4xx_hal_i2c.c **** HAL_StatusTypeDef HAL_I2C_DeInit(I2C_HandleTypeDef *hi2c)
 370:Drivers/STM32F4xx_HAL_Driver/Src/stm32f4xx_hal_i2c.c **** {
 293              		.loc 1 370 0
 294              		.cfi_startproc
 295              		@ args = 0, pretend = 0, frame = 8
 296              		@ frame_needed = 1, uses_anonymous_args = 0
 297 0000 80B5     		push	{r7, lr}
 298              	.LCFI3:
 299              		.cfi_def_cfa_offset 8
 300              		.cfi_offset 7, -8
 301              		.cfi_offset 14, -4
 302 0002 82B0     		sub	sp, sp, #8
 303              	.LCFI4:
 304              		.cfi_def_cfa_offset 16
 305 0004 00AF     		add	r7, sp, #0
 306              	.LCFI5:
 307              		.cfi_def_cfa_register 7
 308 0006 7860     		str	r0, [r7, #4]
 371:Drivers/STM32F4xx_HAL_Driver/Src/stm32f4xx_hal_i2c.c ****   /* Check the I2C handle allocation */
 372:Drivers/STM32F4xx_HAL_Driver/Src/stm32f4xx_hal_i2c.c ****   if(hi2c == NULL)
 309              		.loc 1 372 0
 310 0008 7B68     		ldr	r3, [r7, #4]
 311 000a 002B     		cmp	r3, #0
 312 000c 01D1     		bne	.L20
 373:Drivers/STM32F4xx_HAL_Driver/Src/stm32f4xx_hal_i2c.c ****   {
 374:Drivers/STM32F4xx_HAL_Driver/Src/stm32f4xx_hal_i2c.c ****     return HAL_ERROR;
 313              		.loc 1 374 0
ARM GAS  /tmp/cc5bMm9J.s 			page 13


 314 000e 0123     		movs	r3, #1
 315 0010 1AE0     		b	.L21
 316              	.L20:
 375:Drivers/STM32F4xx_HAL_Driver/Src/stm32f4xx_hal_i2c.c ****   }
 376:Drivers/STM32F4xx_HAL_Driver/Src/stm32f4xx_hal_i2c.c **** 
 377:Drivers/STM32F4xx_HAL_Driver/Src/stm32f4xx_hal_i2c.c ****   /* Check the parameters */
 378:Drivers/STM32F4xx_HAL_Driver/Src/stm32f4xx_hal_i2c.c ****   assert_param(IS_I2C_ALL_INSTANCE(hi2c->Instance));
 379:Drivers/STM32F4xx_HAL_Driver/Src/stm32f4xx_hal_i2c.c **** 
 380:Drivers/STM32F4xx_HAL_Driver/Src/stm32f4xx_hal_i2c.c ****   hi2c->State = HAL_I2C_STATE_BUSY;
 317              		.loc 1 380 0
 318 0012 7B68     		ldr	r3, [r7, #4]
 319 0014 0222     		movs	r2, #2
 320 0016 83F83520 		strb	r2, [r3, #53]
 381:Drivers/STM32F4xx_HAL_Driver/Src/stm32f4xx_hal_i2c.c **** 
 382:Drivers/STM32F4xx_HAL_Driver/Src/stm32f4xx_hal_i2c.c ****   /* Disable the I2C Peripheral Clock */
 383:Drivers/STM32F4xx_HAL_Driver/Src/stm32f4xx_hal_i2c.c ****   __HAL_I2C_DISABLE(hi2c);
 321              		.loc 1 383 0
 322 001a 7B68     		ldr	r3, [r7, #4]
 323 001c 1B68     		ldr	r3, [r3]
 324 001e 7A68     		ldr	r2, [r7, #4]
 325 0020 1268     		ldr	r2, [r2]
 326 0022 1268     		ldr	r2, [r2]
 327 0024 22F00102 		bic	r2, r2, #1
 328 0028 1A60     		str	r2, [r3]
 384:Drivers/STM32F4xx_HAL_Driver/Src/stm32f4xx_hal_i2c.c **** 
 385:Drivers/STM32F4xx_HAL_Driver/Src/stm32f4xx_hal_i2c.c ****   /* DeInit the low level hardware: GPIO, CLOCK, NVIC */
 386:Drivers/STM32F4xx_HAL_Driver/Src/stm32f4xx_hal_i2c.c ****   HAL_I2C_MspDeInit(hi2c);
 329              		.loc 1 386 0
 330 002a 7868     		ldr	r0, [r7, #4]
 331 002c FFF7FEFF 		bl	HAL_I2C_MspDeInit
 387:Drivers/STM32F4xx_HAL_Driver/Src/stm32f4xx_hal_i2c.c **** 
 388:Drivers/STM32F4xx_HAL_Driver/Src/stm32f4xx_hal_i2c.c ****   hi2c->ErrorCode = HAL_I2C_ERROR_NONE;
 332              		.loc 1 388 0
 333 0030 7B68     		ldr	r3, [r7, #4]
 334 0032 0022     		movs	r2, #0
 335 0034 9A63     		str	r2, [r3, #56]
 389:Drivers/STM32F4xx_HAL_Driver/Src/stm32f4xx_hal_i2c.c **** 
 390:Drivers/STM32F4xx_HAL_Driver/Src/stm32f4xx_hal_i2c.c ****   hi2c->State = HAL_I2C_STATE_RESET;
 336              		.loc 1 390 0
 337 0036 7B68     		ldr	r3, [r7, #4]
 338 0038 0022     		movs	r2, #0
 339 003a 83F83520 		strb	r2, [r3, #53]
 391:Drivers/STM32F4xx_HAL_Driver/Src/stm32f4xx_hal_i2c.c **** 
 392:Drivers/STM32F4xx_HAL_Driver/Src/stm32f4xx_hal_i2c.c ****   /* Release Lock */
 393:Drivers/STM32F4xx_HAL_Driver/Src/stm32f4xx_hal_i2c.c ****   __HAL_UNLOCK(hi2c);
 340              		.loc 1 393 0
 341 003e 7B68     		ldr	r3, [r7, #4]
 342 0040 0022     		movs	r2, #0
 343 0042 83F83420 		strb	r2, [r3, #52]
 394:Drivers/STM32F4xx_HAL_Driver/Src/stm32f4xx_hal_i2c.c **** 
 395:Drivers/STM32F4xx_HAL_Driver/Src/stm32f4xx_hal_i2c.c ****   return HAL_OK;
 344              		.loc 1 395 0
 345 0046 0023     		movs	r3, #0
 346              	.L21:
 396:Drivers/STM32F4xx_HAL_Driver/Src/stm32f4xx_hal_i2c.c **** }
 347              		.loc 1 396 0
 348 0048 1846     		mov	r0, r3
ARM GAS  /tmp/cc5bMm9J.s 			page 14


 349 004a 0837     		adds	r7, r7, #8
 350 004c BD46     		mov	sp, r7
 351              		@ sp needed
 352 004e 80BD     		pop	{r7, pc}
 353              		.cfi_endproc
 354              	.LFE126:
 356              		.section	.text.HAL_I2C_MspInit,"ax",%progbits
 357              		.align	2
 358              		.weak	HAL_I2C_MspInit
 359              		.thumb
 360              		.thumb_func
 362              	HAL_I2C_MspInit:
 363              	.LFB127:
 397:Drivers/STM32F4xx_HAL_Driver/Src/stm32f4xx_hal_i2c.c **** 
 398:Drivers/STM32F4xx_HAL_Driver/Src/stm32f4xx_hal_i2c.c **** /**
 399:Drivers/STM32F4xx_HAL_Driver/Src/stm32f4xx_hal_i2c.c ****   * @brief I2C MSP Init.
 400:Drivers/STM32F4xx_HAL_Driver/Src/stm32f4xx_hal_i2c.c ****   * @param  hi2c: pointer to a I2C_HandleTypeDef structure that contains
 401:Drivers/STM32F4xx_HAL_Driver/Src/stm32f4xx_hal_i2c.c ****   *         the configuration information for I2C module
 402:Drivers/STM32F4xx_HAL_Driver/Src/stm32f4xx_hal_i2c.c ****   * @retval None
 403:Drivers/STM32F4xx_HAL_Driver/Src/stm32f4xx_hal_i2c.c ****   */
 404:Drivers/STM32F4xx_HAL_Driver/Src/stm32f4xx_hal_i2c.c ****  __weak void HAL_I2C_MspInit(I2C_HandleTypeDef *hi2c)
 405:Drivers/STM32F4xx_HAL_Driver/Src/stm32f4xx_hal_i2c.c **** {
 364              		.loc 1 405 0
 365              		.cfi_startproc
 366              		@ args = 0, pretend = 0, frame = 8
 367              		@ frame_needed = 1, uses_anonymous_args = 0
 368              		@ link register save eliminated.
 369 0000 80B4     		push	{r7}
 370              	.LCFI6:
 371              		.cfi_def_cfa_offset 4
 372              		.cfi_offset 7, -4
 373 0002 83B0     		sub	sp, sp, #12
 374              	.LCFI7:
 375              		.cfi_def_cfa_offset 16
 376 0004 00AF     		add	r7, sp, #0
 377              	.LCFI8:
 378              		.cfi_def_cfa_register 7
 379 0006 7860     		str	r0, [r7, #4]
 406:Drivers/STM32F4xx_HAL_Driver/Src/stm32f4xx_hal_i2c.c ****   /* NOTE : This function Should not be modified, when the callback is needed,
 407:Drivers/STM32F4xx_HAL_Driver/Src/stm32f4xx_hal_i2c.c ****             the HAL_I2C_MspInit could be implemented in the user file
 408:Drivers/STM32F4xx_HAL_Driver/Src/stm32f4xx_hal_i2c.c ****    */
 409:Drivers/STM32F4xx_HAL_Driver/Src/stm32f4xx_hal_i2c.c **** }
 380              		.loc 1 409 0
 381 0008 0C37     		adds	r7, r7, #12
 382 000a BD46     		mov	sp, r7
 383              		@ sp needed
 384 000c 5DF8047B 		ldr	r7, [sp], #4
 385 0010 7047     		bx	lr
 386              		.cfi_endproc
 387              	.LFE127:
 389 0012 00BF     		.section	.text.HAL_I2C_MspDeInit,"ax",%progbits
 390              		.align	2
 391              		.weak	HAL_I2C_MspDeInit
 392              		.thumb
 393              		.thumb_func
 395              	HAL_I2C_MspDeInit:
 396              	.LFB128:
ARM GAS  /tmp/cc5bMm9J.s 			page 15


 410:Drivers/STM32F4xx_HAL_Driver/Src/stm32f4xx_hal_i2c.c **** 
 411:Drivers/STM32F4xx_HAL_Driver/Src/stm32f4xx_hal_i2c.c **** /**
 412:Drivers/STM32F4xx_HAL_Driver/Src/stm32f4xx_hal_i2c.c ****   * @brief I2C MSP DeInit
 413:Drivers/STM32F4xx_HAL_Driver/Src/stm32f4xx_hal_i2c.c ****   * @param  hi2c: pointer to a I2C_HandleTypeDef structure that contains
 414:Drivers/STM32F4xx_HAL_Driver/Src/stm32f4xx_hal_i2c.c ****   *         the configuration information for I2C module
 415:Drivers/STM32F4xx_HAL_Driver/Src/stm32f4xx_hal_i2c.c ****   * @retval None
 416:Drivers/STM32F4xx_HAL_Driver/Src/stm32f4xx_hal_i2c.c ****   */
 417:Drivers/STM32F4xx_HAL_Driver/Src/stm32f4xx_hal_i2c.c ****  __weak void HAL_I2C_MspDeInit(I2C_HandleTypeDef *hi2c)
 418:Drivers/STM32F4xx_HAL_Driver/Src/stm32f4xx_hal_i2c.c **** {
 397              		.loc 1 418 0
 398              		.cfi_startproc
 399              		@ args = 0, pretend = 0, frame = 8
 400              		@ frame_needed = 1, uses_anonymous_args = 0
 401              		@ link register save eliminated.
 402 0000 80B4     		push	{r7}
 403              	.LCFI9:
 404              		.cfi_def_cfa_offset 4
 405              		.cfi_offset 7, -4
 406 0002 83B0     		sub	sp, sp, #12
 407              	.LCFI10:
 408              		.cfi_def_cfa_offset 16
 409 0004 00AF     		add	r7, sp, #0
 410              	.LCFI11:
 411              		.cfi_def_cfa_register 7
 412 0006 7860     		str	r0, [r7, #4]
 419:Drivers/STM32F4xx_HAL_Driver/Src/stm32f4xx_hal_i2c.c ****   /* NOTE : This function Should not be modified, when the callback is needed,
 420:Drivers/STM32F4xx_HAL_Driver/Src/stm32f4xx_hal_i2c.c ****             the HAL_I2C_MspDeInit could be implemented in the user file
 421:Drivers/STM32F4xx_HAL_Driver/Src/stm32f4xx_hal_i2c.c ****    */
 422:Drivers/STM32F4xx_HAL_Driver/Src/stm32f4xx_hal_i2c.c **** }
 413              		.loc 1 422 0
 414 0008 0C37     		adds	r7, r7, #12
 415 000a BD46     		mov	sp, r7
 416              		@ sp needed
 417 000c 5DF8047B 		ldr	r7, [sp], #4
 418 0010 7047     		bx	lr
 419              		.cfi_endproc
 420              	.LFE128:
 422 0012 00BF     		.section	.text.HAL_I2C_Master_Transmit,"ax",%progbits
 423              		.align	2
 424              		.global	HAL_I2C_Master_Transmit
 425              		.thumb
 426              		.thumb_func
 428              	HAL_I2C_Master_Transmit:
 429              	.LFB129:
 423:Drivers/STM32F4xx_HAL_Driver/Src/stm32f4xx_hal_i2c.c **** 
 424:Drivers/STM32F4xx_HAL_Driver/Src/stm32f4xx_hal_i2c.c **** /**
 425:Drivers/STM32F4xx_HAL_Driver/Src/stm32f4xx_hal_i2c.c ****   * @}
 426:Drivers/STM32F4xx_HAL_Driver/Src/stm32f4xx_hal_i2c.c ****   */
 427:Drivers/STM32F4xx_HAL_Driver/Src/stm32f4xx_hal_i2c.c **** 
 428:Drivers/STM32F4xx_HAL_Driver/Src/stm32f4xx_hal_i2c.c **** /** @defgroup I2C_Exported_Functions_Group2 IO operation functions
 429:Drivers/STM32F4xx_HAL_Driver/Src/stm32f4xx_hal_i2c.c ****  *  @brief   Data transfers functions
 430:Drivers/STM32F4xx_HAL_Driver/Src/stm32f4xx_hal_i2c.c ****  *
 431:Drivers/STM32F4xx_HAL_Driver/Src/stm32f4xx_hal_i2c.c **** @verbatim
 432:Drivers/STM32F4xx_HAL_Driver/Src/stm32f4xx_hal_i2c.c ****  ===============================================================================
 433:Drivers/STM32F4xx_HAL_Driver/Src/stm32f4xx_hal_i2c.c ****                       ##### IO operation functions #####
 434:Drivers/STM32F4xx_HAL_Driver/Src/stm32f4xx_hal_i2c.c ****  ===============================================================================
 435:Drivers/STM32F4xx_HAL_Driver/Src/stm32f4xx_hal_i2c.c ****     [..]
ARM GAS  /tmp/cc5bMm9J.s 			page 16


 436:Drivers/STM32F4xx_HAL_Driver/Src/stm32f4xx_hal_i2c.c ****     This subsection provides a set of functions allowing to manage the I2C data
 437:Drivers/STM32F4xx_HAL_Driver/Src/stm32f4xx_hal_i2c.c ****     transfers.
 438:Drivers/STM32F4xx_HAL_Driver/Src/stm32f4xx_hal_i2c.c **** 
 439:Drivers/STM32F4xx_HAL_Driver/Src/stm32f4xx_hal_i2c.c ****     (#) There are two modes of transfer:
 440:Drivers/STM32F4xx_HAL_Driver/Src/stm32f4xx_hal_i2c.c ****        (++) Blocking mode : The communication is performed in the polling mode.
 441:Drivers/STM32F4xx_HAL_Driver/Src/stm32f4xx_hal_i2c.c ****             The status of all data processing is returned by the same function
 442:Drivers/STM32F4xx_HAL_Driver/Src/stm32f4xx_hal_i2c.c ****             after finishing transfer.
 443:Drivers/STM32F4xx_HAL_Driver/Src/stm32f4xx_hal_i2c.c ****        (++) No-Blocking mode : The communication is performed using Interrupts
 444:Drivers/STM32F4xx_HAL_Driver/Src/stm32f4xx_hal_i2c.c ****             or DMA. These functions return the status of the transfer startup.
 445:Drivers/STM32F4xx_HAL_Driver/Src/stm32f4xx_hal_i2c.c ****             The end of the data processing will be indicated through the
 446:Drivers/STM32F4xx_HAL_Driver/Src/stm32f4xx_hal_i2c.c ****             dedicated I2C IRQ when using Interrupt mode or the DMA IRQ when
 447:Drivers/STM32F4xx_HAL_Driver/Src/stm32f4xx_hal_i2c.c ****             using DMA mode.
 448:Drivers/STM32F4xx_HAL_Driver/Src/stm32f4xx_hal_i2c.c **** 
 449:Drivers/STM32F4xx_HAL_Driver/Src/stm32f4xx_hal_i2c.c ****     (#) Blocking mode functions are :
 450:Drivers/STM32F4xx_HAL_Driver/Src/stm32f4xx_hal_i2c.c ****         (++) HAL_I2C_Master_Transmit()
 451:Drivers/STM32F4xx_HAL_Driver/Src/stm32f4xx_hal_i2c.c ****         (++) HAL_I2C_Master_Receive()
 452:Drivers/STM32F4xx_HAL_Driver/Src/stm32f4xx_hal_i2c.c ****         (++) HAL_I2C_Slave_Transmit()
 453:Drivers/STM32F4xx_HAL_Driver/Src/stm32f4xx_hal_i2c.c ****         (++) HAL_I2C_Slave_Receive()
 454:Drivers/STM32F4xx_HAL_Driver/Src/stm32f4xx_hal_i2c.c ****         (++) HAL_I2C_Mem_Write()
 455:Drivers/STM32F4xx_HAL_Driver/Src/stm32f4xx_hal_i2c.c ****         (++) HAL_I2C_Mem_Read()
 456:Drivers/STM32F4xx_HAL_Driver/Src/stm32f4xx_hal_i2c.c ****         (++) HAL_I2C_IsDeviceReady()
 457:Drivers/STM32F4xx_HAL_Driver/Src/stm32f4xx_hal_i2c.c **** 
 458:Drivers/STM32F4xx_HAL_Driver/Src/stm32f4xx_hal_i2c.c ****     (#) No-Blocking mode functions with Interrupt are :
 459:Drivers/STM32F4xx_HAL_Driver/Src/stm32f4xx_hal_i2c.c ****         (++) HAL_I2C_Master_Transmit_IT()
 460:Drivers/STM32F4xx_HAL_Driver/Src/stm32f4xx_hal_i2c.c ****         (++) HAL_I2C_Master_Receive_IT()
 461:Drivers/STM32F4xx_HAL_Driver/Src/stm32f4xx_hal_i2c.c ****         (++) HAL_I2C_Slave_Transmit_IT()
 462:Drivers/STM32F4xx_HAL_Driver/Src/stm32f4xx_hal_i2c.c ****         (++) HAL_I2C_Slave_Receive_IT()
 463:Drivers/STM32F4xx_HAL_Driver/Src/stm32f4xx_hal_i2c.c ****         (++) HAL_I2C_Mem_Write_IT()
 464:Drivers/STM32F4xx_HAL_Driver/Src/stm32f4xx_hal_i2c.c ****         (++) HAL_I2C_Mem_Read_IT()
 465:Drivers/STM32F4xx_HAL_Driver/Src/stm32f4xx_hal_i2c.c **** 
 466:Drivers/STM32F4xx_HAL_Driver/Src/stm32f4xx_hal_i2c.c ****     (#) No-Blocking mode functions with DMA are :
 467:Drivers/STM32F4xx_HAL_Driver/Src/stm32f4xx_hal_i2c.c ****         (++) HAL_I2C_Master_Transmit_DMA()
 468:Drivers/STM32F4xx_HAL_Driver/Src/stm32f4xx_hal_i2c.c ****         (++) HAL_I2C_Master_Receive_DMA()
 469:Drivers/STM32F4xx_HAL_Driver/Src/stm32f4xx_hal_i2c.c ****         (++) HAL_I2C_Slave_Transmit_DMA()
 470:Drivers/STM32F4xx_HAL_Driver/Src/stm32f4xx_hal_i2c.c ****         (++) HAL_I2C_Slave_Receive_DMA()
 471:Drivers/STM32F4xx_HAL_Driver/Src/stm32f4xx_hal_i2c.c ****         (++) HAL_I2C_Mem_Write_DMA()
 472:Drivers/STM32F4xx_HAL_Driver/Src/stm32f4xx_hal_i2c.c ****         (++) HAL_I2C_Mem_Read_DMA()
 473:Drivers/STM32F4xx_HAL_Driver/Src/stm32f4xx_hal_i2c.c **** 
 474:Drivers/STM32F4xx_HAL_Driver/Src/stm32f4xx_hal_i2c.c ****     (#) A set of Transfer Complete Callbacks are provided in non Blocking mode:
 475:Drivers/STM32F4xx_HAL_Driver/Src/stm32f4xx_hal_i2c.c ****         (++) HAL_I2C_MemTxCpltCallback()
 476:Drivers/STM32F4xx_HAL_Driver/Src/stm32f4xx_hal_i2c.c ****         (++) HAL_I2C_MemRxCpltCallback()
 477:Drivers/STM32F4xx_HAL_Driver/Src/stm32f4xx_hal_i2c.c ****         (++) HAL_I2C_MasterTxCpltCallback()
 478:Drivers/STM32F4xx_HAL_Driver/Src/stm32f4xx_hal_i2c.c ****         (++) HAL_I2C_MasterRxCpltCallback()
 479:Drivers/STM32F4xx_HAL_Driver/Src/stm32f4xx_hal_i2c.c ****         (++) HAL_I2C_SlaveTxCpltCallback()
 480:Drivers/STM32F4xx_HAL_Driver/Src/stm32f4xx_hal_i2c.c ****         (++) HAL_I2C_SlaveRxCpltCallback()
 481:Drivers/STM32F4xx_HAL_Driver/Src/stm32f4xx_hal_i2c.c ****         (++) HAL_I2C_ErrorCallback()
 482:Drivers/STM32F4xx_HAL_Driver/Src/stm32f4xx_hal_i2c.c **** 
 483:Drivers/STM32F4xx_HAL_Driver/Src/stm32f4xx_hal_i2c.c **** @endverbatim
 484:Drivers/STM32F4xx_HAL_Driver/Src/stm32f4xx_hal_i2c.c ****   * @{
 485:Drivers/STM32F4xx_HAL_Driver/Src/stm32f4xx_hal_i2c.c ****   */
 486:Drivers/STM32F4xx_HAL_Driver/Src/stm32f4xx_hal_i2c.c **** 
 487:Drivers/STM32F4xx_HAL_Driver/Src/stm32f4xx_hal_i2c.c **** /**
 488:Drivers/STM32F4xx_HAL_Driver/Src/stm32f4xx_hal_i2c.c ****   * @brief  Transmits in master mode an amount of data in blocking mode.
 489:Drivers/STM32F4xx_HAL_Driver/Src/stm32f4xx_hal_i2c.c ****   * @param  hi2c: pointer to a I2C_HandleTypeDef structure that contains
 490:Drivers/STM32F4xx_HAL_Driver/Src/stm32f4xx_hal_i2c.c ****   *         the configuration information for I2C module
 491:Drivers/STM32F4xx_HAL_Driver/Src/stm32f4xx_hal_i2c.c ****   * @param  DevAddress: Target device address
 492:Drivers/STM32F4xx_HAL_Driver/Src/stm32f4xx_hal_i2c.c ****   * @param  pData: Pointer to data buffer
ARM GAS  /tmp/cc5bMm9J.s 			page 17


 493:Drivers/STM32F4xx_HAL_Driver/Src/stm32f4xx_hal_i2c.c ****   * @param  Size: Amount of data to be sent
 494:Drivers/STM32F4xx_HAL_Driver/Src/stm32f4xx_hal_i2c.c ****   * @param  Timeout: Timeout duration
 495:Drivers/STM32F4xx_HAL_Driver/Src/stm32f4xx_hal_i2c.c ****   * @retval HAL status
 496:Drivers/STM32F4xx_HAL_Driver/Src/stm32f4xx_hal_i2c.c ****   */
 497:Drivers/STM32F4xx_HAL_Driver/Src/stm32f4xx_hal_i2c.c **** HAL_StatusTypeDef HAL_I2C_Master_Transmit(I2C_HandleTypeDef *hi2c, uint16_t DevAddress, uint8_t *pD
 498:Drivers/STM32F4xx_HAL_Driver/Src/stm32f4xx_hal_i2c.c **** {
 430              		.loc 1 498 0
 431              		.cfi_startproc
 432              		@ args = 4, pretend = 0, frame = 24
 433              		@ frame_needed = 1, uses_anonymous_args = 0
 434 0000 80B5     		push	{r7, lr}
 435              	.LCFI12:
 436              		.cfi_def_cfa_offset 8
 437              		.cfi_offset 7, -8
 438              		.cfi_offset 14, -4
 439 0002 86B0     		sub	sp, sp, #24
 440              	.LCFI13:
 441              		.cfi_def_cfa_offset 32
 442 0004 00AF     		add	r7, sp, #0
 443              	.LCFI14:
 444              		.cfi_def_cfa_register 7
 445 0006 F860     		str	r0, [r7, #12]
 446 0008 7A60     		str	r2, [r7, #4]
 447 000a 0A46     		mov	r2, r1	@ movhi
 448 000c 7A81     		strh	r2, [r7, #10]	@ movhi
 449 000e 3B81     		strh	r3, [r7, #8]	@ movhi
 499:Drivers/STM32F4xx_HAL_Driver/Src/stm32f4xx_hal_i2c.c ****   if(hi2c->State == HAL_I2C_STATE_READY)
 450              		.loc 1 499 0
 451 0010 FB68     		ldr	r3, [r7, #12]
 452 0012 93F83530 		ldrb	r3, [r3, #53]
 453 0016 DBB2     		uxtb	r3, r3
 454 0018 012B     		cmp	r3, #1
 455 001a 40F09A80 		bne	.L25
 500:Drivers/STM32F4xx_HAL_Driver/Src/stm32f4xx_hal_i2c.c ****   {
 501:Drivers/STM32F4xx_HAL_Driver/Src/stm32f4xx_hal_i2c.c ****     if((pData == NULL) || (Size == 0))
 456              		.loc 1 501 0
 457 001e 7B68     		ldr	r3, [r7, #4]
 458 0020 002B     		cmp	r3, #0
 459 0022 02D0     		beq	.L26
 460              		.loc 1 501 0 is_stmt 0 discriminator 1
 461 0024 3B89     		ldrh	r3, [r7, #8]
 462 0026 002B     		cmp	r3, #0
 463 0028 01D1     		bne	.L27
 464              	.L26:
 502:Drivers/STM32F4xx_HAL_Driver/Src/stm32f4xx_hal_i2c.c ****     {
 503:Drivers/STM32F4xx_HAL_Driver/Src/stm32f4xx_hal_i2c.c ****       return  HAL_ERROR;
 465              		.loc 1 503 0 is_stmt 1
 466 002a 0123     		movs	r3, #1
 467 002c 92E0     		b	.L28
 468              	.L27:
 504:Drivers/STM32F4xx_HAL_Driver/Src/stm32f4xx_hal_i2c.c ****     }
 505:Drivers/STM32F4xx_HAL_Driver/Src/stm32f4xx_hal_i2c.c **** 
 506:Drivers/STM32F4xx_HAL_Driver/Src/stm32f4xx_hal_i2c.c ****     /* Wait until BUSY flag is reset */
 507:Drivers/STM32F4xx_HAL_Driver/Src/stm32f4xx_hal_i2c.c ****     if(I2C_WaitOnFlagUntilTimeout(hi2c, I2C_FLAG_BUSY, SET, I2C_TIMEOUT_BUSY_FLAG) != HAL_OK)
 469              		.loc 1 507 0
 470 002e F868     		ldr	r0, [r7, #12]
 471 0030 4A49     		ldr	r1, .L37
ARM GAS  /tmp/cc5bMm9J.s 			page 18


 472 0032 0122     		movs	r2, #1
 473 0034 42F21073 		movw	r3, #10000
 474 0038 FFF7FEFF 		bl	I2C_WaitOnFlagUntilTimeout
 475 003c 0346     		mov	r3, r0
 476 003e 002B     		cmp	r3, #0
 477 0040 01D0     		beq	.L29
 508:Drivers/STM32F4xx_HAL_Driver/Src/stm32f4xx_hal_i2c.c ****     {
 509:Drivers/STM32F4xx_HAL_Driver/Src/stm32f4xx_hal_i2c.c ****       return HAL_BUSY;
 478              		.loc 1 509 0
 479 0042 0223     		movs	r3, #2
 480 0044 86E0     		b	.L28
 481              	.L29:
 510:Drivers/STM32F4xx_HAL_Driver/Src/stm32f4xx_hal_i2c.c ****     }
 511:Drivers/STM32F4xx_HAL_Driver/Src/stm32f4xx_hal_i2c.c **** 
 512:Drivers/STM32F4xx_HAL_Driver/Src/stm32f4xx_hal_i2c.c ****     /* Process Locked */
 513:Drivers/STM32F4xx_HAL_Driver/Src/stm32f4xx_hal_i2c.c ****     __HAL_LOCK(hi2c);
 482              		.loc 1 513 0
 483 0046 FB68     		ldr	r3, [r7, #12]
 484 0048 93F83430 		ldrb	r3, [r3, #52]	@ zero_extendqisi2
 485 004c 012B     		cmp	r3, #1
 486 004e 01D1     		bne	.L30
 487              		.loc 1 513 0 is_stmt 0 discriminator 1
 488 0050 0223     		movs	r3, #2
 489 0052 7FE0     		b	.L28
 490              	.L30:
 491              		.loc 1 513 0 discriminator 2
 492 0054 FB68     		ldr	r3, [r7, #12]
 493 0056 0122     		movs	r2, #1
 494 0058 83F83420 		strb	r2, [r3, #52]
 514:Drivers/STM32F4xx_HAL_Driver/Src/stm32f4xx_hal_i2c.c ****     
 515:Drivers/STM32F4xx_HAL_Driver/Src/stm32f4xx_hal_i2c.c ****     /* Disable Pos */
 516:Drivers/STM32F4xx_HAL_Driver/Src/stm32f4xx_hal_i2c.c ****     hi2c->Instance->CR1 &= ~I2C_CR1_POS;
 495              		.loc 1 516 0 is_stmt 1 discriminator 2
 496 005c FB68     		ldr	r3, [r7, #12]
 497 005e 1B68     		ldr	r3, [r3]
 498 0060 FA68     		ldr	r2, [r7, #12]
 499 0062 1268     		ldr	r2, [r2]
 500 0064 1268     		ldr	r2, [r2]
 501 0066 22F40062 		bic	r2, r2, #2048
 502 006a 1A60     		str	r2, [r3]
 517:Drivers/STM32F4xx_HAL_Driver/Src/stm32f4xx_hal_i2c.c **** 
 518:Drivers/STM32F4xx_HAL_Driver/Src/stm32f4xx_hal_i2c.c ****     hi2c->State = HAL_I2C_STATE_BUSY_TX;
 503              		.loc 1 518 0 discriminator 2
 504 006c FB68     		ldr	r3, [r7, #12]
 505 006e 1222     		movs	r2, #18
 506 0070 83F83520 		strb	r2, [r3, #53]
 519:Drivers/STM32F4xx_HAL_Driver/Src/stm32f4xx_hal_i2c.c ****     hi2c->ErrorCode = HAL_I2C_ERROR_NONE;
 507              		.loc 1 519 0 discriminator 2
 508 0074 FB68     		ldr	r3, [r7, #12]
 509 0076 0022     		movs	r2, #0
 510 0078 9A63     		str	r2, [r3, #56]
 520:Drivers/STM32F4xx_HAL_Driver/Src/stm32f4xx_hal_i2c.c **** 
 521:Drivers/STM32F4xx_HAL_Driver/Src/stm32f4xx_hal_i2c.c ****     /* Send Slave Address */
 522:Drivers/STM32F4xx_HAL_Driver/Src/stm32f4xx_hal_i2c.c ****     if(I2C_MasterRequestWrite(hi2c, DevAddress, Timeout) != HAL_OK)
 511              		.loc 1 522 0 discriminator 2
 512 007a 7B89     		ldrh	r3, [r7, #10]
 513 007c F868     		ldr	r0, [r7, #12]
ARM GAS  /tmp/cc5bMm9J.s 			page 19


 514 007e 1946     		mov	r1, r3
 515 0080 3A6A     		ldr	r2, [r7, #32]
 516 0082 FFF7FEFF 		bl	I2C_MasterRequestWrite
 517 0086 0346     		mov	r3, r0
 518 0088 002B     		cmp	r3, #0
 519 008a 0FD0     		beq	.L31
 523:Drivers/STM32F4xx_HAL_Driver/Src/stm32f4xx_hal_i2c.c ****     {
 524:Drivers/STM32F4xx_HAL_Driver/Src/stm32f4xx_hal_i2c.c ****       if(hi2c->ErrorCode == HAL_I2C_ERROR_AF)
 520              		.loc 1 524 0
 521 008c FB68     		ldr	r3, [r7, #12]
 522 008e 9B6B     		ldr	r3, [r3, #56]
 523 0090 042B     		cmp	r3, #4
 524 0092 05D1     		bne	.L32
 525:Drivers/STM32F4xx_HAL_Driver/Src/stm32f4xx_hal_i2c.c ****       {
 526:Drivers/STM32F4xx_HAL_Driver/Src/stm32f4xx_hal_i2c.c ****         /* Process Unlocked */
 527:Drivers/STM32F4xx_HAL_Driver/Src/stm32f4xx_hal_i2c.c ****         __HAL_UNLOCK(hi2c);
 525              		.loc 1 527 0
 526 0094 FB68     		ldr	r3, [r7, #12]
 527 0096 0022     		movs	r2, #0
 528 0098 83F83420 		strb	r2, [r3, #52]
 528:Drivers/STM32F4xx_HAL_Driver/Src/stm32f4xx_hal_i2c.c ****         return HAL_ERROR;
 529              		.loc 1 528 0
 530 009c 0123     		movs	r3, #1
 531 009e 59E0     		b	.L28
 532              	.L32:
 529:Drivers/STM32F4xx_HAL_Driver/Src/stm32f4xx_hal_i2c.c ****       }
 530:Drivers/STM32F4xx_HAL_Driver/Src/stm32f4xx_hal_i2c.c ****       else
 531:Drivers/STM32F4xx_HAL_Driver/Src/stm32f4xx_hal_i2c.c ****       {
 532:Drivers/STM32F4xx_HAL_Driver/Src/stm32f4xx_hal_i2c.c ****         /* Process Unlocked */
 533:Drivers/STM32F4xx_HAL_Driver/Src/stm32f4xx_hal_i2c.c ****         __HAL_UNLOCK(hi2c);
 533              		.loc 1 533 0
 534 00a0 FB68     		ldr	r3, [r7, #12]
 535 00a2 0022     		movs	r2, #0
 536 00a4 83F83420 		strb	r2, [r3, #52]
 534:Drivers/STM32F4xx_HAL_Driver/Src/stm32f4xx_hal_i2c.c ****         return HAL_TIMEOUT;
 537              		.loc 1 534 0
 538 00a8 0323     		movs	r3, #3
 539 00aa 53E0     		b	.L28
 540              	.L31:
 541              	.LBB2:
 535:Drivers/STM32F4xx_HAL_Driver/Src/stm32f4xx_hal_i2c.c ****       }
 536:Drivers/STM32F4xx_HAL_Driver/Src/stm32f4xx_hal_i2c.c ****     }
 537:Drivers/STM32F4xx_HAL_Driver/Src/stm32f4xx_hal_i2c.c **** 
 538:Drivers/STM32F4xx_HAL_Driver/Src/stm32f4xx_hal_i2c.c ****     /* Clear ADDR flag */
 539:Drivers/STM32F4xx_HAL_Driver/Src/stm32f4xx_hal_i2c.c ****     __HAL_I2C_CLEAR_ADDRFLAG(hi2c);
 542              		.loc 1 539 0
 543 00ac FB68     		ldr	r3, [r7, #12]
 544 00ae 1B68     		ldr	r3, [r3]
 545 00b0 5B69     		ldr	r3, [r3, #20]
 546 00b2 7B61     		str	r3, [r7, #20]
 547 00b4 FB68     		ldr	r3, [r7, #12]
 548 00b6 1B68     		ldr	r3, [r3]
 549 00b8 9B69     		ldr	r3, [r3, #24]
 550 00ba 7B61     		str	r3, [r7, #20]
 551 00bc 7B69     		ldr	r3, [r7, #20]
 552              	.LBE2:
 540:Drivers/STM32F4xx_HAL_Driver/Src/stm32f4xx_hal_i2c.c **** 
ARM GAS  /tmp/cc5bMm9J.s 			page 20


 541:Drivers/STM32F4xx_HAL_Driver/Src/stm32f4xx_hal_i2c.c ****     while(Size > 0)
 553              		.loc 1 541 0
 554 00be 28E0     		b	.L33
 555              	.L35:
 542:Drivers/STM32F4xx_HAL_Driver/Src/stm32f4xx_hal_i2c.c ****     {
 543:Drivers/STM32F4xx_HAL_Driver/Src/stm32f4xx_hal_i2c.c ****       /* Wait until TXE flag is set */
 544:Drivers/STM32F4xx_HAL_Driver/Src/stm32f4xx_hal_i2c.c ****       if(I2C_WaitOnFlagUntilTimeout(hi2c, I2C_FLAG_TXE, RESET, Timeout) != HAL_OK)
 556              		.loc 1 544 0
 557 00c0 F868     		ldr	r0, [r7, #12]
 558 00c2 2749     		ldr	r1, .L37+4
 559 00c4 0022     		movs	r2, #0
 560 00c6 3B6A     		ldr	r3, [r7, #32]
 561 00c8 FFF7FEFF 		bl	I2C_WaitOnFlagUntilTimeout
 562 00cc 0346     		mov	r3, r0
 563 00ce 002B     		cmp	r3, #0
 564 00d0 01D0     		beq	.L34
 545:Drivers/STM32F4xx_HAL_Driver/Src/stm32f4xx_hal_i2c.c ****       {
 546:Drivers/STM32F4xx_HAL_Driver/Src/stm32f4xx_hal_i2c.c ****         return HAL_TIMEOUT;
 565              		.loc 1 546 0
 566 00d2 0323     		movs	r3, #3
 567 00d4 3EE0     		b	.L28
 568              	.L34:
 547:Drivers/STM32F4xx_HAL_Driver/Src/stm32f4xx_hal_i2c.c ****       }
 548:Drivers/STM32F4xx_HAL_Driver/Src/stm32f4xx_hal_i2c.c **** 
 549:Drivers/STM32F4xx_HAL_Driver/Src/stm32f4xx_hal_i2c.c ****       /* Write data to DR */
 550:Drivers/STM32F4xx_HAL_Driver/Src/stm32f4xx_hal_i2c.c ****       hi2c->Instance->DR = (*pData++);
 569              		.loc 1 550 0
 570 00d6 FB68     		ldr	r3, [r7, #12]
 571 00d8 1A68     		ldr	r2, [r3]
 572 00da 7B68     		ldr	r3, [r7, #4]
 573 00dc 591C     		adds	r1, r3, #1
 574 00de 7960     		str	r1, [r7, #4]
 575 00e0 1B78     		ldrb	r3, [r3]	@ zero_extendqisi2
 576 00e2 1361     		str	r3, [r2, #16]
 551:Drivers/STM32F4xx_HAL_Driver/Src/stm32f4xx_hal_i2c.c ****       Size--;
 577              		.loc 1 551 0
 578 00e4 3B89     		ldrh	r3, [r7, #8]
 579 00e6 013B     		subs	r3, r3, #1
 580 00e8 3B81     		strh	r3, [r7, #8]	@ movhi
 552:Drivers/STM32F4xx_HAL_Driver/Src/stm32f4xx_hal_i2c.c **** 
 553:Drivers/STM32F4xx_HAL_Driver/Src/stm32f4xx_hal_i2c.c ****       if((__HAL_I2C_GET_FLAG(hi2c, I2C_FLAG_BTF) == SET) && (Size != 0))
 581              		.loc 1 553 0
 582 00ea FB68     		ldr	r3, [r7, #12]
 583 00ec 1B68     		ldr	r3, [r3]
 584 00ee 5B69     		ldr	r3, [r3, #20]
 585 00f0 03F00403 		and	r3, r3, #4
 586 00f4 002B     		cmp	r3, #0
 587 00f6 0CD0     		beq	.L33
 588              		.loc 1 553 0 is_stmt 0 discriminator 1
 589 00f8 3B89     		ldrh	r3, [r7, #8]
 590 00fa 002B     		cmp	r3, #0
 591 00fc 09D0     		beq	.L33
 554:Drivers/STM32F4xx_HAL_Driver/Src/stm32f4xx_hal_i2c.c ****       {
 555:Drivers/STM32F4xx_HAL_Driver/Src/stm32f4xx_hal_i2c.c ****         /* Write data to DR */
 556:Drivers/STM32F4xx_HAL_Driver/Src/stm32f4xx_hal_i2c.c ****         hi2c->Instance->DR = (*pData++);
 592              		.loc 1 556 0 is_stmt 1
 593 00fe FB68     		ldr	r3, [r7, #12]
ARM GAS  /tmp/cc5bMm9J.s 			page 21


 594 0100 1A68     		ldr	r2, [r3]
 595 0102 7B68     		ldr	r3, [r7, #4]
 596 0104 591C     		adds	r1, r3, #1
 597 0106 7960     		str	r1, [r7, #4]
 598 0108 1B78     		ldrb	r3, [r3]	@ zero_extendqisi2
 599 010a 1361     		str	r3, [r2, #16]
 557:Drivers/STM32F4xx_HAL_Driver/Src/stm32f4xx_hal_i2c.c ****         Size--;
 600              		.loc 1 557 0
 601 010c 3B89     		ldrh	r3, [r7, #8]
 602 010e 013B     		subs	r3, r3, #1
 603 0110 3B81     		strh	r3, [r7, #8]	@ movhi
 604              	.L33:
 541:Drivers/STM32F4xx_HAL_Driver/Src/stm32f4xx_hal_i2c.c ****     {
 605              		.loc 1 541 0 discriminator 1
 606 0112 3B89     		ldrh	r3, [r7, #8]
 607 0114 002B     		cmp	r3, #0
 608 0116 D3D1     		bne	.L35
 558:Drivers/STM32F4xx_HAL_Driver/Src/stm32f4xx_hal_i2c.c ****       }
 559:Drivers/STM32F4xx_HAL_Driver/Src/stm32f4xx_hal_i2c.c ****     }
 560:Drivers/STM32F4xx_HAL_Driver/Src/stm32f4xx_hal_i2c.c **** 
 561:Drivers/STM32F4xx_HAL_Driver/Src/stm32f4xx_hal_i2c.c ****     /* Wait until TXE flag is set */
 562:Drivers/STM32F4xx_HAL_Driver/Src/stm32f4xx_hal_i2c.c ****     if(I2C_WaitOnFlagUntilTimeout(hi2c, I2C_FLAG_TXE, RESET, Timeout) != HAL_OK)
 609              		.loc 1 562 0
 610 0118 F868     		ldr	r0, [r7, #12]
 611 011a 1149     		ldr	r1, .L37+4
 612 011c 0022     		movs	r2, #0
 613 011e 3B6A     		ldr	r3, [r7, #32]
 614 0120 FFF7FEFF 		bl	I2C_WaitOnFlagUntilTimeout
 615 0124 0346     		mov	r3, r0
 616 0126 002B     		cmp	r3, #0
 617 0128 01D0     		beq	.L36
 563:Drivers/STM32F4xx_HAL_Driver/Src/stm32f4xx_hal_i2c.c ****     {
 564:Drivers/STM32F4xx_HAL_Driver/Src/stm32f4xx_hal_i2c.c ****       return HAL_TIMEOUT;
 618              		.loc 1 564 0
 619 012a 0323     		movs	r3, #3
 620 012c 12E0     		b	.L28
 621              	.L36:
 565:Drivers/STM32F4xx_HAL_Driver/Src/stm32f4xx_hal_i2c.c ****     }
 566:Drivers/STM32F4xx_HAL_Driver/Src/stm32f4xx_hal_i2c.c **** 
 567:Drivers/STM32F4xx_HAL_Driver/Src/stm32f4xx_hal_i2c.c ****     /* Generate Stop */
 568:Drivers/STM32F4xx_HAL_Driver/Src/stm32f4xx_hal_i2c.c ****     hi2c->Instance->CR1 |= I2C_CR1_STOP;
 622              		.loc 1 568 0
 623 012e FB68     		ldr	r3, [r7, #12]
 624 0130 1B68     		ldr	r3, [r3]
 625 0132 FA68     		ldr	r2, [r7, #12]
 626 0134 1268     		ldr	r2, [r2]
 627 0136 1268     		ldr	r2, [r2]
 628 0138 42F40072 		orr	r2, r2, #512
 629 013c 1A60     		str	r2, [r3]
 569:Drivers/STM32F4xx_HAL_Driver/Src/stm32f4xx_hal_i2c.c **** 
 570:Drivers/STM32F4xx_HAL_Driver/Src/stm32f4xx_hal_i2c.c ****     hi2c->State = HAL_I2C_STATE_READY;
 630              		.loc 1 570 0
 631 013e FB68     		ldr	r3, [r7, #12]
 632 0140 0122     		movs	r2, #1
 633 0142 83F83520 		strb	r2, [r3, #53]
 571:Drivers/STM32F4xx_HAL_Driver/Src/stm32f4xx_hal_i2c.c **** 
 572:Drivers/STM32F4xx_HAL_Driver/Src/stm32f4xx_hal_i2c.c ****     /* Process Unlocked */
ARM GAS  /tmp/cc5bMm9J.s 			page 22


 573:Drivers/STM32F4xx_HAL_Driver/Src/stm32f4xx_hal_i2c.c ****     __HAL_UNLOCK(hi2c);
 634              		.loc 1 573 0
 635 0146 FB68     		ldr	r3, [r7, #12]
 636 0148 0022     		movs	r2, #0
 637 014a 83F83420 		strb	r2, [r3, #52]
 574:Drivers/STM32F4xx_HAL_Driver/Src/stm32f4xx_hal_i2c.c **** 
 575:Drivers/STM32F4xx_HAL_Driver/Src/stm32f4xx_hal_i2c.c ****     return HAL_OK;
 638              		.loc 1 575 0
 639 014e 0023     		movs	r3, #0
 640 0150 00E0     		b	.L28
 641              	.L25:
 576:Drivers/STM32F4xx_HAL_Driver/Src/stm32f4xx_hal_i2c.c ****   }
 577:Drivers/STM32F4xx_HAL_Driver/Src/stm32f4xx_hal_i2c.c ****   else
 578:Drivers/STM32F4xx_HAL_Driver/Src/stm32f4xx_hal_i2c.c ****   {
 579:Drivers/STM32F4xx_HAL_Driver/Src/stm32f4xx_hal_i2c.c ****     return HAL_BUSY;
 642              		.loc 1 579 0
 643 0152 0223     		movs	r3, #2
 644              	.L28:
 580:Drivers/STM32F4xx_HAL_Driver/Src/stm32f4xx_hal_i2c.c ****   }
 581:Drivers/STM32F4xx_HAL_Driver/Src/stm32f4xx_hal_i2c.c **** }
 645              		.loc 1 581 0
 646 0154 1846     		mov	r0, r3
 647 0156 1837     		adds	r7, r7, #24
 648 0158 BD46     		mov	sp, r7
 649              		@ sp needed
 650 015a 80BD     		pop	{r7, pc}
 651              	.L38:
 652              		.align	2
 653              	.L37:
 654 015c 02001000 		.word	1048578
 655 0160 80000100 		.word	65664
 656              		.cfi_endproc
 657              	.LFE129:
 659              		.section	.text.HAL_I2C_Master_Receive,"ax",%progbits
 660              		.align	2
 661              		.global	HAL_I2C_Master_Receive
 662              		.thumb
 663              		.thumb_func
 665              	HAL_I2C_Master_Receive:
 666              	.LFB130:
 582:Drivers/STM32F4xx_HAL_Driver/Src/stm32f4xx_hal_i2c.c **** 
 583:Drivers/STM32F4xx_HAL_Driver/Src/stm32f4xx_hal_i2c.c **** /**
 584:Drivers/STM32F4xx_HAL_Driver/Src/stm32f4xx_hal_i2c.c ****   * @brief  Receives in master mode an amount of data in blocking mode.
 585:Drivers/STM32F4xx_HAL_Driver/Src/stm32f4xx_hal_i2c.c ****   * @param  hi2c: pointer to a I2C_HandleTypeDef structure that contains
 586:Drivers/STM32F4xx_HAL_Driver/Src/stm32f4xx_hal_i2c.c ****   *         the configuration information for I2C module
 587:Drivers/STM32F4xx_HAL_Driver/Src/stm32f4xx_hal_i2c.c ****   * @param  DevAddress: Target device address
 588:Drivers/STM32F4xx_HAL_Driver/Src/stm32f4xx_hal_i2c.c ****   * @param  pData: Pointer to data buffer
 589:Drivers/STM32F4xx_HAL_Driver/Src/stm32f4xx_hal_i2c.c ****   * @param  Size: Amount of data to be sent
 590:Drivers/STM32F4xx_HAL_Driver/Src/stm32f4xx_hal_i2c.c ****   * @param  Timeout: Timeout duration
 591:Drivers/STM32F4xx_HAL_Driver/Src/stm32f4xx_hal_i2c.c ****   * @retval HAL status
 592:Drivers/STM32F4xx_HAL_Driver/Src/stm32f4xx_hal_i2c.c ****   */
 593:Drivers/STM32F4xx_HAL_Driver/Src/stm32f4xx_hal_i2c.c **** HAL_StatusTypeDef HAL_I2C_Master_Receive(I2C_HandleTypeDef *hi2c, uint16_t DevAddress, uint8_t *pDa
 594:Drivers/STM32F4xx_HAL_Driver/Src/stm32f4xx_hal_i2c.c **** {
 667              		.loc 1 594 0
 668              		.cfi_startproc
 669              		@ args = 4, pretend = 0, frame = 32
 670              		@ frame_needed = 1, uses_anonymous_args = 0
ARM GAS  /tmp/cc5bMm9J.s 			page 23


 671 0000 80B5     		push	{r7, lr}
 672              	.LCFI15:
 673              		.cfi_def_cfa_offset 8
 674              		.cfi_offset 7, -8
 675              		.cfi_offset 14, -4
 676 0002 88B0     		sub	sp, sp, #32
 677              	.LCFI16:
 678              		.cfi_def_cfa_offset 40
 679 0004 00AF     		add	r7, sp, #0
 680              	.LCFI17:
 681              		.cfi_def_cfa_register 7
 682 0006 F860     		str	r0, [r7, #12]
 683 0008 7A60     		str	r2, [r7, #4]
 684 000a 0A46     		mov	r2, r1	@ movhi
 685 000c 7A81     		strh	r2, [r7, #10]	@ movhi
 686 000e 3B81     		strh	r3, [r7, #8]	@ movhi
 595:Drivers/STM32F4xx_HAL_Driver/Src/stm32f4xx_hal_i2c.c ****   if(hi2c->State == HAL_I2C_STATE_READY)
 687              		.loc 1 595 0
 688 0010 FB68     		ldr	r3, [r7, #12]
 689 0012 93F83530 		ldrb	r3, [r3, #53]
 690 0016 DBB2     		uxtb	r3, r3
 691 0018 012B     		cmp	r3, #1
 692 001a 40F06481 		bne	.L40
 596:Drivers/STM32F4xx_HAL_Driver/Src/stm32f4xx_hal_i2c.c ****   {
 597:Drivers/STM32F4xx_HAL_Driver/Src/stm32f4xx_hal_i2c.c ****     if((pData == NULL) || (Size == 0))
 693              		.loc 1 597 0
 694 001e 7B68     		ldr	r3, [r7, #4]
 695 0020 002B     		cmp	r3, #0
 696 0022 02D0     		beq	.L41
 697              		.loc 1 597 0 is_stmt 0 discriminator 1
 698 0024 3B89     		ldrh	r3, [r7, #8]
 699 0026 002B     		cmp	r3, #0
 700 0028 01D1     		bne	.L42
 701              	.L41:
 598:Drivers/STM32F4xx_HAL_Driver/Src/stm32f4xx_hal_i2c.c ****     {
 599:Drivers/STM32F4xx_HAL_Driver/Src/stm32f4xx_hal_i2c.c ****       return  HAL_ERROR;
 702              		.loc 1 599 0 is_stmt 1
 703 002a 0123     		movs	r3, #1
 704 002c 5CE1     		b	.L43
 705              	.L42:
 600:Drivers/STM32F4xx_HAL_Driver/Src/stm32f4xx_hal_i2c.c ****     }
 601:Drivers/STM32F4xx_HAL_Driver/Src/stm32f4xx_hal_i2c.c **** 
 602:Drivers/STM32F4xx_HAL_Driver/Src/stm32f4xx_hal_i2c.c ****     /* Wait until BUSY flag is reset */
 603:Drivers/STM32F4xx_HAL_Driver/Src/stm32f4xx_hal_i2c.c ****     if(I2C_WaitOnFlagUntilTimeout(hi2c, I2C_FLAG_BUSY, SET, I2C_TIMEOUT_BUSY_FLAG) != HAL_OK)
 706              		.loc 1 603 0
 707 002e F868     		ldr	r0, [r7, #12]
 708 0030 9449     		ldr	r1, .L62
 709 0032 0122     		movs	r2, #1
 710 0034 42F21073 		movw	r3, #10000
 711 0038 FFF7FEFF 		bl	I2C_WaitOnFlagUntilTimeout
 712 003c 0346     		mov	r3, r0
 713 003e 002B     		cmp	r3, #0
 714 0040 01D0     		beq	.L44
 604:Drivers/STM32F4xx_HAL_Driver/Src/stm32f4xx_hal_i2c.c ****     {
 605:Drivers/STM32F4xx_HAL_Driver/Src/stm32f4xx_hal_i2c.c ****       return HAL_BUSY;
 715              		.loc 1 605 0
 716 0042 0223     		movs	r3, #2
ARM GAS  /tmp/cc5bMm9J.s 			page 24


 717 0044 50E1     		b	.L43
 718              	.L44:
 606:Drivers/STM32F4xx_HAL_Driver/Src/stm32f4xx_hal_i2c.c ****     }
 607:Drivers/STM32F4xx_HAL_Driver/Src/stm32f4xx_hal_i2c.c ****     
 608:Drivers/STM32F4xx_HAL_Driver/Src/stm32f4xx_hal_i2c.c ****     /* Process Locked */
 609:Drivers/STM32F4xx_HAL_Driver/Src/stm32f4xx_hal_i2c.c ****     __HAL_LOCK(hi2c);
 719              		.loc 1 609 0
 720 0046 FB68     		ldr	r3, [r7, #12]
 721 0048 93F83430 		ldrb	r3, [r3, #52]	@ zero_extendqisi2
 722 004c 012B     		cmp	r3, #1
 723 004e 01D1     		bne	.L45
 724              		.loc 1 609 0 is_stmt 0 discriminator 1
 725 0050 0223     		movs	r3, #2
 726 0052 49E1     		b	.L43
 727              	.L45:
 728              		.loc 1 609 0 discriminator 2
 729 0054 FB68     		ldr	r3, [r7, #12]
 730 0056 0122     		movs	r2, #1
 731 0058 83F83420 		strb	r2, [r3, #52]
 610:Drivers/STM32F4xx_HAL_Driver/Src/stm32f4xx_hal_i2c.c ****     
 611:Drivers/STM32F4xx_HAL_Driver/Src/stm32f4xx_hal_i2c.c ****     /* Disable Pos */
 612:Drivers/STM32F4xx_HAL_Driver/Src/stm32f4xx_hal_i2c.c ****     hi2c->Instance->CR1 &= ~I2C_CR1_POS;
 732              		.loc 1 612 0 is_stmt 1 discriminator 2
 733 005c FB68     		ldr	r3, [r7, #12]
 734 005e 1B68     		ldr	r3, [r3]
 735 0060 FA68     		ldr	r2, [r7, #12]
 736 0062 1268     		ldr	r2, [r2]
 737 0064 1268     		ldr	r2, [r2]
 738 0066 22F40062 		bic	r2, r2, #2048
 739 006a 1A60     		str	r2, [r3]
 613:Drivers/STM32F4xx_HAL_Driver/Src/stm32f4xx_hal_i2c.c **** 
 614:Drivers/STM32F4xx_HAL_Driver/Src/stm32f4xx_hal_i2c.c ****     hi2c->State = HAL_I2C_STATE_BUSY_RX;
 740              		.loc 1 614 0 discriminator 2
 741 006c FB68     		ldr	r3, [r7, #12]
 742 006e 2222     		movs	r2, #34
 743 0070 83F83520 		strb	r2, [r3, #53]
 615:Drivers/STM32F4xx_HAL_Driver/Src/stm32f4xx_hal_i2c.c ****     hi2c->ErrorCode = HAL_I2C_ERROR_NONE;
 744              		.loc 1 615 0 discriminator 2
 745 0074 FB68     		ldr	r3, [r7, #12]
 746 0076 0022     		movs	r2, #0
 747 0078 9A63     		str	r2, [r3, #56]
 616:Drivers/STM32F4xx_HAL_Driver/Src/stm32f4xx_hal_i2c.c **** 
 617:Drivers/STM32F4xx_HAL_Driver/Src/stm32f4xx_hal_i2c.c ****     /* Send Slave Address */
 618:Drivers/STM32F4xx_HAL_Driver/Src/stm32f4xx_hal_i2c.c ****     if(I2C_MasterRequestRead(hi2c, DevAddress, Timeout) != HAL_OK)
 748              		.loc 1 618 0 discriminator 2
 749 007a 7B89     		ldrh	r3, [r7, #10]
 750 007c F868     		ldr	r0, [r7, #12]
 751 007e 1946     		mov	r1, r3
 752 0080 BA6A     		ldr	r2, [r7, #40]
 753 0082 FFF7FEFF 		bl	I2C_MasterRequestRead
 754 0086 0346     		mov	r3, r0
 755 0088 002B     		cmp	r3, #0
 756 008a 0FD0     		beq	.L46
 619:Drivers/STM32F4xx_HAL_Driver/Src/stm32f4xx_hal_i2c.c ****     {
 620:Drivers/STM32F4xx_HAL_Driver/Src/stm32f4xx_hal_i2c.c ****       if(hi2c->ErrorCode == HAL_I2C_ERROR_AF)
 757              		.loc 1 620 0
 758 008c FB68     		ldr	r3, [r7, #12]
ARM GAS  /tmp/cc5bMm9J.s 			page 25


 759 008e 9B6B     		ldr	r3, [r3, #56]
 760 0090 042B     		cmp	r3, #4
 761 0092 05D1     		bne	.L47
 621:Drivers/STM32F4xx_HAL_Driver/Src/stm32f4xx_hal_i2c.c ****       {
 622:Drivers/STM32F4xx_HAL_Driver/Src/stm32f4xx_hal_i2c.c ****         /* Process Unlocked */
 623:Drivers/STM32F4xx_HAL_Driver/Src/stm32f4xx_hal_i2c.c ****         __HAL_UNLOCK(hi2c);
 762              		.loc 1 623 0
 763 0094 FB68     		ldr	r3, [r7, #12]
 764 0096 0022     		movs	r2, #0
 765 0098 83F83420 		strb	r2, [r3, #52]
 624:Drivers/STM32F4xx_HAL_Driver/Src/stm32f4xx_hal_i2c.c ****         return HAL_ERROR;
 766              		.loc 1 624 0
 767 009c 0123     		movs	r3, #1
 768 009e 23E1     		b	.L43
 769              	.L47:
 625:Drivers/STM32F4xx_HAL_Driver/Src/stm32f4xx_hal_i2c.c ****       }
 626:Drivers/STM32F4xx_HAL_Driver/Src/stm32f4xx_hal_i2c.c ****       else
 627:Drivers/STM32F4xx_HAL_Driver/Src/stm32f4xx_hal_i2c.c ****       {
 628:Drivers/STM32F4xx_HAL_Driver/Src/stm32f4xx_hal_i2c.c ****         /* Process Unlocked */
 629:Drivers/STM32F4xx_HAL_Driver/Src/stm32f4xx_hal_i2c.c ****         __HAL_UNLOCK(hi2c);
 770              		.loc 1 629 0
 771 00a0 FB68     		ldr	r3, [r7, #12]
 772 00a2 0022     		movs	r2, #0
 773 00a4 83F83420 		strb	r2, [r3, #52]
 630:Drivers/STM32F4xx_HAL_Driver/Src/stm32f4xx_hal_i2c.c ****         return HAL_TIMEOUT;
 774              		.loc 1 630 0
 775 00a8 0323     		movs	r3, #3
 776 00aa 1DE1     		b	.L43
 777              	.L46:
 631:Drivers/STM32F4xx_HAL_Driver/Src/stm32f4xx_hal_i2c.c ****       }
 632:Drivers/STM32F4xx_HAL_Driver/Src/stm32f4xx_hal_i2c.c ****     }
 633:Drivers/STM32F4xx_HAL_Driver/Src/stm32f4xx_hal_i2c.c **** 
 634:Drivers/STM32F4xx_HAL_Driver/Src/stm32f4xx_hal_i2c.c ****     if(Size == 1)
 778              		.loc 1 634 0
 779 00ac 3B89     		ldrh	r3, [r7, #8]
 780 00ae 012B     		cmp	r3, #1
 781 00b0 19D1     		bne	.L48
 635:Drivers/STM32F4xx_HAL_Driver/Src/stm32f4xx_hal_i2c.c ****     {
 636:Drivers/STM32F4xx_HAL_Driver/Src/stm32f4xx_hal_i2c.c ****       /* Disable Acknowledge */
 637:Drivers/STM32F4xx_HAL_Driver/Src/stm32f4xx_hal_i2c.c ****       hi2c->Instance->CR1 &= ~I2C_CR1_ACK;
 782              		.loc 1 637 0
 783 00b2 FB68     		ldr	r3, [r7, #12]
 784 00b4 1B68     		ldr	r3, [r3]
 785 00b6 FA68     		ldr	r2, [r7, #12]
 786 00b8 1268     		ldr	r2, [r2]
 787 00ba 1268     		ldr	r2, [r2]
 788 00bc 22F48062 		bic	r2, r2, #1024
 789 00c0 1A60     		str	r2, [r3]
 790              	.LBB3:
 638:Drivers/STM32F4xx_HAL_Driver/Src/stm32f4xx_hal_i2c.c **** 
 639:Drivers/STM32F4xx_HAL_Driver/Src/stm32f4xx_hal_i2c.c ****       /* Clear ADDR flag */
 640:Drivers/STM32F4xx_HAL_Driver/Src/stm32f4xx_hal_i2c.c ****       __HAL_I2C_CLEAR_ADDRFLAG(hi2c);
 791              		.loc 1 640 0
 792 00c2 FB68     		ldr	r3, [r7, #12]
 793 00c4 1B68     		ldr	r3, [r3]
 794 00c6 5B69     		ldr	r3, [r3, #20]
 795 00c8 FB61     		str	r3, [r7, #28]
ARM GAS  /tmp/cc5bMm9J.s 			page 26


 796 00ca FB68     		ldr	r3, [r7, #12]
 797 00cc 1B68     		ldr	r3, [r3]
 798 00ce 9B69     		ldr	r3, [r3, #24]
 799 00d0 FB61     		str	r3, [r7, #28]
 800 00d2 FB69     		ldr	r3, [r7, #28]
 801              	.LBE3:
 641:Drivers/STM32F4xx_HAL_Driver/Src/stm32f4xx_hal_i2c.c **** 
 642:Drivers/STM32F4xx_HAL_Driver/Src/stm32f4xx_hal_i2c.c ****       /* Generate Stop */
 643:Drivers/STM32F4xx_HAL_Driver/Src/stm32f4xx_hal_i2c.c ****       hi2c->Instance->CR1 |= I2C_CR1_STOP;
 802              		.loc 1 643 0
 803 00d4 FB68     		ldr	r3, [r7, #12]
 804 00d6 1B68     		ldr	r3, [r3]
 805 00d8 FA68     		ldr	r2, [r7, #12]
 806 00da 1268     		ldr	r2, [r2]
 807 00dc 1268     		ldr	r2, [r2]
 808 00de 42F40072 		orr	r2, r2, #512
 809 00e2 1A60     		str	r2, [r3]
 810 00e4 2EE0     		b	.L49
 811              	.L48:
 644:Drivers/STM32F4xx_HAL_Driver/Src/stm32f4xx_hal_i2c.c ****     }
 645:Drivers/STM32F4xx_HAL_Driver/Src/stm32f4xx_hal_i2c.c ****     else if(Size == 2)
 812              		.loc 1 645 0
 813 00e6 3B89     		ldrh	r3, [r7, #8]
 814 00e8 022B     		cmp	r3, #2
 815 00ea 19D1     		bne	.L50
 646:Drivers/STM32F4xx_HAL_Driver/Src/stm32f4xx_hal_i2c.c ****     {
 647:Drivers/STM32F4xx_HAL_Driver/Src/stm32f4xx_hal_i2c.c ****       /* Disable Acknowledge */
 648:Drivers/STM32F4xx_HAL_Driver/Src/stm32f4xx_hal_i2c.c ****       hi2c->Instance->CR1 &= ~I2C_CR1_ACK;
 816              		.loc 1 648 0
 817 00ec FB68     		ldr	r3, [r7, #12]
 818 00ee 1B68     		ldr	r3, [r3]
 819 00f0 FA68     		ldr	r2, [r7, #12]
 820 00f2 1268     		ldr	r2, [r2]
 821 00f4 1268     		ldr	r2, [r2]
 822 00f6 22F48062 		bic	r2, r2, #1024
 823 00fa 1A60     		str	r2, [r3]
 649:Drivers/STM32F4xx_HAL_Driver/Src/stm32f4xx_hal_i2c.c **** 
 650:Drivers/STM32F4xx_HAL_Driver/Src/stm32f4xx_hal_i2c.c ****       /* Enable Pos */
 651:Drivers/STM32F4xx_HAL_Driver/Src/stm32f4xx_hal_i2c.c ****       hi2c->Instance->CR1 |= I2C_CR1_POS;
 824              		.loc 1 651 0
 825 00fc FB68     		ldr	r3, [r7, #12]
 826 00fe 1B68     		ldr	r3, [r3]
 827 0100 FA68     		ldr	r2, [r7, #12]
 828 0102 1268     		ldr	r2, [r2]
 829 0104 1268     		ldr	r2, [r2]
 830 0106 42F40062 		orr	r2, r2, #2048
 831 010a 1A60     		str	r2, [r3]
 832              	.LBB4:
 652:Drivers/STM32F4xx_HAL_Driver/Src/stm32f4xx_hal_i2c.c **** 
 653:Drivers/STM32F4xx_HAL_Driver/Src/stm32f4xx_hal_i2c.c ****       /* Clear ADDR flag */
 654:Drivers/STM32F4xx_HAL_Driver/Src/stm32f4xx_hal_i2c.c ****       __HAL_I2C_CLEAR_ADDRFLAG(hi2c);
 833              		.loc 1 654 0
 834 010c FB68     		ldr	r3, [r7, #12]
 835 010e 1B68     		ldr	r3, [r3]
 836 0110 5B69     		ldr	r3, [r3, #20]
 837 0112 BB61     		str	r3, [r7, #24]
 838 0114 FB68     		ldr	r3, [r7, #12]
ARM GAS  /tmp/cc5bMm9J.s 			page 27


 839 0116 1B68     		ldr	r3, [r3]
 840 0118 9B69     		ldr	r3, [r3, #24]
 841 011a BB61     		str	r3, [r7, #24]
 842 011c BB69     		ldr	r3, [r7, #24]
 843              	.LBE4:
 844 011e 11E0     		b	.L49
 845              	.L50:
 655:Drivers/STM32F4xx_HAL_Driver/Src/stm32f4xx_hal_i2c.c ****     }
 656:Drivers/STM32F4xx_HAL_Driver/Src/stm32f4xx_hal_i2c.c ****     else
 657:Drivers/STM32F4xx_HAL_Driver/Src/stm32f4xx_hal_i2c.c ****     {
 658:Drivers/STM32F4xx_HAL_Driver/Src/stm32f4xx_hal_i2c.c ****       /* Enable Acknowledge */
 659:Drivers/STM32F4xx_HAL_Driver/Src/stm32f4xx_hal_i2c.c ****       hi2c->Instance->CR1 |= I2C_CR1_ACK;
 846              		.loc 1 659 0
 847 0120 FB68     		ldr	r3, [r7, #12]
 848 0122 1B68     		ldr	r3, [r3]
 849 0124 FA68     		ldr	r2, [r7, #12]
 850 0126 1268     		ldr	r2, [r2]
 851 0128 1268     		ldr	r2, [r2]
 852 012a 42F48062 		orr	r2, r2, #1024
 853 012e 1A60     		str	r2, [r3]
 854              	.LBB5:
 660:Drivers/STM32F4xx_HAL_Driver/Src/stm32f4xx_hal_i2c.c **** 
 661:Drivers/STM32F4xx_HAL_Driver/Src/stm32f4xx_hal_i2c.c ****       /* Clear ADDR flag */
 662:Drivers/STM32F4xx_HAL_Driver/Src/stm32f4xx_hal_i2c.c ****       __HAL_I2C_CLEAR_ADDRFLAG(hi2c);
 855              		.loc 1 662 0
 856 0130 FB68     		ldr	r3, [r7, #12]
 857 0132 1B68     		ldr	r3, [r3]
 858 0134 5B69     		ldr	r3, [r3, #20]
 859 0136 7B61     		str	r3, [r7, #20]
 860 0138 FB68     		ldr	r3, [r7, #12]
 861 013a 1B68     		ldr	r3, [r3]
 862 013c 9B69     		ldr	r3, [r3, #24]
 863 013e 7B61     		str	r3, [r7, #20]
 864 0140 7B69     		ldr	r3, [r7, #20]
 865              	.LBE5:
 663:Drivers/STM32F4xx_HAL_Driver/Src/stm32f4xx_hal_i2c.c ****     }
 664:Drivers/STM32F4xx_HAL_Driver/Src/stm32f4xx_hal_i2c.c **** 
 665:Drivers/STM32F4xx_HAL_Driver/Src/stm32f4xx_hal_i2c.c ****     while(Size > 0)
 866              		.loc 1 665 0
 867 0142 C2E0     		b	.L51
 868              	.L49:
 869 0144 C1E0     		b	.L51
 870              	.L61:
 666:Drivers/STM32F4xx_HAL_Driver/Src/stm32f4xx_hal_i2c.c ****     {
 667:Drivers/STM32F4xx_HAL_Driver/Src/stm32f4xx_hal_i2c.c ****       if(Size <= 3)
 871              		.loc 1 667 0
 872 0146 3B89     		ldrh	r3, [r7, #8]
 873 0148 032B     		cmp	r3, #3
 874 014a 00F28F80 		bhi	.L52
 668:Drivers/STM32F4xx_HAL_Driver/Src/stm32f4xx_hal_i2c.c ****       {
 669:Drivers/STM32F4xx_HAL_Driver/Src/stm32f4xx_hal_i2c.c ****         /* One byte */
 670:Drivers/STM32F4xx_HAL_Driver/Src/stm32f4xx_hal_i2c.c ****         if(Size == 1)
 875              		.loc 1 670 0
 876 014e 3B89     		ldrh	r3, [r7, #8]
 877 0150 012B     		cmp	r3, #1
 878 0152 16D1     		bne	.L53
 671:Drivers/STM32F4xx_HAL_Driver/Src/stm32f4xx_hal_i2c.c ****         {
ARM GAS  /tmp/cc5bMm9J.s 			page 28


 672:Drivers/STM32F4xx_HAL_Driver/Src/stm32f4xx_hal_i2c.c ****           /* Wait until RXNE flag is set */
 673:Drivers/STM32F4xx_HAL_Driver/Src/stm32f4xx_hal_i2c.c ****           if(I2C_WaitOnFlagUntilTimeout(hi2c, I2C_FLAG_RXNE, RESET, Timeout) != HAL_OK)
 879              		.loc 1 673 0
 880 0154 F868     		ldr	r0, [r7, #12]
 881 0156 4C49     		ldr	r1, .L62+4
 882 0158 0022     		movs	r2, #0
 883 015a BB6A     		ldr	r3, [r7, #40]
 884 015c FFF7FEFF 		bl	I2C_WaitOnFlagUntilTimeout
 885 0160 0346     		mov	r3, r0
 886 0162 002B     		cmp	r3, #0
 887 0164 01D0     		beq	.L54
 674:Drivers/STM32F4xx_HAL_Driver/Src/stm32f4xx_hal_i2c.c ****           {
 675:Drivers/STM32F4xx_HAL_Driver/Src/stm32f4xx_hal_i2c.c ****             return HAL_TIMEOUT;
 888              		.loc 1 675 0
 889 0166 0323     		movs	r3, #3
 890 0168 BEE0     		b	.L43
 891              	.L54:
 676:Drivers/STM32F4xx_HAL_Driver/Src/stm32f4xx_hal_i2c.c ****           }
 677:Drivers/STM32F4xx_HAL_Driver/Src/stm32f4xx_hal_i2c.c **** 
 678:Drivers/STM32F4xx_HAL_Driver/Src/stm32f4xx_hal_i2c.c ****           /* Read data from DR */
 679:Drivers/STM32F4xx_HAL_Driver/Src/stm32f4xx_hal_i2c.c ****           (*pData++) = hi2c->Instance->DR;
 892              		.loc 1 679 0
 893 016a 7B68     		ldr	r3, [r7, #4]
 894 016c 5A1C     		adds	r2, r3, #1
 895 016e 7A60     		str	r2, [r7, #4]
 896 0170 FA68     		ldr	r2, [r7, #12]
 897 0172 1268     		ldr	r2, [r2]
 898 0174 1269     		ldr	r2, [r2, #16]
 899 0176 D2B2     		uxtb	r2, r2
 900 0178 1A70     		strb	r2, [r3]
 680:Drivers/STM32F4xx_HAL_Driver/Src/stm32f4xx_hal_i2c.c ****           Size--;
 901              		.loc 1 680 0
 902 017a 3B89     		ldrh	r3, [r7, #8]
 903 017c 013B     		subs	r3, r3, #1
 904 017e 3B81     		strh	r3, [r7, #8]	@ movhi
 905 0180 A3E0     		b	.L51
 906              	.L53:
 681:Drivers/STM32F4xx_HAL_Driver/Src/stm32f4xx_hal_i2c.c ****         }
 682:Drivers/STM32F4xx_HAL_Driver/Src/stm32f4xx_hal_i2c.c ****         /* Two bytes */
 683:Drivers/STM32F4xx_HAL_Driver/Src/stm32f4xx_hal_i2c.c ****         else if(Size == 2)
 907              		.loc 1 683 0
 908 0182 3B89     		ldrh	r3, [r7, #8]
 909 0184 022B     		cmp	r3, #2
 910 0186 29D1     		bne	.L56
 684:Drivers/STM32F4xx_HAL_Driver/Src/stm32f4xx_hal_i2c.c ****         {
 685:Drivers/STM32F4xx_HAL_Driver/Src/stm32f4xx_hal_i2c.c ****           /* Wait until BTF flag is set */
 686:Drivers/STM32F4xx_HAL_Driver/Src/stm32f4xx_hal_i2c.c ****           if(I2C_WaitOnFlagUntilTimeout(hi2c, I2C_FLAG_BTF, RESET, Timeout) != HAL_OK)
 911              		.loc 1 686 0
 912 0188 F868     		ldr	r0, [r7, #12]
 913 018a 4049     		ldr	r1, .L62+8
 914 018c 0022     		movs	r2, #0
 915 018e BB6A     		ldr	r3, [r7, #40]
 916 0190 FFF7FEFF 		bl	I2C_WaitOnFlagUntilTimeout
 917 0194 0346     		mov	r3, r0
 918 0196 002B     		cmp	r3, #0
 919 0198 01D0     		beq	.L57
 687:Drivers/STM32F4xx_HAL_Driver/Src/stm32f4xx_hal_i2c.c ****           {
ARM GAS  /tmp/cc5bMm9J.s 			page 29


 688:Drivers/STM32F4xx_HAL_Driver/Src/stm32f4xx_hal_i2c.c ****             return HAL_TIMEOUT;
 920              		.loc 1 688 0
 921 019a 0323     		movs	r3, #3
 922 019c A4E0     		b	.L43
 923              	.L57:
 689:Drivers/STM32F4xx_HAL_Driver/Src/stm32f4xx_hal_i2c.c ****           }
 690:Drivers/STM32F4xx_HAL_Driver/Src/stm32f4xx_hal_i2c.c **** 
 691:Drivers/STM32F4xx_HAL_Driver/Src/stm32f4xx_hal_i2c.c ****           /* Generate Stop */
 692:Drivers/STM32F4xx_HAL_Driver/Src/stm32f4xx_hal_i2c.c ****           hi2c->Instance->CR1 |= I2C_CR1_STOP;
 924              		.loc 1 692 0
 925 019e FB68     		ldr	r3, [r7, #12]
 926 01a0 1B68     		ldr	r3, [r3]
 927 01a2 FA68     		ldr	r2, [r7, #12]
 928 01a4 1268     		ldr	r2, [r2]
 929 01a6 1268     		ldr	r2, [r2]
 930 01a8 42F40072 		orr	r2, r2, #512
 931 01ac 1A60     		str	r2, [r3]
 693:Drivers/STM32F4xx_HAL_Driver/Src/stm32f4xx_hal_i2c.c **** 
 694:Drivers/STM32F4xx_HAL_Driver/Src/stm32f4xx_hal_i2c.c ****           /* Read data from DR */
 695:Drivers/STM32F4xx_HAL_Driver/Src/stm32f4xx_hal_i2c.c ****           (*pData++) = hi2c->Instance->DR;
 932              		.loc 1 695 0
 933 01ae 7B68     		ldr	r3, [r7, #4]
 934 01b0 5A1C     		adds	r2, r3, #1
 935 01b2 7A60     		str	r2, [r7, #4]
 936 01b4 FA68     		ldr	r2, [r7, #12]
 937 01b6 1268     		ldr	r2, [r2]
 938 01b8 1269     		ldr	r2, [r2, #16]
 939 01ba D2B2     		uxtb	r2, r2
 940 01bc 1A70     		strb	r2, [r3]
 696:Drivers/STM32F4xx_HAL_Driver/Src/stm32f4xx_hal_i2c.c ****           Size--;
 941              		.loc 1 696 0
 942 01be 3B89     		ldrh	r3, [r7, #8]
 943 01c0 013B     		subs	r3, r3, #1
 944 01c2 3B81     		strh	r3, [r7, #8]	@ movhi
 697:Drivers/STM32F4xx_HAL_Driver/Src/stm32f4xx_hal_i2c.c **** 
 698:Drivers/STM32F4xx_HAL_Driver/Src/stm32f4xx_hal_i2c.c ****           /* Read data from DR */
 699:Drivers/STM32F4xx_HAL_Driver/Src/stm32f4xx_hal_i2c.c ****           (*pData++) = hi2c->Instance->DR;
 945              		.loc 1 699 0
 946 01c4 7B68     		ldr	r3, [r7, #4]
 947 01c6 5A1C     		adds	r2, r3, #1
 948 01c8 7A60     		str	r2, [r7, #4]
 949 01ca FA68     		ldr	r2, [r7, #12]
 950 01cc 1268     		ldr	r2, [r2]
 951 01ce 1269     		ldr	r2, [r2, #16]
 952 01d0 D2B2     		uxtb	r2, r2
 953 01d2 1A70     		strb	r2, [r3]
 700:Drivers/STM32F4xx_HAL_Driver/Src/stm32f4xx_hal_i2c.c ****           Size--;
 954              		.loc 1 700 0
 955 01d4 3B89     		ldrh	r3, [r7, #8]
 956 01d6 013B     		subs	r3, r3, #1
 957 01d8 3B81     		strh	r3, [r7, #8]	@ movhi
 958 01da 76E0     		b	.L51
 959              	.L56:
 701:Drivers/STM32F4xx_HAL_Driver/Src/stm32f4xx_hal_i2c.c ****         }
 702:Drivers/STM32F4xx_HAL_Driver/Src/stm32f4xx_hal_i2c.c ****         /* 3 Last bytes */
 703:Drivers/STM32F4xx_HAL_Driver/Src/stm32f4xx_hal_i2c.c ****         else
 704:Drivers/STM32F4xx_HAL_Driver/Src/stm32f4xx_hal_i2c.c ****         {
ARM GAS  /tmp/cc5bMm9J.s 			page 30


 705:Drivers/STM32F4xx_HAL_Driver/Src/stm32f4xx_hal_i2c.c ****           /* Wait until BTF flag is set */
 706:Drivers/STM32F4xx_HAL_Driver/Src/stm32f4xx_hal_i2c.c ****           if(I2C_WaitOnFlagUntilTimeout(hi2c, I2C_FLAG_BTF, RESET, Timeout) != HAL_OK)
 960              		.loc 1 706 0
 961 01dc F868     		ldr	r0, [r7, #12]
 962 01de 2B49     		ldr	r1, .L62+8
 963 01e0 0022     		movs	r2, #0
 964 01e2 BB6A     		ldr	r3, [r7, #40]
 965 01e4 FFF7FEFF 		bl	I2C_WaitOnFlagUntilTimeout
 966 01e8 0346     		mov	r3, r0
 967 01ea 002B     		cmp	r3, #0
 968 01ec 01D0     		beq	.L58
 707:Drivers/STM32F4xx_HAL_Driver/Src/stm32f4xx_hal_i2c.c ****           {
 708:Drivers/STM32F4xx_HAL_Driver/Src/stm32f4xx_hal_i2c.c ****             return HAL_TIMEOUT;
 969              		.loc 1 708 0
 970 01ee 0323     		movs	r3, #3
 971 01f0 7AE0     		b	.L43
 972              	.L58:
 709:Drivers/STM32F4xx_HAL_Driver/Src/stm32f4xx_hal_i2c.c ****           }
 710:Drivers/STM32F4xx_HAL_Driver/Src/stm32f4xx_hal_i2c.c **** 
 711:Drivers/STM32F4xx_HAL_Driver/Src/stm32f4xx_hal_i2c.c ****           /* Disable Acknowledge */
 712:Drivers/STM32F4xx_HAL_Driver/Src/stm32f4xx_hal_i2c.c ****           hi2c->Instance->CR1 &= ~I2C_CR1_ACK;
 973              		.loc 1 712 0
 974 01f2 FB68     		ldr	r3, [r7, #12]
 975 01f4 1B68     		ldr	r3, [r3]
 976 01f6 FA68     		ldr	r2, [r7, #12]
 977 01f8 1268     		ldr	r2, [r2]
 978 01fa 1268     		ldr	r2, [r2]
 979 01fc 22F48062 		bic	r2, r2, #1024
 980 0200 1A60     		str	r2, [r3]
 713:Drivers/STM32F4xx_HAL_Driver/Src/stm32f4xx_hal_i2c.c **** 
 714:Drivers/STM32F4xx_HAL_Driver/Src/stm32f4xx_hal_i2c.c ****           /* Read data from DR */
 715:Drivers/STM32F4xx_HAL_Driver/Src/stm32f4xx_hal_i2c.c ****           (*pData++) = hi2c->Instance->DR;
 981              		.loc 1 715 0
 982 0202 7B68     		ldr	r3, [r7, #4]
 983 0204 5A1C     		adds	r2, r3, #1
 984 0206 7A60     		str	r2, [r7, #4]
 985 0208 FA68     		ldr	r2, [r7, #12]
 986 020a 1268     		ldr	r2, [r2]
 987 020c 1269     		ldr	r2, [r2, #16]
 988 020e D2B2     		uxtb	r2, r2
 989 0210 1A70     		strb	r2, [r3]
 716:Drivers/STM32F4xx_HAL_Driver/Src/stm32f4xx_hal_i2c.c ****           Size--;
 990              		.loc 1 716 0
 991 0212 3B89     		ldrh	r3, [r7, #8]
 992 0214 013B     		subs	r3, r3, #1
 993 0216 3B81     		strh	r3, [r7, #8]	@ movhi
 717:Drivers/STM32F4xx_HAL_Driver/Src/stm32f4xx_hal_i2c.c **** 
 718:Drivers/STM32F4xx_HAL_Driver/Src/stm32f4xx_hal_i2c.c ****           /* Wait until BTF flag is set */
 719:Drivers/STM32F4xx_HAL_Driver/Src/stm32f4xx_hal_i2c.c ****           if(I2C_WaitOnFlagUntilTimeout(hi2c, I2C_FLAG_BTF, RESET, Timeout) != HAL_OK)
 994              		.loc 1 719 0
 995 0218 F868     		ldr	r0, [r7, #12]
 996 021a 1C49     		ldr	r1, .L62+8
 997 021c 0022     		movs	r2, #0
 998 021e BB6A     		ldr	r3, [r7, #40]
 999 0220 FFF7FEFF 		bl	I2C_WaitOnFlagUntilTimeout
 1000 0224 0346     		mov	r3, r0
 1001 0226 002B     		cmp	r3, #0
ARM GAS  /tmp/cc5bMm9J.s 			page 31


 1002 0228 01D0     		beq	.L59
 720:Drivers/STM32F4xx_HAL_Driver/Src/stm32f4xx_hal_i2c.c ****           {
 721:Drivers/STM32F4xx_HAL_Driver/Src/stm32f4xx_hal_i2c.c ****             return HAL_TIMEOUT;
 1003              		.loc 1 721 0
 1004 022a 0323     		movs	r3, #3
 1005 022c 5CE0     		b	.L43
 1006              	.L59:
 722:Drivers/STM32F4xx_HAL_Driver/Src/stm32f4xx_hal_i2c.c ****           }
 723:Drivers/STM32F4xx_HAL_Driver/Src/stm32f4xx_hal_i2c.c **** 
 724:Drivers/STM32F4xx_HAL_Driver/Src/stm32f4xx_hal_i2c.c ****           /* Generate Stop */
 725:Drivers/STM32F4xx_HAL_Driver/Src/stm32f4xx_hal_i2c.c ****           hi2c->Instance->CR1 |= I2C_CR1_STOP;
 1007              		.loc 1 725 0
 1008 022e FB68     		ldr	r3, [r7, #12]
 1009 0230 1B68     		ldr	r3, [r3]
 1010 0232 FA68     		ldr	r2, [r7, #12]
 1011 0234 1268     		ldr	r2, [r2]
 1012 0236 1268     		ldr	r2, [r2]
 1013 0238 42F40072 		orr	r2, r2, #512
 1014 023c 1A60     		str	r2, [r3]
 726:Drivers/STM32F4xx_HAL_Driver/Src/stm32f4xx_hal_i2c.c **** 
 727:Drivers/STM32F4xx_HAL_Driver/Src/stm32f4xx_hal_i2c.c ****           /* Read data from DR */
 728:Drivers/STM32F4xx_HAL_Driver/Src/stm32f4xx_hal_i2c.c ****           (*pData++) = hi2c->Instance->DR;
 1015              		.loc 1 728 0
 1016 023e 7B68     		ldr	r3, [r7, #4]
 1017 0240 5A1C     		adds	r2, r3, #1
 1018 0242 7A60     		str	r2, [r7, #4]
 1019 0244 FA68     		ldr	r2, [r7, #12]
 1020 0246 1268     		ldr	r2, [r2]
 1021 0248 1269     		ldr	r2, [r2, #16]
 1022 024a D2B2     		uxtb	r2, r2
 1023 024c 1A70     		strb	r2, [r3]
 729:Drivers/STM32F4xx_HAL_Driver/Src/stm32f4xx_hal_i2c.c ****           Size--;
 1024              		.loc 1 729 0
 1025 024e 3B89     		ldrh	r3, [r7, #8]
 1026 0250 013B     		subs	r3, r3, #1
 1027 0252 3B81     		strh	r3, [r7, #8]	@ movhi
 730:Drivers/STM32F4xx_HAL_Driver/Src/stm32f4xx_hal_i2c.c **** 
 731:Drivers/STM32F4xx_HAL_Driver/Src/stm32f4xx_hal_i2c.c ****           /* Read data from DR */
 732:Drivers/STM32F4xx_HAL_Driver/Src/stm32f4xx_hal_i2c.c ****           (*pData++) = hi2c->Instance->DR;
 1028              		.loc 1 732 0
 1029 0254 7B68     		ldr	r3, [r7, #4]
 1030 0256 5A1C     		adds	r2, r3, #1
 1031 0258 7A60     		str	r2, [r7, #4]
 1032 025a FA68     		ldr	r2, [r7, #12]
 1033 025c 1268     		ldr	r2, [r2]
 1034 025e 1269     		ldr	r2, [r2, #16]
 1035 0260 D2B2     		uxtb	r2, r2
 1036 0262 1A70     		strb	r2, [r3]
 733:Drivers/STM32F4xx_HAL_Driver/Src/stm32f4xx_hal_i2c.c ****           Size--;
 1037              		.loc 1 733 0
 1038 0264 3B89     		ldrh	r3, [r7, #8]
 1039 0266 013B     		subs	r3, r3, #1
 1040 0268 3B81     		strh	r3, [r7, #8]	@ movhi
 1041 026a 2EE0     		b	.L51
 1042              	.L52:
 734:Drivers/STM32F4xx_HAL_Driver/Src/stm32f4xx_hal_i2c.c ****         }
 735:Drivers/STM32F4xx_HAL_Driver/Src/stm32f4xx_hal_i2c.c ****       }
ARM GAS  /tmp/cc5bMm9J.s 			page 32


 736:Drivers/STM32F4xx_HAL_Driver/Src/stm32f4xx_hal_i2c.c ****       else
 737:Drivers/STM32F4xx_HAL_Driver/Src/stm32f4xx_hal_i2c.c ****       {
 738:Drivers/STM32F4xx_HAL_Driver/Src/stm32f4xx_hal_i2c.c ****         /* Wait until RXNE flag is set */
 739:Drivers/STM32F4xx_HAL_Driver/Src/stm32f4xx_hal_i2c.c ****         if(I2C_WaitOnFlagUntilTimeout(hi2c, I2C_FLAG_RXNE, RESET, Timeout) != HAL_OK)
 1043              		.loc 1 739 0
 1044 026c F868     		ldr	r0, [r7, #12]
 1045 026e 0649     		ldr	r1, .L62+4
 1046 0270 0022     		movs	r2, #0
 1047 0272 BB6A     		ldr	r3, [r7, #40]
 1048 0274 FFF7FEFF 		bl	I2C_WaitOnFlagUntilTimeout
 1049 0278 0346     		mov	r3, r0
 1050 027a 002B     		cmp	r3, #0
 1051 027c 08D0     		beq	.L60
 740:Drivers/STM32F4xx_HAL_Driver/Src/stm32f4xx_hal_i2c.c ****         {
 741:Drivers/STM32F4xx_HAL_Driver/Src/stm32f4xx_hal_i2c.c ****           return HAL_TIMEOUT;
 1052              		.loc 1 741 0
 1053 027e 0323     		movs	r3, #3
 1054 0280 32E0     		b	.L43
 1055              	.L63:
 1056 0282 00BF     		.align	2
 1057              	.L62:
 1058 0284 02001000 		.word	1048578
 1059 0288 40000100 		.word	65600
 1060 028c 04000100 		.word	65540
 1061              	.L60:
 742:Drivers/STM32F4xx_HAL_Driver/Src/stm32f4xx_hal_i2c.c ****         }
 743:Drivers/STM32F4xx_HAL_Driver/Src/stm32f4xx_hal_i2c.c **** 
 744:Drivers/STM32F4xx_HAL_Driver/Src/stm32f4xx_hal_i2c.c ****         /* Read data from DR */
 745:Drivers/STM32F4xx_HAL_Driver/Src/stm32f4xx_hal_i2c.c ****         (*pData++) = hi2c->Instance->DR;
 1062              		.loc 1 745 0
 1063 0290 7B68     		ldr	r3, [r7, #4]
 1064 0292 5A1C     		adds	r2, r3, #1
 1065 0294 7A60     		str	r2, [r7, #4]
 1066 0296 FA68     		ldr	r2, [r7, #12]
 1067 0298 1268     		ldr	r2, [r2]
 1068 029a 1269     		ldr	r2, [r2, #16]
 1069 029c D2B2     		uxtb	r2, r2
 1070 029e 1A70     		strb	r2, [r3]
 746:Drivers/STM32F4xx_HAL_Driver/Src/stm32f4xx_hal_i2c.c ****         Size--;
 1071              		.loc 1 746 0
 1072 02a0 3B89     		ldrh	r3, [r7, #8]
 1073 02a2 013B     		subs	r3, r3, #1
 1074 02a4 3B81     		strh	r3, [r7, #8]	@ movhi
 747:Drivers/STM32F4xx_HAL_Driver/Src/stm32f4xx_hal_i2c.c **** 
 748:Drivers/STM32F4xx_HAL_Driver/Src/stm32f4xx_hal_i2c.c ****         if(__HAL_I2C_GET_FLAG(hi2c, I2C_FLAG_BTF) == SET)
 1075              		.loc 1 748 0
 1076 02a6 FB68     		ldr	r3, [r7, #12]
 1077 02a8 1B68     		ldr	r3, [r3]
 1078 02aa 5B69     		ldr	r3, [r3, #20]
 1079 02ac 03F00403 		and	r3, r3, #4
 1080 02b0 002B     		cmp	r3, #0
 1081 02b2 0AD0     		beq	.L51
 749:Drivers/STM32F4xx_HAL_Driver/Src/stm32f4xx_hal_i2c.c ****         {
 750:Drivers/STM32F4xx_HAL_Driver/Src/stm32f4xx_hal_i2c.c ****           /* Read data from DR */
 751:Drivers/STM32F4xx_HAL_Driver/Src/stm32f4xx_hal_i2c.c ****           (*pData++) = hi2c->Instance->DR;
 1082              		.loc 1 751 0
 1083 02b4 7B68     		ldr	r3, [r7, #4]
ARM GAS  /tmp/cc5bMm9J.s 			page 33


 1084 02b6 5A1C     		adds	r2, r3, #1
 1085 02b8 7A60     		str	r2, [r7, #4]
 1086 02ba FA68     		ldr	r2, [r7, #12]
 1087 02bc 1268     		ldr	r2, [r2]
 1088 02be 1269     		ldr	r2, [r2, #16]
 1089 02c0 D2B2     		uxtb	r2, r2
 1090 02c2 1A70     		strb	r2, [r3]
 752:Drivers/STM32F4xx_HAL_Driver/Src/stm32f4xx_hal_i2c.c ****           Size--;
 1091              		.loc 1 752 0
 1092 02c4 3B89     		ldrh	r3, [r7, #8]
 1093 02c6 013B     		subs	r3, r3, #1
 1094 02c8 3B81     		strh	r3, [r7, #8]	@ movhi
 1095              	.L51:
 665:Drivers/STM32F4xx_HAL_Driver/Src/stm32f4xx_hal_i2c.c ****     {
 1096              		.loc 1 665 0 discriminator 1
 1097 02ca 3B89     		ldrh	r3, [r7, #8]
 1098 02cc 002B     		cmp	r3, #0
 1099 02ce 7FF43AAF 		bne	.L61
 753:Drivers/STM32F4xx_HAL_Driver/Src/stm32f4xx_hal_i2c.c ****         }
 754:Drivers/STM32F4xx_HAL_Driver/Src/stm32f4xx_hal_i2c.c ****       }
 755:Drivers/STM32F4xx_HAL_Driver/Src/stm32f4xx_hal_i2c.c ****     }
 756:Drivers/STM32F4xx_HAL_Driver/Src/stm32f4xx_hal_i2c.c **** 
 757:Drivers/STM32F4xx_HAL_Driver/Src/stm32f4xx_hal_i2c.c ****     hi2c->State = HAL_I2C_STATE_READY;
 1100              		.loc 1 757 0
 1101 02d2 FB68     		ldr	r3, [r7, #12]
 1102 02d4 0122     		movs	r2, #1
 1103 02d6 83F83520 		strb	r2, [r3, #53]
 758:Drivers/STM32F4xx_HAL_Driver/Src/stm32f4xx_hal_i2c.c **** 
 759:Drivers/STM32F4xx_HAL_Driver/Src/stm32f4xx_hal_i2c.c ****     /* Process Unlocked */
 760:Drivers/STM32F4xx_HAL_Driver/Src/stm32f4xx_hal_i2c.c ****     __HAL_UNLOCK(hi2c);
 1104              		.loc 1 760 0
 1105 02da FB68     		ldr	r3, [r7, #12]
 1106 02dc 0022     		movs	r2, #0
 1107 02de 83F83420 		strb	r2, [r3, #52]
 761:Drivers/STM32F4xx_HAL_Driver/Src/stm32f4xx_hal_i2c.c **** 
 762:Drivers/STM32F4xx_HAL_Driver/Src/stm32f4xx_hal_i2c.c ****     return HAL_OK;
 1108              		.loc 1 762 0
 1109 02e2 0023     		movs	r3, #0
 1110 02e4 00E0     		b	.L43
 1111              	.L40:
 763:Drivers/STM32F4xx_HAL_Driver/Src/stm32f4xx_hal_i2c.c ****   }
 764:Drivers/STM32F4xx_HAL_Driver/Src/stm32f4xx_hal_i2c.c ****   else
 765:Drivers/STM32F4xx_HAL_Driver/Src/stm32f4xx_hal_i2c.c ****   {
 766:Drivers/STM32F4xx_HAL_Driver/Src/stm32f4xx_hal_i2c.c ****     return HAL_BUSY;
 1112              		.loc 1 766 0
 1113 02e6 0223     		movs	r3, #2
 1114              	.L43:
 767:Drivers/STM32F4xx_HAL_Driver/Src/stm32f4xx_hal_i2c.c ****   }
 768:Drivers/STM32F4xx_HAL_Driver/Src/stm32f4xx_hal_i2c.c **** }
 1115              		.loc 1 768 0
 1116 02e8 1846     		mov	r0, r3
 1117 02ea 2037     		adds	r7, r7, #32
 1118 02ec BD46     		mov	sp, r7
 1119              		@ sp needed
 1120 02ee 80BD     		pop	{r7, pc}
 1121              		.cfi_endproc
 1122              	.LFE130:
ARM GAS  /tmp/cc5bMm9J.s 			page 34


 1124              		.section	.text.HAL_I2C_Slave_Transmit,"ax",%progbits
 1125              		.align	2
 1126              		.global	HAL_I2C_Slave_Transmit
 1127              		.thumb
 1128              		.thumb_func
 1130              	HAL_I2C_Slave_Transmit:
 1131              	.LFB131:
 769:Drivers/STM32F4xx_HAL_Driver/Src/stm32f4xx_hal_i2c.c **** 
 770:Drivers/STM32F4xx_HAL_Driver/Src/stm32f4xx_hal_i2c.c **** /**
 771:Drivers/STM32F4xx_HAL_Driver/Src/stm32f4xx_hal_i2c.c ****   * @brief  Transmits in slave mode an amount of data in blocking mode.
 772:Drivers/STM32F4xx_HAL_Driver/Src/stm32f4xx_hal_i2c.c ****   * @param  hi2c: pointer to a I2C_HandleTypeDef structure that contains
 773:Drivers/STM32F4xx_HAL_Driver/Src/stm32f4xx_hal_i2c.c ****   *         the configuration information for I2C module
 774:Drivers/STM32F4xx_HAL_Driver/Src/stm32f4xx_hal_i2c.c ****   * @param  pData: Pointer to data buffer
 775:Drivers/STM32F4xx_HAL_Driver/Src/stm32f4xx_hal_i2c.c ****   * @param  Size: Amount of data to be sent
 776:Drivers/STM32F4xx_HAL_Driver/Src/stm32f4xx_hal_i2c.c ****   * @param  Timeout: Timeout duration
 777:Drivers/STM32F4xx_HAL_Driver/Src/stm32f4xx_hal_i2c.c ****   * @retval HAL status
 778:Drivers/STM32F4xx_HAL_Driver/Src/stm32f4xx_hal_i2c.c ****   */
 779:Drivers/STM32F4xx_HAL_Driver/Src/stm32f4xx_hal_i2c.c **** HAL_StatusTypeDef HAL_I2C_Slave_Transmit(I2C_HandleTypeDef *hi2c, uint8_t *pData, uint16_t Size, ui
 780:Drivers/STM32F4xx_HAL_Driver/Src/stm32f4xx_hal_i2c.c **** {
 1132              		.loc 1 780 0
 1133              		.cfi_startproc
 1134              		@ args = 0, pretend = 0, frame = 24
 1135              		@ frame_needed = 1, uses_anonymous_args = 0
 1136 0000 80B5     		push	{r7, lr}
 1137              	.LCFI18:
 1138              		.cfi_def_cfa_offset 8
 1139              		.cfi_offset 7, -8
 1140              		.cfi_offset 14, -4
 1141 0002 86B0     		sub	sp, sp, #24
 1142              	.LCFI19:
 1143              		.cfi_def_cfa_offset 32
 1144 0004 00AF     		add	r7, sp, #0
 1145              	.LCFI20:
 1146              		.cfi_def_cfa_register 7
 1147 0006 F860     		str	r0, [r7, #12]
 1148 0008 B960     		str	r1, [r7, #8]
 1149 000a 3B60     		str	r3, [r7]
 1150 000c 1346     		mov	r3, r2	@ movhi
 1151 000e FB80     		strh	r3, [r7, #6]	@ movhi
 781:Drivers/STM32F4xx_HAL_Driver/Src/stm32f4xx_hal_i2c.c ****   if(hi2c->State == HAL_I2C_STATE_READY)
 1152              		.loc 1 781 0
 1153 0010 FB68     		ldr	r3, [r7, #12]
 1154 0012 93F83530 		ldrb	r3, [r3, #53]
 1155 0016 DBB2     		uxtb	r3, r3
 1156 0018 012B     		cmp	r3, #1
 1157 001a 40F0B480 		bne	.L65
 782:Drivers/STM32F4xx_HAL_Driver/Src/stm32f4xx_hal_i2c.c ****   {
 783:Drivers/STM32F4xx_HAL_Driver/Src/stm32f4xx_hal_i2c.c ****     if((pData == NULL) || (Size == 0))
 1158              		.loc 1 783 0
 1159 001e BB68     		ldr	r3, [r7, #8]
 1160 0020 002B     		cmp	r3, #0
 1161 0022 02D0     		beq	.L66
 1162              		.loc 1 783 0 is_stmt 0 discriminator 1
 1163 0024 FB88     		ldrh	r3, [r7, #6]
 1164 0026 002B     		cmp	r3, #0
 1165 0028 01D1     		bne	.L67
 1166              	.L66:
ARM GAS  /tmp/cc5bMm9J.s 			page 35


 784:Drivers/STM32F4xx_HAL_Driver/Src/stm32f4xx_hal_i2c.c ****     {
 785:Drivers/STM32F4xx_HAL_Driver/Src/stm32f4xx_hal_i2c.c ****       return  HAL_ERROR;
 1167              		.loc 1 785 0 is_stmt 1
 1168 002a 0123     		movs	r3, #1
 1169 002c ACE0     		b	.L68
 1170              	.L67:
 786:Drivers/STM32F4xx_HAL_Driver/Src/stm32f4xx_hal_i2c.c ****     }
 787:Drivers/STM32F4xx_HAL_Driver/Src/stm32f4xx_hal_i2c.c **** 
 788:Drivers/STM32F4xx_HAL_Driver/Src/stm32f4xx_hal_i2c.c ****     /* Wait until BUSY flag is reset */
 789:Drivers/STM32F4xx_HAL_Driver/Src/stm32f4xx_hal_i2c.c ****     if(I2C_WaitOnFlagUntilTimeout(hi2c, I2C_FLAG_BUSY, SET, I2C_TIMEOUT_BUSY_FLAG) != HAL_OK)
 1171              		.loc 1 789 0
 1172 002e F868     		ldr	r0, [r7, #12]
 1173 0030 5749     		ldr	r1, .L78
 1174 0032 0122     		movs	r2, #1
 1175 0034 42F21073 		movw	r3, #10000
 1176 0038 FFF7FEFF 		bl	I2C_WaitOnFlagUntilTimeout
 1177 003c 0346     		mov	r3, r0
 1178 003e 002B     		cmp	r3, #0
 1179 0040 01D0     		beq	.L69
 790:Drivers/STM32F4xx_HAL_Driver/Src/stm32f4xx_hal_i2c.c ****     {
 791:Drivers/STM32F4xx_HAL_Driver/Src/stm32f4xx_hal_i2c.c ****       return HAL_BUSY;
 1180              		.loc 1 791 0
 1181 0042 0223     		movs	r3, #2
 1182 0044 A0E0     		b	.L68
 1183              	.L69:
 792:Drivers/STM32F4xx_HAL_Driver/Src/stm32f4xx_hal_i2c.c ****     }
 793:Drivers/STM32F4xx_HAL_Driver/Src/stm32f4xx_hal_i2c.c **** 
 794:Drivers/STM32F4xx_HAL_Driver/Src/stm32f4xx_hal_i2c.c ****     /* Process Locked */
 795:Drivers/STM32F4xx_HAL_Driver/Src/stm32f4xx_hal_i2c.c ****     __HAL_LOCK(hi2c);
 1184              		.loc 1 795 0
 1185 0046 FB68     		ldr	r3, [r7, #12]
 1186 0048 93F83430 		ldrb	r3, [r3, #52]	@ zero_extendqisi2
 1187 004c 012B     		cmp	r3, #1
 1188 004e 01D1     		bne	.L70
 1189              		.loc 1 795 0 is_stmt 0 discriminator 1
 1190 0050 0223     		movs	r3, #2
 1191 0052 99E0     		b	.L68
 1192              	.L70:
 1193              		.loc 1 795 0 discriminator 2
 1194 0054 FB68     		ldr	r3, [r7, #12]
 1195 0056 0122     		movs	r2, #1
 1196 0058 83F83420 		strb	r2, [r3, #52]
 796:Drivers/STM32F4xx_HAL_Driver/Src/stm32f4xx_hal_i2c.c ****     
 797:Drivers/STM32F4xx_HAL_Driver/Src/stm32f4xx_hal_i2c.c ****     /* Disable Pos */
 798:Drivers/STM32F4xx_HAL_Driver/Src/stm32f4xx_hal_i2c.c ****     hi2c->Instance->CR1 &= ~I2C_CR1_POS;
 1197              		.loc 1 798 0 is_stmt 1 discriminator 2
 1198 005c FB68     		ldr	r3, [r7, #12]
 1199 005e 1B68     		ldr	r3, [r3]
 1200 0060 FA68     		ldr	r2, [r7, #12]
 1201 0062 1268     		ldr	r2, [r2]
 1202 0064 1268     		ldr	r2, [r2]
 1203 0066 22F40062 		bic	r2, r2, #2048
 1204 006a 1A60     		str	r2, [r3]
 799:Drivers/STM32F4xx_HAL_Driver/Src/stm32f4xx_hal_i2c.c **** 
 800:Drivers/STM32F4xx_HAL_Driver/Src/stm32f4xx_hal_i2c.c ****     hi2c->State = HAL_I2C_STATE_BUSY_TX;
 1205              		.loc 1 800 0 discriminator 2
 1206 006c FB68     		ldr	r3, [r7, #12]
ARM GAS  /tmp/cc5bMm9J.s 			page 36


 1207 006e 1222     		movs	r2, #18
 1208 0070 83F83520 		strb	r2, [r3, #53]
 801:Drivers/STM32F4xx_HAL_Driver/Src/stm32f4xx_hal_i2c.c ****     hi2c->ErrorCode = HAL_I2C_ERROR_NONE;
 1209              		.loc 1 801 0 discriminator 2
 1210 0074 FB68     		ldr	r3, [r7, #12]
 1211 0076 0022     		movs	r2, #0
 1212 0078 9A63     		str	r2, [r3, #56]
 802:Drivers/STM32F4xx_HAL_Driver/Src/stm32f4xx_hal_i2c.c **** 
 803:Drivers/STM32F4xx_HAL_Driver/Src/stm32f4xx_hal_i2c.c ****     /* Enable Address Acknowledge */
 804:Drivers/STM32F4xx_HAL_Driver/Src/stm32f4xx_hal_i2c.c ****     hi2c->Instance->CR1 |= I2C_CR1_ACK;
 1213              		.loc 1 804 0 discriminator 2
 1214 007a FB68     		ldr	r3, [r7, #12]
 1215 007c 1B68     		ldr	r3, [r3]
 1216 007e FA68     		ldr	r2, [r7, #12]
 1217 0080 1268     		ldr	r2, [r2]
 1218 0082 1268     		ldr	r2, [r2]
 1219 0084 42F48062 		orr	r2, r2, #1024
 1220 0088 1A60     		str	r2, [r3]
 805:Drivers/STM32F4xx_HAL_Driver/Src/stm32f4xx_hal_i2c.c **** 
 806:Drivers/STM32F4xx_HAL_Driver/Src/stm32f4xx_hal_i2c.c ****     /* Wait until ADDR flag is set */
 807:Drivers/STM32F4xx_HAL_Driver/Src/stm32f4xx_hal_i2c.c ****     if(I2C_WaitOnFlagUntilTimeout(hi2c, I2C_FLAG_ADDR, RESET, Timeout) != HAL_OK)
 1221              		.loc 1 807 0 discriminator 2
 1222 008a F868     		ldr	r0, [r7, #12]
 1223 008c 4149     		ldr	r1, .L78+4
 1224 008e 0022     		movs	r2, #0
 1225 0090 3B68     		ldr	r3, [r7]
 1226 0092 FFF7FEFF 		bl	I2C_WaitOnFlagUntilTimeout
 1227 0096 0346     		mov	r3, r0
 1228 0098 002B     		cmp	r3, #0
 1229 009a 01D0     		beq	.L71
 808:Drivers/STM32F4xx_HAL_Driver/Src/stm32f4xx_hal_i2c.c ****     {
 809:Drivers/STM32F4xx_HAL_Driver/Src/stm32f4xx_hal_i2c.c ****       return HAL_TIMEOUT;
 1230              		.loc 1 809 0
 1231 009c 0323     		movs	r3, #3
 1232 009e 73E0     		b	.L68
 1233              	.L71:
 1234              	.LBB6:
 810:Drivers/STM32F4xx_HAL_Driver/Src/stm32f4xx_hal_i2c.c ****     }
 811:Drivers/STM32F4xx_HAL_Driver/Src/stm32f4xx_hal_i2c.c **** 
 812:Drivers/STM32F4xx_HAL_Driver/Src/stm32f4xx_hal_i2c.c ****     /* Clear ADDR flag */
 813:Drivers/STM32F4xx_HAL_Driver/Src/stm32f4xx_hal_i2c.c ****     __HAL_I2C_CLEAR_ADDRFLAG(hi2c);
 1235              		.loc 1 813 0
 1236 00a0 FB68     		ldr	r3, [r7, #12]
 1237 00a2 1B68     		ldr	r3, [r3]
 1238 00a4 5B69     		ldr	r3, [r3, #20]
 1239 00a6 7B61     		str	r3, [r7, #20]
 1240 00a8 FB68     		ldr	r3, [r7, #12]
 1241 00aa 1B68     		ldr	r3, [r3]
 1242 00ac 9B69     		ldr	r3, [r3, #24]
 1243 00ae 7B61     		str	r3, [r7, #20]
 1244 00b0 7B69     		ldr	r3, [r7, #20]
 1245              	.LBE6:
 814:Drivers/STM32F4xx_HAL_Driver/Src/stm32f4xx_hal_i2c.c **** 
 815:Drivers/STM32F4xx_HAL_Driver/Src/stm32f4xx_hal_i2c.c ****     /* If 10bit addressing mode is selected */
 816:Drivers/STM32F4xx_HAL_Driver/Src/stm32f4xx_hal_i2c.c ****     if(hi2c->Init.AddressingMode == I2C_ADDRESSINGMODE_10BIT)
 1246              		.loc 1 816 0
 1247 00b2 FB68     		ldr	r3, [r7, #12]
ARM GAS  /tmp/cc5bMm9J.s 			page 37


 1248 00b4 1B69     		ldr	r3, [r3, #16]
 1249 00b6 B3F5404F 		cmp	r3, #49152
 1250 00ba 14D1     		bne	.L72
 817:Drivers/STM32F4xx_HAL_Driver/Src/stm32f4xx_hal_i2c.c ****     {
 818:Drivers/STM32F4xx_HAL_Driver/Src/stm32f4xx_hal_i2c.c ****       /* Wait until ADDR flag is set */
 819:Drivers/STM32F4xx_HAL_Driver/Src/stm32f4xx_hal_i2c.c ****       if(I2C_WaitOnFlagUntilTimeout(hi2c, I2C_FLAG_ADDR, RESET, Timeout) != HAL_OK)
 1251              		.loc 1 819 0
 1252 00bc F868     		ldr	r0, [r7, #12]
 1253 00be 3549     		ldr	r1, .L78+4
 1254 00c0 0022     		movs	r2, #0
 1255 00c2 3B68     		ldr	r3, [r7]
 1256 00c4 FFF7FEFF 		bl	I2C_WaitOnFlagUntilTimeout
 1257 00c8 0346     		mov	r3, r0
 1258 00ca 002B     		cmp	r3, #0
 1259 00cc 01D0     		beq	.L73
 820:Drivers/STM32F4xx_HAL_Driver/Src/stm32f4xx_hal_i2c.c ****       {
 821:Drivers/STM32F4xx_HAL_Driver/Src/stm32f4xx_hal_i2c.c ****         return HAL_TIMEOUT;
 1260              		.loc 1 821 0
 1261 00ce 0323     		movs	r3, #3
 1262 00d0 5AE0     		b	.L68
 1263              	.L73:
 1264              	.LBB7:
 822:Drivers/STM32F4xx_HAL_Driver/Src/stm32f4xx_hal_i2c.c ****       }
 823:Drivers/STM32F4xx_HAL_Driver/Src/stm32f4xx_hal_i2c.c **** 
 824:Drivers/STM32F4xx_HAL_Driver/Src/stm32f4xx_hal_i2c.c ****       /* Clear ADDR flag */
 825:Drivers/STM32F4xx_HAL_Driver/Src/stm32f4xx_hal_i2c.c ****       __HAL_I2C_CLEAR_ADDRFLAG(hi2c);
 1265              		.loc 1 825 0
 1266 00d2 FB68     		ldr	r3, [r7, #12]
 1267 00d4 1B68     		ldr	r3, [r3]
 1268 00d6 5B69     		ldr	r3, [r3, #20]
 1269 00d8 3B61     		str	r3, [r7, #16]
 1270 00da FB68     		ldr	r3, [r7, #12]
 1271 00dc 1B68     		ldr	r3, [r3]
 1272 00de 9B69     		ldr	r3, [r3, #24]
 1273 00e0 3B61     		str	r3, [r7, #16]
 1274 00e2 3B69     		ldr	r3, [r7, #16]
 1275              	.LBE7:
 826:Drivers/STM32F4xx_HAL_Driver/Src/stm32f4xx_hal_i2c.c ****     }
 827:Drivers/STM32F4xx_HAL_Driver/Src/stm32f4xx_hal_i2c.c **** 
 828:Drivers/STM32F4xx_HAL_Driver/Src/stm32f4xx_hal_i2c.c ****     while(Size > 0)
 1276              		.loc 1 828 0
 1277 00e4 29E0     		b	.L74
 1278              	.L72:
 1279 00e6 28E0     		b	.L74
 1280              	.L76:
 829:Drivers/STM32F4xx_HAL_Driver/Src/stm32f4xx_hal_i2c.c ****     {
 830:Drivers/STM32F4xx_HAL_Driver/Src/stm32f4xx_hal_i2c.c ****       /* Wait until TXE flag is set */
 831:Drivers/STM32F4xx_HAL_Driver/Src/stm32f4xx_hal_i2c.c ****       if(I2C_WaitOnFlagUntilTimeout(hi2c, I2C_FLAG_TXE, RESET, Timeout) != HAL_OK)
 1281              		.loc 1 831 0
 1282 00e8 F868     		ldr	r0, [r7, #12]
 1283 00ea 2B49     		ldr	r1, .L78+8
 1284 00ec 0022     		movs	r2, #0
 1285 00ee 3B68     		ldr	r3, [r7]
 1286 00f0 FFF7FEFF 		bl	I2C_WaitOnFlagUntilTimeout
 1287 00f4 0346     		mov	r3, r0
 1288 00f6 002B     		cmp	r3, #0
 1289 00f8 01D0     		beq	.L75
ARM GAS  /tmp/cc5bMm9J.s 			page 38


 832:Drivers/STM32F4xx_HAL_Driver/Src/stm32f4xx_hal_i2c.c ****       {
 833:Drivers/STM32F4xx_HAL_Driver/Src/stm32f4xx_hal_i2c.c ****         return HAL_TIMEOUT;
 1290              		.loc 1 833 0
 1291 00fa 0323     		movs	r3, #3
 1292 00fc 44E0     		b	.L68
 1293              	.L75:
 834:Drivers/STM32F4xx_HAL_Driver/Src/stm32f4xx_hal_i2c.c ****       }
 835:Drivers/STM32F4xx_HAL_Driver/Src/stm32f4xx_hal_i2c.c **** 
 836:Drivers/STM32F4xx_HAL_Driver/Src/stm32f4xx_hal_i2c.c ****       /* Write data to DR */
 837:Drivers/STM32F4xx_HAL_Driver/Src/stm32f4xx_hal_i2c.c ****       hi2c->Instance->DR = (*pData++);
 1294              		.loc 1 837 0
 1295 00fe FB68     		ldr	r3, [r7, #12]
 1296 0100 1A68     		ldr	r2, [r3]
 1297 0102 BB68     		ldr	r3, [r7, #8]
 1298 0104 591C     		adds	r1, r3, #1
 1299 0106 B960     		str	r1, [r7, #8]
 1300 0108 1B78     		ldrb	r3, [r3]	@ zero_extendqisi2
 1301 010a 1361     		str	r3, [r2, #16]
 838:Drivers/STM32F4xx_HAL_Driver/Src/stm32f4xx_hal_i2c.c ****       Size--;
 1302              		.loc 1 838 0
 1303 010c FB88     		ldrh	r3, [r7, #6]
 1304 010e 013B     		subs	r3, r3, #1
 1305 0110 FB80     		strh	r3, [r7, #6]	@ movhi
 839:Drivers/STM32F4xx_HAL_Driver/Src/stm32f4xx_hal_i2c.c **** 
 840:Drivers/STM32F4xx_HAL_Driver/Src/stm32f4xx_hal_i2c.c ****       if((__HAL_I2C_GET_FLAG(hi2c, I2C_FLAG_BTF) == SET) && (Size != 0))
 1306              		.loc 1 840 0
 1307 0112 FB68     		ldr	r3, [r7, #12]
 1308 0114 1B68     		ldr	r3, [r3]
 1309 0116 5B69     		ldr	r3, [r3, #20]
 1310 0118 03F00403 		and	r3, r3, #4
 1311 011c 002B     		cmp	r3, #0
 1312 011e 0CD0     		beq	.L74
 1313              		.loc 1 840 0 is_stmt 0 discriminator 1
 1314 0120 FB88     		ldrh	r3, [r7, #6]
 1315 0122 002B     		cmp	r3, #0
 1316 0124 09D0     		beq	.L74
 841:Drivers/STM32F4xx_HAL_Driver/Src/stm32f4xx_hal_i2c.c ****       {
 842:Drivers/STM32F4xx_HAL_Driver/Src/stm32f4xx_hal_i2c.c ****         /* Write data to DR */
 843:Drivers/STM32F4xx_HAL_Driver/Src/stm32f4xx_hal_i2c.c ****         hi2c->Instance->DR = (*pData++);
 1317              		.loc 1 843 0 is_stmt 1
 1318 0126 FB68     		ldr	r3, [r7, #12]
 1319 0128 1A68     		ldr	r2, [r3]
 1320 012a BB68     		ldr	r3, [r7, #8]
 1321 012c 591C     		adds	r1, r3, #1
 1322 012e B960     		str	r1, [r7, #8]
 1323 0130 1B78     		ldrb	r3, [r3]	@ zero_extendqisi2
 1324 0132 1361     		str	r3, [r2, #16]
 844:Drivers/STM32F4xx_HAL_Driver/Src/stm32f4xx_hal_i2c.c ****         Size--;
 1325              		.loc 1 844 0
 1326 0134 FB88     		ldrh	r3, [r7, #6]
 1327 0136 013B     		subs	r3, r3, #1
 1328 0138 FB80     		strh	r3, [r7, #6]	@ movhi
 1329              	.L74:
 828:Drivers/STM32F4xx_HAL_Driver/Src/stm32f4xx_hal_i2c.c ****     {
 1330              		.loc 1 828 0 discriminator 1
 1331 013a FB88     		ldrh	r3, [r7, #6]
 1332 013c 002B     		cmp	r3, #0
ARM GAS  /tmp/cc5bMm9J.s 			page 39


 1333 013e D3D1     		bne	.L76
 845:Drivers/STM32F4xx_HAL_Driver/Src/stm32f4xx_hal_i2c.c ****       }
 846:Drivers/STM32F4xx_HAL_Driver/Src/stm32f4xx_hal_i2c.c ****     }
 847:Drivers/STM32F4xx_HAL_Driver/Src/stm32f4xx_hal_i2c.c **** 
 848:Drivers/STM32F4xx_HAL_Driver/Src/stm32f4xx_hal_i2c.c ****     /* Wait until AF flag is set */
 849:Drivers/STM32F4xx_HAL_Driver/Src/stm32f4xx_hal_i2c.c ****     if(I2C_WaitOnFlagUntilTimeout(hi2c, I2C_FLAG_AF, RESET, Timeout) != HAL_OK)
 1334              		.loc 1 849 0
 1335 0140 F868     		ldr	r0, [r7, #12]
 1336 0142 4FF48231 		mov	r1, #66560
 1337 0146 0022     		movs	r2, #0
 1338 0148 3B68     		ldr	r3, [r7]
 1339 014a FFF7FEFF 		bl	I2C_WaitOnFlagUntilTimeout
 1340 014e 0346     		mov	r3, r0
 1341 0150 002B     		cmp	r3, #0
 1342 0152 01D0     		beq	.L77
 850:Drivers/STM32F4xx_HAL_Driver/Src/stm32f4xx_hal_i2c.c ****     {
 851:Drivers/STM32F4xx_HAL_Driver/Src/stm32f4xx_hal_i2c.c ****       return HAL_TIMEOUT;
 1343              		.loc 1 851 0
 1344 0154 0323     		movs	r3, #3
 1345 0156 17E0     		b	.L68
 1346              	.L77:
 852:Drivers/STM32F4xx_HAL_Driver/Src/stm32f4xx_hal_i2c.c ****     }
 853:Drivers/STM32F4xx_HAL_Driver/Src/stm32f4xx_hal_i2c.c **** 
 854:Drivers/STM32F4xx_HAL_Driver/Src/stm32f4xx_hal_i2c.c ****     /* Clear AF flag */
 855:Drivers/STM32F4xx_HAL_Driver/Src/stm32f4xx_hal_i2c.c ****     __HAL_I2C_CLEAR_FLAG(hi2c, I2C_FLAG_AF);
 1347              		.loc 1 855 0
 1348 0158 FB68     		ldr	r3, [r7, #12]
 1349 015a 1B68     		ldr	r3, [r3]
 1350 015c 6FF48062 		mvn	r2, #1024
 1351 0160 5A61     		str	r2, [r3, #20]
 856:Drivers/STM32F4xx_HAL_Driver/Src/stm32f4xx_hal_i2c.c **** 
 857:Drivers/STM32F4xx_HAL_Driver/Src/stm32f4xx_hal_i2c.c ****     /* Disable Address Acknowledge */
 858:Drivers/STM32F4xx_HAL_Driver/Src/stm32f4xx_hal_i2c.c ****     hi2c->Instance->CR1 &= ~I2C_CR1_ACK;
 1352              		.loc 1 858 0
 1353 0162 FB68     		ldr	r3, [r7, #12]
 1354 0164 1B68     		ldr	r3, [r3]
 1355 0166 FA68     		ldr	r2, [r7, #12]
 1356 0168 1268     		ldr	r2, [r2]
 1357 016a 1268     		ldr	r2, [r2]
 1358 016c 22F48062 		bic	r2, r2, #1024
 1359 0170 1A60     		str	r2, [r3]
 859:Drivers/STM32F4xx_HAL_Driver/Src/stm32f4xx_hal_i2c.c **** 
 860:Drivers/STM32F4xx_HAL_Driver/Src/stm32f4xx_hal_i2c.c ****     hi2c->State = HAL_I2C_STATE_READY;
 1360              		.loc 1 860 0
 1361 0172 FB68     		ldr	r3, [r7, #12]
 1362 0174 0122     		movs	r2, #1
 1363 0176 83F83520 		strb	r2, [r3, #53]
 861:Drivers/STM32F4xx_HAL_Driver/Src/stm32f4xx_hal_i2c.c **** 
 862:Drivers/STM32F4xx_HAL_Driver/Src/stm32f4xx_hal_i2c.c ****     /* Process Unlocked */
 863:Drivers/STM32F4xx_HAL_Driver/Src/stm32f4xx_hal_i2c.c ****     __HAL_UNLOCK(hi2c);
 1364              		.loc 1 863 0
 1365 017a FB68     		ldr	r3, [r7, #12]
 1366 017c 0022     		movs	r2, #0
 1367 017e 83F83420 		strb	r2, [r3, #52]
 864:Drivers/STM32F4xx_HAL_Driver/Src/stm32f4xx_hal_i2c.c **** 
 865:Drivers/STM32F4xx_HAL_Driver/Src/stm32f4xx_hal_i2c.c ****     return HAL_OK;
 1368              		.loc 1 865 0
ARM GAS  /tmp/cc5bMm9J.s 			page 40


 1369 0182 0023     		movs	r3, #0
 1370 0184 00E0     		b	.L68
 1371              	.L65:
 866:Drivers/STM32F4xx_HAL_Driver/Src/stm32f4xx_hal_i2c.c ****   }
 867:Drivers/STM32F4xx_HAL_Driver/Src/stm32f4xx_hal_i2c.c ****   else
 868:Drivers/STM32F4xx_HAL_Driver/Src/stm32f4xx_hal_i2c.c ****   {
 869:Drivers/STM32F4xx_HAL_Driver/Src/stm32f4xx_hal_i2c.c ****     return HAL_BUSY;
 1372              		.loc 1 869 0
 1373 0186 0223     		movs	r3, #2
 1374              	.L68:
 870:Drivers/STM32F4xx_HAL_Driver/Src/stm32f4xx_hal_i2c.c ****   }
 871:Drivers/STM32F4xx_HAL_Driver/Src/stm32f4xx_hal_i2c.c **** }
 1375              		.loc 1 871 0
 1376 0188 1846     		mov	r0, r3
 1377 018a 1837     		adds	r7, r7, #24
 1378 018c BD46     		mov	sp, r7
 1379              		@ sp needed
 1380 018e 80BD     		pop	{r7, pc}
 1381              	.L79:
 1382              		.align	2
 1383              	.L78:
 1384 0190 02001000 		.word	1048578
 1385 0194 02000100 		.word	65538
 1386 0198 80000100 		.word	65664
 1387              		.cfi_endproc
 1388              	.LFE131:
 1390              		.section	.text.HAL_I2C_Slave_Receive,"ax",%progbits
 1391              		.align	2
 1392              		.global	HAL_I2C_Slave_Receive
 1393              		.thumb
 1394              		.thumb_func
 1396              	HAL_I2C_Slave_Receive:
 1397              	.LFB132:
 872:Drivers/STM32F4xx_HAL_Driver/Src/stm32f4xx_hal_i2c.c **** 
 873:Drivers/STM32F4xx_HAL_Driver/Src/stm32f4xx_hal_i2c.c **** /**
 874:Drivers/STM32F4xx_HAL_Driver/Src/stm32f4xx_hal_i2c.c ****   * @brief  Receive in slave mode an amount of data in blocking mode
 875:Drivers/STM32F4xx_HAL_Driver/Src/stm32f4xx_hal_i2c.c ****   * @param  hi2c: pointer to a I2C_HandleTypeDef structure that contains
 876:Drivers/STM32F4xx_HAL_Driver/Src/stm32f4xx_hal_i2c.c ****   *         the configuration information for I2C module
 877:Drivers/STM32F4xx_HAL_Driver/Src/stm32f4xx_hal_i2c.c ****   * @param  pData: Pointer to data buffer
 878:Drivers/STM32F4xx_HAL_Driver/Src/stm32f4xx_hal_i2c.c ****   * @param  Size: Amount of data to be sent
 879:Drivers/STM32F4xx_HAL_Driver/Src/stm32f4xx_hal_i2c.c ****   * @param  Timeout: Timeout duration
 880:Drivers/STM32F4xx_HAL_Driver/Src/stm32f4xx_hal_i2c.c ****   * @retval HAL status
 881:Drivers/STM32F4xx_HAL_Driver/Src/stm32f4xx_hal_i2c.c ****   */
 882:Drivers/STM32F4xx_HAL_Driver/Src/stm32f4xx_hal_i2c.c **** HAL_StatusTypeDef HAL_I2C_Slave_Receive(I2C_HandleTypeDef *hi2c, uint8_t *pData, uint16_t Size, uin
 883:Drivers/STM32F4xx_HAL_Driver/Src/stm32f4xx_hal_i2c.c **** {
 1398              		.loc 1 883 0
 1399              		.cfi_startproc
 1400              		@ args = 0, pretend = 0, frame = 24
 1401              		@ frame_needed = 1, uses_anonymous_args = 0
 1402 0000 80B5     		push	{r7, lr}
 1403              	.LCFI21:
 1404              		.cfi_def_cfa_offset 8
 1405              		.cfi_offset 7, -8
 1406              		.cfi_offset 14, -4
 1407 0002 86B0     		sub	sp, sp, #24
 1408              	.LCFI22:
 1409              		.cfi_def_cfa_offset 32
ARM GAS  /tmp/cc5bMm9J.s 			page 41


 1410 0004 00AF     		add	r7, sp, #0
 1411              	.LCFI23:
 1412              		.cfi_def_cfa_register 7
 1413 0006 F860     		str	r0, [r7, #12]
 1414 0008 B960     		str	r1, [r7, #8]
 1415 000a 3B60     		str	r3, [r7]
 1416 000c 1346     		mov	r3, r2	@ movhi
 1417 000e FB80     		strh	r3, [r7, #6]	@ movhi
 884:Drivers/STM32F4xx_HAL_Driver/Src/stm32f4xx_hal_i2c.c ****   if(hi2c->State == HAL_I2C_STATE_READY)
 1418              		.loc 1 884 0
 1419 0010 FB68     		ldr	r3, [r7, #12]
 1420 0012 93F83530 		ldrb	r3, [r3, #53]
 1421 0016 DBB2     		uxtb	r3, r3
 1422 0018 012B     		cmp	r3, #1
 1423 001a 40F0A380 		bne	.L81
 885:Drivers/STM32F4xx_HAL_Driver/Src/stm32f4xx_hal_i2c.c ****   {
 886:Drivers/STM32F4xx_HAL_Driver/Src/stm32f4xx_hal_i2c.c ****     if((pData == NULL) || (Size == 0))
 1424              		.loc 1 886 0
 1425 001e BB68     		ldr	r3, [r7, #8]
 1426 0020 002B     		cmp	r3, #0
 1427 0022 02D0     		beq	.L82
 1428              		.loc 1 886 0 is_stmt 0 discriminator 1
 1429 0024 FB88     		ldrh	r3, [r7, #6]
 1430 0026 002B     		cmp	r3, #0
 1431 0028 01D1     		bne	.L83
 1432              	.L82:
 887:Drivers/STM32F4xx_HAL_Driver/Src/stm32f4xx_hal_i2c.c ****     {
 888:Drivers/STM32F4xx_HAL_Driver/Src/stm32f4xx_hal_i2c.c ****       return  HAL_ERROR;
 1433              		.loc 1 888 0 is_stmt 1
 1434 002a 0123     		movs	r3, #1
 1435 002c 9BE0     		b	.L84
 1436              	.L83:
 889:Drivers/STM32F4xx_HAL_Driver/Src/stm32f4xx_hal_i2c.c ****     }
 890:Drivers/STM32F4xx_HAL_Driver/Src/stm32f4xx_hal_i2c.c **** 
 891:Drivers/STM32F4xx_HAL_Driver/Src/stm32f4xx_hal_i2c.c ****     /* Wait until BUSY flag is reset */
 892:Drivers/STM32F4xx_HAL_Driver/Src/stm32f4xx_hal_i2c.c ****     if(I2C_WaitOnFlagUntilTimeout(hi2c, I2C_FLAG_BUSY, SET, I2C_TIMEOUT_BUSY_FLAG) != HAL_OK)
 1437              		.loc 1 892 0
 1438 002e F868     		ldr	r0, [r7, #12]
 1439 0030 4F49     		ldr	r1, .L92
 1440 0032 0122     		movs	r2, #1
 1441 0034 42F21073 		movw	r3, #10000
 1442 0038 FFF7FEFF 		bl	I2C_WaitOnFlagUntilTimeout
 1443 003c 0346     		mov	r3, r0
 1444 003e 002B     		cmp	r3, #0
 1445 0040 01D0     		beq	.L85
 893:Drivers/STM32F4xx_HAL_Driver/Src/stm32f4xx_hal_i2c.c ****     {
 894:Drivers/STM32F4xx_HAL_Driver/Src/stm32f4xx_hal_i2c.c ****       return HAL_BUSY;
 1446              		.loc 1 894 0
 1447 0042 0223     		movs	r3, #2
 1448 0044 8FE0     		b	.L84
 1449              	.L85:
 895:Drivers/STM32F4xx_HAL_Driver/Src/stm32f4xx_hal_i2c.c ****     }
 896:Drivers/STM32F4xx_HAL_Driver/Src/stm32f4xx_hal_i2c.c **** 
 897:Drivers/STM32F4xx_HAL_Driver/Src/stm32f4xx_hal_i2c.c ****     /* Process Locked */
 898:Drivers/STM32F4xx_HAL_Driver/Src/stm32f4xx_hal_i2c.c ****     __HAL_LOCK(hi2c);
 1450              		.loc 1 898 0
 1451 0046 FB68     		ldr	r3, [r7, #12]
ARM GAS  /tmp/cc5bMm9J.s 			page 42


 1452 0048 93F83430 		ldrb	r3, [r3, #52]	@ zero_extendqisi2
 1453 004c 012B     		cmp	r3, #1
 1454 004e 01D1     		bne	.L86
 1455              		.loc 1 898 0 is_stmt 0 discriminator 1
 1456 0050 0223     		movs	r3, #2
 1457 0052 88E0     		b	.L84
 1458              	.L86:
 1459              		.loc 1 898 0 discriminator 2
 1460 0054 FB68     		ldr	r3, [r7, #12]
 1461 0056 0122     		movs	r2, #1
 1462 0058 83F83420 		strb	r2, [r3, #52]
 899:Drivers/STM32F4xx_HAL_Driver/Src/stm32f4xx_hal_i2c.c ****     
 900:Drivers/STM32F4xx_HAL_Driver/Src/stm32f4xx_hal_i2c.c ****     /* Disable Pos */
 901:Drivers/STM32F4xx_HAL_Driver/Src/stm32f4xx_hal_i2c.c ****     hi2c->Instance->CR1 &= ~I2C_CR1_POS;
 1463              		.loc 1 901 0 is_stmt 1 discriminator 2
 1464 005c FB68     		ldr	r3, [r7, #12]
 1465 005e 1B68     		ldr	r3, [r3]
 1466 0060 FA68     		ldr	r2, [r7, #12]
 1467 0062 1268     		ldr	r2, [r2]
 1468 0064 1268     		ldr	r2, [r2]
 1469 0066 22F40062 		bic	r2, r2, #2048
 1470 006a 1A60     		str	r2, [r3]
 902:Drivers/STM32F4xx_HAL_Driver/Src/stm32f4xx_hal_i2c.c **** 
 903:Drivers/STM32F4xx_HAL_Driver/Src/stm32f4xx_hal_i2c.c ****     hi2c->State = HAL_I2C_STATE_BUSY_RX;
 1471              		.loc 1 903 0 discriminator 2
 1472 006c FB68     		ldr	r3, [r7, #12]
 1473 006e 2222     		movs	r2, #34
 1474 0070 83F83520 		strb	r2, [r3, #53]
 904:Drivers/STM32F4xx_HAL_Driver/Src/stm32f4xx_hal_i2c.c ****     hi2c->ErrorCode = HAL_I2C_ERROR_NONE;
 1475              		.loc 1 904 0 discriminator 2
 1476 0074 FB68     		ldr	r3, [r7, #12]
 1477 0076 0022     		movs	r2, #0
 1478 0078 9A63     		str	r2, [r3, #56]
 905:Drivers/STM32F4xx_HAL_Driver/Src/stm32f4xx_hal_i2c.c **** 
 906:Drivers/STM32F4xx_HAL_Driver/Src/stm32f4xx_hal_i2c.c ****     /* Enable Address Acknowledge */
 907:Drivers/STM32F4xx_HAL_Driver/Src/stm32f4xx_hal_i2c.c ****     hi2c->Instance->CR1 |= I2C_CR1_ACK;
 1479              		.loc 1 907 0 discriminator 2
 1480 007a FB68     		ldr	r3, [r7, #12]
 1481 007c 1B68     		ldr	r3, [r3]
 1482 007e FA68     		ldr	r2, [r7, #12]
 1483 0080 1268     		ldr	r2, [r2]
 1484 0082 1268     		ldr	r2, [r2]
 1485 0084 42F48062 		orr	r2, r2, #1024
 1486 0088 1A60     		str	r2, [r3]
 908:Drivers/STM32F4xx_HAL_Driver/Src/stm32f4xx_hal_i2c.c **** 
 909:Drivers/STM32F4xx_HAL_Driver/Src/stm32f4xx_hal_i2c.c ****     /* Wait until ADDR flag is set */
 910:Drivers/STM32F4xx_HAL_Driver/Src/stm32f4xx_hal_i2c.c ****     if(I2C_WaitOnFlagUntilTimeout(hi2c, I2C_FLAG_ADDR, RESET, Timeout) != HAL_OK)
 1487              		.loc 1 910 0 discriminator 2
 1488 008a F868     		ldr	r0, [r7, #12]
 1489 008c 3949     		ldr	r1, .L92+4
 1490 008e 0022     		movs	r2, #0
 1491 0090 3B68     		ldr	r3, [r7]
 1492 0092 FFF7FEFF 		bl	I2C_WaitOnFlagUntilTimeout
 1493 0096 0346     		mov	r3, r0
 1494 0098 002B     		cmp	r3, #0
 1495 009a 01D0     		beq	.L87
 911:Drivers/STM32F4xx_HAL_Driver/Src/stm32f4xx_hal_i2c.c ****     {
ARM GAS  /tmp/cc5bMm9J.s 			page 43


 912:Drivers/STM32F4xx_HAL_Driver/Src/stm32f4xx_hal_i2c.c ****       return HAL_TIMEOUT;
 1496              		.loc 1 912 0
 1497 009c 0323     		movs	r3, #3
 1498 009e 62E0     		b	.L84
 1499              	.L87:
 1500              	.LBB8:
 913:Drivers/STM32F4xx_HAL_Driver/Src/stm32f4xx_hal_i2c.c ****     }
 914:Drivers/STM32F4xx_HAL_Driver/Src/stm32f4xx_hal_i2c.c **** 
 915:Drivers/STM32F4xx_HAL_Driver/Src/stm32f4xx_hal_i2c.c ****     /* Clear ADDR flag */
 916:Drivers/STM32F4xx_HAL_Driver/Src/stm32f4xx_hal_i2c.c ****     __HAL_I2C_CLEAR_ADDRFLAG(hi2c);
 1501              		.loc 1 916 0
 1502 00a0 FB68     		ldr	r3, [r7, #12]
 1503 00a2 1B68     		ldr	r3, [r3]
 1504 00a4 5B69     		ldr	r3, [r3, #20]
 1505 00a6 7B61     		str	r3, [r7, #20]
 1506 00a8 FB68     		ldr	r3, [r7, #12]
 1507 00aa 1B68     		ldr	r3, [r3]
 1508 00ac 9B69     		ldr	r3, [r3, #24]
 1509 00ae 7B61     		str	r3, [r7, #20]
 1510 00b0 7B69     		ldr	r3, [r7, #20]
 1511              	.LBE8:
 917:Drivers/STM32F4xx_HAL_Driver/Src/stm32f4xx_hal_i2c.c **** 
 918:Drivers/STM32F4xx_HAL_Driver/Src/stm32f4xx_hal_i2c.c ****     while(Size > 0)
 1512              		.loc 1 918 0
 1513 00b2 2AE0     		b	.L88
 1514              	.L90:
 919:Drivers/STM32F4xx_HAL_Driver/Src/stm32f4xx_hal_i2c.c ****     {
 920:Drivers/STM32F4xx_HAL_Driver/Src/stm32f4xx_hal_i2c.c ****       /* Wait until RXNE flag is set */
 921:Drivers/STM32F4xx_HAL_Driver/Src/stm32f4xx_hal_i2c.c ****       if(I2C_WaitOnFlagUntilTimeout(hi2c, I2C_FLAG_RXNE, RESET, Timeout) != HAL_OK)
 1515              		.loc 1 921 0
 1516 00b4 F868     		ldr	r0, [r7, #12]
 1517 00b6 3049     		ldr	r1, .L92+8
 1518 00b8 0022     		movs	r2, #0
 1519 00ba 3B68     		ldr	r3, [r7]
 1520 00bc FFF7FEFF 		bl	I2C_WaitOnFlagUntilTimeout
 1521 00c0 0346     		mov	r3, r0
 1522 00c2 002B     		cmp	r3, #0
 1523 00c4 01D0     		beq	.L89
 922:Drivers/STM32F4xx_HAL_Driver/Src/stm32f4xx_hal_i2c.c ****       {
 923:Drivers/STM32F4xx_HAL_Driver/Src/stm32f4xx_hal_i2c.c ****         return HAL_TIMEOUT;
 1524              		.loc 1 923 0
 1525 00c6 0323     		movs	r3, #3
 1526 00c8 4DE0     		b	.L84
 1527              	.L89:
 924:Drivers/STM32F4xx_HAL_Driver/Src/stm32f4xx_hal_i2c.c ****       }
 925:Drivers/STM32F4xx_HAL_Driver/Src/stm32f4xx_hal_i2c.c **** 
 926:Drivers/STM32F4xx_HAL_Driver/Src/stm32f4xx_hal_i2c.c ****       /* Read data from DR */
 927:Drivers/STM32F4xx_HAL_Driver/Src/stm32f4xx_hal_i2c.c ****       (*pData++) = hi2c->Instance->DR;
 1528              		.loc 1 927 0
 1529 00ca BB68     		ldr	r3, [r7, #8]
 1530 00cc 5A1C     		adds	r2, r3, #1
 1531 00ce BA60     		str	r2, [r7, #8]
 1532 00d0 FA68     		ldr	r2, [r7, #12]
 1533 00d2 1268     		ldr	r2, [r2]
 1534 00d4 1269     		ldr	r2, [r2, #16]
 1535 00d6 D2B2     		uxtb	r2, r2
 1536 00d8 1A70     		strb	r2, [r3]
ARM GAS  /tmp/cc5bMm9J.s 			page 44


 928:Drivers/STM32F4xx_HAL_Driver/Src/stm32f4xx_hal_i2c.c ****       Size--;
 1537              		.loc 1 928 0
 1538 00da FB88     		ldrh	r3, [r7, #6]
 1539 00dc 013B     		subs	r3, r3, #1
 1540 00de FB80     		strh	r3, [r7, #6]	@ movhi
 929:Drivers/STM32F4xx_HAL_Driver/Src/stm32f4xx_hal_i2c.c **** 
 930:Drivers/STM32F4xx_HAL_Driver/Src/stm32f4xx_hal_i2c.c ****       if((__HAL_I2C_GET_FLAG(hi2c, I2C_FLAG_BTF) == SET) && (Size != 0))
 1541              		.loc 1 930 0
 1542 00e0 FB68     		ldr	r3, [r7, #12]
 1543 00e2 1B68     		ldr	r3, [r3]
 1544 00e4 5B69     		ldr	r3, [r3, #20]
 1545 00e6 03F00403 		and	r3, r3, #4
 1546 00ea 002B     		cmp	r3, #0
 1547 00ec 0DD0     		beq	.L88
 1548              		.loc 1 930 0 is_stmt 0 discriminator 1
 1549 00ee FB88     		ldrh	r3, [r7, #6]
 1550 00f0 002B     		cmp	r3, #0
 1551 00f2 0AD0     		beq	.L88
 931:Drivers/STM32F4xx_HAL_Driver/Src/stm32f4xx_hal_i2c.c ****       {
 932:Drivers/STM32F4xx_HAL_Driver/Src/stm32f4xx_hal_i2c.c ****         /* Read data from DR */
 933:Drivers/STM32F4xx_HAL_Driver/Src/stm32f4xx_hal_i2c.c ****         (*pData++) = hi2c->Instance->DR;
 1552              		.loc 1 933 0 is_stmt 1
 1553 00f4 BB68     		ldr	r3, [r7, #8]
 1554 00f6 5A1C     		adds	r2, r3, #1
 1555 00f8 BA60     		str	r2, [r7, #8]
 1556 00fa FA68     		ldr	r2, [r7, #12]
 1557 00fc 1268     		ldr	r2, [r2]
 1558 00fe 1269     		ldr	r2, [r2, #16]
 1559 0100 D2B2     		uxtb	r2, r2
 1560 0102 1A70     		strb	r2, [r3]
 934:Drivers/STM32F4xx_HAL_Driver/Src/stm32f4xx_hal_i2c.c ****         Size--;
 1561              		.loc 1 934 0
 1562 0104 FB88     		ldrh	r3, [r7, #6]
 1563 0106 013B     		subs	r3, r3, #1
 1564 0108 FB80     		strh	r3, [r7, #6]	@ movhi
 1565              	.L88:
 918:Drivers/STM32F4xx_HAL_Driver/Src/stm32f4xx_hal_i2c.c ****     {
 1566              		.loc 1 918 0 discriminator 1
 1567 010a FB88     		ldrh	r3, [r7, #6]
 1568 010c 002B     		cmp	r3, #0
 1569 010e D1D1     		bne	.L90
 935:Drivers/STM32F4xx_HAL_Driver/Src/stm32f4xx_hal_i2c.c ****       }
 936:Drivers/STM32F4xx_HAL_Driver/Src/stm32f4xx_hal_i2c.c ****     }
 937:Drivers/STM32F4xx_HAL_Driver/Src/stm32f4xx_hal_i2c.c **** 
 938:Drivers/STM32F4xx_HAL_Driver/Src/stm32f4xx_hal_i2c.c ****     /* Wait until STOP flag is set */
 939:Drivers/STM32F4xx_HAL_Driver/Src/stm32f4xx_hal_i2c.c ****     if(I2C_WaitOnFlagUntilTimeout(hi2c, I2C_FLAG_STOPF, RESET, Timeout) != HAL_OK)
 1570              		.loc 1 939 0
 1571 0110 F868     		ldr	r0, [r7, #12]
 1572 0112 1A49     		ldr	r1, .L92+12
 1573 0114 0022     		movs	r2, #0
 1574 0116 3B68     		ldr	r3, [r7]
 1575 0118 FFF7FEFF 		bl	I2C_WaitOnFlagUntilTimeout
 1576 011c 0346     		mov	r3, r0
 1577 011e 002B     		cmp	r3, #0
 1578 0120 01D0     		beq	.L91
 940:Drivers/STM32F4xx_HAL_Driver/Src/stm32f4xx_hal_i2c.c ****     {
 941:Drivers/STM32F4xx_HAL_Driver/Src/stm32f4xx_hal_i2c.c ****       return HAL_TIMEOUT;
ARM GAS  /tmp/cc5bMm9J.s 			page 45


 1579              		.loc 1 941 0
 1580 0122 0323     		movs	r3, #3
 1581 0124 1FE0     		b	.L84
 1582              	.L91:
 1583              	.LBB9:
 942:Drivers/STM32F4xx_HAL_Driver/Src/stm32f4xx_hal_i2c.c ****     }
 943:Drivers/STM32F4xx_HAL_Driver/Src/stm32f4xx_hal_i2c.c **** 
 944:Drivers/STM32F4xx_HAL_Driver/Src/stm32f4xx_hal_i2c.c ****     /* Clear STOP flag */
 945:Drivers/STM32F4xx_HAL_Driver/Src/stm32f4xx_hal_i2c.c ****     __HAL_I2C_CLEAR_STOPFLAG(hi2c);
 1584              		.loc 1 945 0
 1585 0126 FB68     		ldr	r3, [r7, #12]
 1586 0128 1B68     		ldr	r3, [r3]
 1587 012a 5B69     		ldr	r3, [r3, #20]
 1588 012c 3B61     		str	r3, [r7, #16]
 1589 012e FB68     		ldr	r3, [r7, #12]
 1590 0130 1B68     		ldr	r3, [r3]
 1591 0132 FA68     		ldr	r2, [r7, #12]
 1592 0134 1268     		ldr	r2, [r2]
 1593 0136 1268     		ldr	r2, [r2]
 1594 0138 42F00102 		orr	r2, r2, #1
 1595 013c 1A60     		str	r2, [r3]
 1596 013e 3B69     		ldr	r3, [r7, #16]
 1597              	.LBE9:
 946:Drivers/STM32F4xx_HAL_Driver/Src/stm32f4xx_hal_i2c.c **** 
 947:Drivers/STM32F4xx_HAL_Driver/Src/stm32f4xx_hal_i2c.c ****     /* Disable Address Acknowledge */
 948:Drivers/STM32F4xx_HAL_Driver/Src/stm32f4xx_hal_i2c.c ****     hi2c->Instance->CR1 &= ~I2C_CR1_ACK;
 1598              		.loc 1 948 0
 1599 0140 FB68     		ldr	r3, [r7, #12]
 1600 0142 1B68     		ldr	r3, [r3]
 1601 0144 FA68     		ldr	r2, [r7, #12]
 1602 0146 1268     		ldr	r2, [r2]
 1603 0148 1268     		ldr	r2, [r2]
 1604 014a 22F48062 		bic	r2, r2, #1024
 1605 014e 1A60     		str	r2, [r3]
 949:Drivers/STM32F4xx_HAL_Driver/Src/stm32f4xx_hal_i2c.c **** 
 950:Drivers/STM32F4xx_HAL_Driver/Src/stm32f4xx_hal_i2c.c ****     hi2c->State = HAL_I2C_STATE_READY;
 1606              		.loc 1 950 0
 1607 0150 FB68     		ldr	r3, [r7, #12]
 1608 0152 0122     		movs	r2, #1
 1609 0154 83F83520 		strb	r2, [r3, #53]
 951:Drivers/STM32F4xx_HAL_Driver/Src/stm32f4xx_hal_i2c.c **** 
 952:Drivers/STM32F4xx_HAL_Driver/Src/stm32f4xx_hal_i2c.c ****     /* Process Unlocked */
 953:Drivers/STM32F4xx_HAL_Driver/Src/stm32f4xx_hal_i2c.c ****     __HAL_UNLOCK(hi2c);
 1610              		.loc 1 953 0
 1611 0158 FB68     		ldr	r3, [r7, #12]
 1612 015a 0022     		movs	r2, #0
 1613 015c 83F83420 		strb	r2, [r3, #52]
 954:Drivers/STM32F4xx_HAL_Driver/Src/stm32f4xx_hal_i2c.c **** 
 955:Drivers/STM32F4xx_HAL_Driver/Src/stm32f4xx_hal_i2c.c ****     return HAL_OK;
 1614              		.loc 1 955 0
 1615 0160 0023     		movs	r3, #0
 1616 0162 00E0     		b	.L84
 1617              	.L81:
 956:Drivers/STM32F4xx_HAL_Driver/Src/stm32f4xx_hal_i2c.c ****   }
 957:Drivers/STM32F4xx_HAL_Driver/Src/stm32f4xx_hal_i2c.c ****   else
 958:Drivers/STM32F4xx_HAL_Driver/Src/stm32f4xx_hal_i2c.c ****   {
 959:Drivers/STM32F4xx_HAL_Driver/Src/stm32f4xx_hal_i2c.c ****     return HAL_BUSY;
ARM GAS  /tmp/cc5bMm9J.s 			page 46


 1618              		.loc 1 959 0
 1619 0164 0223     		movs	r3, #2
 1620              	.L84:
 960:Drivers/STM32F4xx_HAL_Driver/Src/stm32f4xx_hal_i2c.c ****   }
 961:Drivers/STM32F4xx_HAL_Driver/Src/stm32f4xx_hal_i2c.c **** }
 1621              		.loc 1 961 0
 1622 0166 1846     		mov	r0, r3
 1623 0168 1837     		adds	r7, r7, #24
 1624 016a BD46     		mov	sp, r7
 1625              		@ sp needed
 1626 016c 80BD     		pop	{r7, pc}
 1627              	.L93:
 1628 016e 00BF     		.align	2
 1629              	.L92:
 1630 0170 02001000 		.word	1048578
 1631 0174 02000100 		.word	65538
 1632 0178 40000100 		.word	65600
 1633 017c 10000100 		.word	65552
 1634              		.cfi_endproc
 1635              	.LFE132:
 1637              		.section	.text.HAL_I2C_Master_Transmit_IT,"ax",%progbits
 1638              		.align	2
 1639              		.global	HAL_I2C_Master_Transmit_IT
 1640              		.thumb
 1641              		.thumb_func
 1643              	HAL_I2C_Master_Transmit_IT:
 1644              	.LFB133:
 962:Drivers/STM32F4xx_HAL_Driver/Src/stm32f4xx_hal_i2c.c **** 
 963:Drivers/STM32F4xx_HAL_Driver/Src/stm32f4xx_hal_i2c.c **** /**
 964:Drivers/STM32F4xx_HAL_Driver/Src/stm32f4xx_hal_i2c.c ****   * @brief  Transmit in master mode an amount of data in no-blocking mode with Interrupt
 965:Drivers/STM32F4xx_HAL_Driver/Src/stm32f4xx_hal_i2c.c ****   * @param  hi2c: pointer to a I2C_HandleTypeDef structure that contains
 966:Drivers/STM32F4xx_HAL_Driver/Src/stm32f4xx_hal_i2c.c ****   *         the configuration information for I2C module
 967:Drivers/STM32F4xx_HAL_Driver/Src/stm32f4xx_hal_i2c.c ****   * @param  DevAddress: Target device address
 968:Drivers/STM32F4xx_HAL_Driver/Src/stm32f4xx_hal_i2c.c ****   * @param  pData: Pointer to data buffer
 969:Drivers/STM32F4xx_HAL_Driver/Src/stm32f4xx_hal_i2c.c ****   * @param  Size: Amount of data to be sent
 970:Drivers/STM32F4xx_HAL_Driver/Src/stm32f4xx_hal_i2c.c ****   * @retval HAL status
 971:Drivers/STM32F4xx_HAL_Driver/Src/stm32f4xx_hal_i2c.c ****   */
 972:Drivers/STM32F4xx_HAL_Driver/Src/stm32f4xx_hal_i2c.c **** HAL_StatusTypeDef HAL_I2C_Master_Transmit_IT(I2C_HandleTypeDef *hi2c, uint16_t DevAddress, uint8_t 
 973:Drivers/STM32F4xx_HAL_Driver/Src/stm32f4xx_hal_i2c.c **** {
 1645              		.loc 1 973 0
 1646              		.cfi_startproc
 1647              		@ args = 0, pretend = 0, frame = 24
 1648              		@ frame_needed = 1, uses_anonymous_args = 0
 1649 0000 80B5     		push	{r7, lr}
 1650              	.LCFI24:
 1651              		.cfi_def_cfa_offset 8
 1652              		.cfi_offset 7, -8
 1653              		.cfi_offset 14, -4
 1654 0002 86B0     		sub	sp, sp, #24
 1655              	.LCFI25:
 1656              		.cfi_def_cfa_offset 32
 1657 0004 00AF     		add	r7, sp, #0
 1658              	.LCFI26:
 1659              		.cfi_def_cfa_register 7
 1660 0006 F860     		str	r0, [r7, #12]
 1661 0008 7A60     		str	r2, [r7, #4]
 1662 000a 0A46     		mov	r2, r1	@ movhi
ARM GAS  /tmp/cc5bMm9J.s 			page 47


 1663 000c 7A81     		strh	r2, [r7, #10]	@ movhi
 1664 000e 3B81     		strh	r3, [r7, #8]	@ movhi
 974:Drivers/STM32F4xx_HAL_Driver/Src/stm32f4xx_hal_i2c.c ****   if(hi2c->State == HAL_I2C_STATE_READY)
 1665              		.loc 1 974 0
 1666 0010 FB68     		ldr	r3, [r7, #12]
 1667 0012 93F83530 		ldrb	r3, [r3, #53]
 1668 0016 DBB2     		uxtb	r3, r3
 1669 0018 012B     		cmp	r3, #1
 1670 001a 66D1     		bne	.L95
 975:Drivers/STM32F4xx_HAL_Driver/Src/stm32f4xx_hal_i2c.c ****   {
 976:Drivers/STM32F4xx_HAL_Driver/Src/stm32f4xx_hal_i2c.c ****     if((pData == NULL) || (Size == 0))
 1671              		.loc 1 976 0
 1672 001c 7B68     		ldr	r3, [r7, #4]
 1673 001e 002B     		cmp	r3, #0
 1674 0020 02D0     		beq	.L96
 1675              		.loc 1 976 0 is_stmt 0 discriminator 1
 1676 0022 3B89     		ldrh	r3, [r7, #8]
 1677 0024 002B     		cmp	r3, #0
 1678 0026 01D1     		bne	.L97
 1679              	.L96:
 977:Drivers/STM32F4xx_HAL_Driver/Src/stm32f4xx_hal_i2c.c ****     {
 978:Drivers/STM32F4xx_HAL_Driver/Src/stm32f4xx_hal_i2c.c ****       return  HAL_ERROR;
 1680              		.loc 1 978 0 is_stmt 1
 1681 0028 0123     		movs	r3, #1
 1682 002a 5FE0     		b	.L98
 1683              	.L97:
 979:Drivers/STM32F4xx_HAL_Driver/Src/stm32f4xx_hal_i2c.c ****     }
 980:Drivers/STM32F4xx_HAL_Driver/Src/stm32f4xx_hal_i2c.c **** 
 981:Drivers/STM32F4xx_HAL_Driver/Src/stm32f4xx_hal_i2c.c ****     /* Wait until BUSY flag is reset */
 982:Drivers/STM32F4xx_HAL_Driver/Src/stm32f4xx_hal_i2c.c ****     if(I2C_WaitOnFlagUntilTimeout(hi2c, I2C_FLAG_BUSY, SET, I2C_TIMEOUT_BUSY_FLAG) != HAL_OK)
 1684              		.loc 1 982 0
 1685 002c F868     		ldr	r0, [r7, #12]
 1686 002e 3149     		ldr	r1, .L103
 1687 0030 0122     		movs	r2, #1
 1688 0032 42F21073 		movw	r3, #10000
 1689 0036 FFF7FEFF 		bl	I2C_WaitOnFlagUntilTimeout
 1690 003a 0346     		mov	r3, r0
 1691 003c 002B     		cmp	r3, #0
 1692 003e 01D0     		beq	.L99
 983:Drivers/STM32F4xx_HAL_Driver/Src/stm32f4xx_hal_i2c.c ****     {
 984:Drivers/STM32F4xx_HAL_Driver/Src/stm32f4xx_hal_i2c.c ****       return HAL_BUSY;
 1693              		.loc 1 984 0
 1694 0040 0223     		movs	r3, #2
 1695 0042 53E0     		b	.L98
 1696              	.L99:
 985:Drivers/STM32F4xx_HAL_Driver/Src/stm32f4xx_hal_i2c.c ****     }
 986:Drivers/STM32F4xx_HAL_Driver/Src/stm32f4xx_hal_i2c.c **** 
 987:Drivers/STM32F4xx_HAL_Driver/Src/stm32f4xx_hal_i2c.c ****     /* Process Locked */
 988:Drivers/STM32F4xx_HAL_Driver/Src/stm32f4xx_hal_i2c.c ****     __HAL_LOCK(hi2c);
 1697              		.loc 1 988 0
 1698 0044 FB68     		ldr	r3, [r7, #12]
 1699 0046 93F83430 		ldrb	r3, [r3, #52]	@ zero_extendqisi2
 1700 004a 012B     		cmp	r3, #1
 1701 004c 01D1     		bne	.L100
 1702              		.loc 1 988 0 is_stmt 0 discriminator 1
 1703 004e 0223     		movs	r3, #2
 1704 0050 4CE0     		b	.L98
ARM GAS  /tmp/cc5bMm9J.s 			page 48


 1705              	.L100:
 1706              		.loc 1 988 0 discriminator 2
 1707 0052 FB68     		ldr	r3, [r7, #12]
 1708 0054 0122     		movs	r2, #1
 1709 0056 83F83420 		strb	r2, [r3, #52]
 989:Drivers/STM32F4xx_HAL_Driver/Src/stm32f4xx_hal_i2c.c ****     
 990:Drivers/STM32F4xx_HAL_Driver/Src/stm32f4xx_hal_i2c.c ****     /* Disable Pos */
 991:Drivers/STM32F4xx_HAL_Driver/Src/stm32f4xx_hal_i2c.c ****     hi2c->Instance->CR1 &= ~I2C_CR1_POS;
 1710              		.loc 1 991 0 is_stmt 1 discriminator 2
 1711 005a FB68     		ldr	r3, [r7, #12]
 1712 005c 1B68     		ldr	r3, [r3]
 1713 005e FA68     		ldr	r2, [r7, #12]
 1714 0060 1268     		ldr	r2, [r2]
 1715 0062 1268     		ldr	r2, [r2]
 1716 0064 22F40062 		bic	r2, r2, #2048
 1717 0068 1A60     		str	r2, [r3]
 992:Drivers/STM32F4xx_HAL_Driver/Src/stm32f4xx_hal_i2c.c **** 
 993:Drivers/STM32F4xx_HAL_Driver/Src/stm32f4xx_hal_i2c.c ****     hi2c->State = HAL_I2C_STATE_BUSY_TX;
 1718              		.loc 1 993 0 discriminator 2
 1719 006a FB68     		ldr	r3, [r7, #12]
 1720 006c 1222     		movs	r2, #18
 1721 006e 83F83520 		strb	r2, [r3, #53]
 994:Drivers/STM32F4xx_HAL_Driver/Src/stm32f4xx_hal_i2c.c ****     hi2c->ErrorCode = HAL_I2C_ERROR_NONE;
 1722              		.loc 1 994 0 discriminator 2
 1723 0072 FB68     		ldr	r3, [r7, #12]
 1724 0074 0022     		movs	r2, #0
 1725 0076 9A63     		str	r2, [r3, #56]
 995:Drivers/STM32F4xx_HAL_Driver/Src/stm32f4xx_hal_i2c.c **** 
 996:Drivers/STM32F4xx_HAL_Driver/Src/stm32f4xx_hal_i2c.c ****     hi2c->pBuffPtr = pData;
 1726              		.loc 1 996 0 discriminator 2
 1727 0078 FB68     		ldr	r3, [r7, #12]
 1728 007a 7A68     		ldr	r2, [r7, #4]
 1729 007c 5A62     		str	r2, [r3, #36]
 997:Drivers/STM32F4xx_HAL_Driver/Src/stm32f4xx_hal_i2c.c ****     hi2c->XferSize = Size;
 1730              		.loc 1 997 0 discriminator 2
 1731 007e FB68     		ldr	r3, [r7, #12]
 1732 0080 3A89     		ldrh	r2, [r7, #8]	@ movhi
 1733 0082 1A85     		strh	r2, [r3, #40]	@ movhi
 998:Drivers/STM32F4xx_HAL_Driver/Src/stm32f4xx_hal_i2c.c ****     hi2c->XferCount = Size;
 1734              		.loc 1 998 0 discriminator 2
 1735 0084 FB68     		ldr	r3, [r7, #12]
 1736 0086 3A89     		ldrh	r2, [r7, #8]	@ movhi
 1737 0088 5A85     		strh	r2, [r3, #42]	@ movhi
 999:Drivers/STM32F4xx_HAL_Driver/Src/stm32f4xx_hal_i2c.c **** 
1000:Drivers/STM32F4xx_HAL_Driver/Src/stm32f4xx_hal_i2c.c ****     /* Send Slave Address */
1001:Drivers/STM32F4xx_HAL_Driver/Src/stm32f4xx_hal_i2c.c ****     if(I2C_MasterRequestWrite(hi2c, DevAddress, I2C_TIMEOUT_FLAG) != HAL_OK)
 1738              		.loc 1 1001 0 discriminator 2
 1739 008a 7B89     		ldrh	r3, [r7, #10]
 1740 008c F868     		ldr	r0, [r7, #12]
 1741 008e 1946     		mov	r1, r3
 1742 0090 2322     		movs	r2, #35
 1743 0092 FFF7FEFF 		bl	I2C_MasterRequestWrite
 1744 0096 0346     		mov	r3, r0
 1745 0098 002B     		cmp	r3, #0
 1746 009a 0FD0     		beq	.L101
1002:Drivers/STM32F4xx_HAL_Driver/Src/stm32f4xx_hal_i2c.c ****     {
1003:Drivers/STM32F4xx_HAL_Driver/Src/stm32f4xx_hal_i2c.c ****       if(hi2c->ErrorCode == HAL_I2C_ERROR_AF)
ARM GAS  /tmp/cc5bMm9J.s 			page 49


 1747              		.loc 1 1003 0
 1748 009c FB68     		ldr	r3, [r7, #12]
 1749 009e 9B6B     		ldr	r3, [r3, #56]
 1750 00a0 042B     		cmp	r3, #4
 1751 00a2 05D1     		bne	.L102
1004:Drivers/STM32F4xx_HAL_Driver/Src/stm32f4xx_hal_i2c.c ****       {
1005:Drivers/STM32F4xx_HAL_Driver/Src/stm32f4xx_hal_i2c.c ****         /* Process Unlocked */
1006:Drivers/STM32F4xx_HAL_Driver/Src/stm32f4xx_hal_i2c.c ****         __HAL_UNLOCK(hi2c);
 1752              		.loc 1 1006 0
 1753 00a4 FB68     		ldr	r3, [r7, #12]
 1754 00a6 0022     		movs	r2, #0
 1755 00a8 83F83420 		strb	r2, [r3, #52]
1007:Drivers/STM32F4xx_HAL_Driver/Src/stm32f4xx_hal_i2c.c ****         return HAL_ERROR;
 1756              		.loc 1 1007 0
 1757 00ac 0123     		movs	r3, #1
 1758 00ae 1DE0     		b	.L98
 1759              	.L102:
1008:Drivers/STM32F4xx_HAL_Driver/Src/stm32f4xx_hal_i2c.c ****       }
1009:Drivers/STM32F4xx_HAL_Driver/Src/stm32f4xx_hal_i2c.c ****       else
1010:Drivers/STM32F4xx_HAL_Driver/Src/stm32f4xx_hal_i2c.c ****       {
1011:Drivers/STM32F4xx_HAL_Driver/Src/stm32f4xx_hal_i2c.c ****         /* Process Unlocked */
1012:Drivers/STM32F4xx_HAL_Driver/Src/stm32f4xx_hal_i2c.c ****         __HAL_UNLOCK(hi2c);
 1760              		.loc 1 1012 0
 1761 00b0 FB68     		ldr	r3, [r7, #12]
 1762 00b2 0022     		movs	r2, #0
 1763 00b4 83F83420 		strb	r2, [r3, #52]
1013:Drivers/STM32F4xx_HAL_Driver/Src/stm32f4xx_hal_i2c.c ****         return HAL_TIMEOUT;
 1764              		.loc 1 1013 0
 1765 00b8 0323     		movs	r3, #3
 1766 00ba 17E0     		b	.L98
 1767              	.L101:
 1768              	.LBB10:
1014:Drivers/STM32F4xx_HAL_Driver/Src/stm32f4xx_hal_i2c.c ****       }
1015:Drivers/STM32F4xx_HAL_Driver/Src/stm32f4xx_hal_i2c.c ****     }
1016:Drivers/STM32F4xx_HAL_Driver/Src/stm32f4xx_hal_i2c.c **** 
1017:Drivers/STM32F4xx_HAL_Driver/Src/stm32f4xx_hal_i2c.c ****     /* Clear ADDR flag */
1018:Drivers/STM32F4xx_HAL_Driver/Src/stm32f4xx_hal_i2c.c ****     __HAL_I2C_CLEAR_ADDRFLAG(hi2c);
 1769              		.loc 1 1018 0
 1770 00bc FB68     		ldr	r3, [r7, #12]
 1771 00be 1B68     		ldr	r3, [r3]
 1772 00c0 5B69     		ldr	r3, [r3, #20]
 1773 00c2 7B61     		str	r3, [r7, #20]
 1774 00c4 FB68     		ldr	r3, [r7, #12]
 1775 00c6 1B68     		ldr	r3, [r3]
 1776 00c8 9B69     		ldr	r3, [r3, #24]
 1777 00ca 7B61     		str	r3, [r7, #20]
 1778 00cc 7B69     		ldr	r3, [r7, #20]
 1779              	.LBE10:
1019:Drivers/STM32F4xx_HAL_Driver/Src/stm32f4xx_hal_i2c.c **** 
1020:Drivers/STM32F4xx_HAL_Driver/Src/stm32f4xx_hal_i2c.c ****     /* Process Unlocked */
1021:Drivers/STM32F4xx_HAL_Driver/Src/stm32f4xx_hal_i2c.c ****     __HAL_UNLOCK(hi2c);
 1780              		.loc 1 1021 0
 1781 00ce FB68     		ldr	r3, [r7, #12]
 1782 00d0 0022     		movs	r2, #0
 1783 00d2 83F83420 		strb	r2, [r3, #52]
1022:Drivers/STM32F4xx_HAL_Driver/Src/stm32f4xx_hal_i2c.c **** 
1023:Drivers/STM32F4xx_HAL_Driver/Src/stm32f4xx_hal_i2c.c ****     /* Note : The I2C interrupts must be enabled after unlocking current process
ARM GAS  /tmp/cc5bMm9J.s 			page 50


1024:Drivers/STM32F4xx_HAL_Driver/Src/stm32f4xx_hal_i2c.c ****               to avoid the risk of I2C interrupt handle execution before current
1025:Drivers/STM32F4xx_HAL_Driver/Src/stm32f4xx_hal_i2c.c ****               process unlock */
1026:Drivers/STM32F4xx_HAL_Driver/Src/stm32f4xx_hal_i2c.c **** 
1027:Drivers/STM32F4xx_HAL_Driver/Src/stm32f4xx_hal_i2c.c ****     /* Enable EVT, BUF and ERR interrupt */
1028:Drivers/STM32F4xx_HAL_Driver/Src/stm32f4xx_hal_i2c.c ****     __HAL_I2C_ENABLE_IT(hi2c, I2C_IT_EVT | I2C_IT_BUF | I2C_IT_ERR);
 1784              		.loc 1 1028 0
 1785 00d6 FB68     		ldr	r3, [r7, #12]
 1786 00d8 1B68     		ldr	r3, [r3]
 1787 00da FA68     		ldr	r2, [r7, #12]
 1788 00dc 1268     		ldr	r2, [r2]
 1789 00de 5268     		ldr	r2, [r2, #4]
 1790 00e0 42F4E062 		orr	r2, r2, #1792
 1791 00e4 5A60     		str	r2, [r3, #4]
1029:Drivers/STM32F4xx_HAL_Driver/Src/stm32f4xx_hal_i2c.c **** 
1030:Drivers/STM32F4xx_HAL_Driver/Src/stm32f4xx_hal_i2c.c ****     return HAL_OK;
 1792              		.loc 1 1030 0
 1793 00e6 0023     		movs	r3, #0
 1794 00e8 00E0     		b	.L98
 1795              	.L95:
1031:Drivers/STM32F4xx_HAL_Driver/Src/stm32f4xx_hal_i2c.c ****   }
1032:Drivers/STM32F4xx_HAL_Driver/Src/stm32f4xx_hal_i2c.c ****   else
1033:Drivers/STM32F4xx_HAL_Driver/Src/stm32f4xx_hal_i2c.c ****   {
1034:Drivers/STM32F4xx_HAL_Driver/Src/stm32f4xx_hal_i2c.c ****     return HAL_BUSY;
 1796              		.loc 1 1034 0
 1797 00ea 0223     		movs	r3, #2
 1798              	.L98:
1035:Drivers/STM32F4xx_HAL_Driver/Src/stm32f4xx_hal_i2c.c ****   }
1036:Drivers/STM32F4xx_HAL_Driver/Src/stm32f4xx_hal_i2c.c **** }
 1799              		.loc 1 1036 0
 1800 00ec 1846     		mov	r0, r3
 1801 00ee 1837     		adds	r7, r7, #24
 1802 00f0 BD46     		mov	sp, r7
 1803              		@ sp needed
 1804 00f2 80BD     		pop	{r7, pc}
 1805              	.L104:
 1806              		.align	2
 1807              	.L103:
 1808 00f4 02001000 		.word	1048578
 1809              		.cfi_endproc
 1810              	.LFE133:
 1812              		.section	.text.HAL_I2C_Master_Receive_IT,"ax",%progbits
 1813              		.align	2
 1814              		.global	HAL_I2C_Master_Receive_IT
 1815              		.thumb
 1816              		.thumb_func
 1818              	HAL_I2C_Master_Receive_IT:
 1819              	.LFB134:
1037:Drivers/STM32F4xx_HAL_Driver/Src/stm32f4xx_hal_i2c.c **** 
1038:Drivers/STM32F4xx_HAL_Driver/Src/stm32f4xx_hal_i2c.c **** /**
1039:Drivers/STM32F4xx_HAL_Driver/Src/stm32f4xx_hal_i2c.c ****   * @brief  Receive in master mode an amount of data in no-blocking mode with Interrupt
1040:Drivers/STM32F4xx_HAL_Driver/Src/stm32f4xx_hal_i2c.c ****   * @param  hi2c: pointer to a I2C_HandleTypeDef structure that contains
1041:Drivers/STM32F4xx_HAL_Driver/Src/stm32f4xx_hal_i2c.c ****   *         the configuration information for I2C module
1042:Drivers/STM32F4xx_HAL_Driver/Src/stm32f4xx_hal_i2c.c ****   * @param  DevAddress: Target device address
1043:Drivers/STM32F4xx_HAL_Driver/Src/stm32f4xx_hal_i2c.c ****   * @param  pData: Pointer to data buffer
1044:Drivers/STM32F4xx_HAL_Driver/Src/stm32f4xx_hal_i2c.c ****   * @param  Size: Amount of data to be sent
1045:Drivers/STM32F4xx_HAL_Driver/Src/stm32f4xx_hal_i2c.c ****   * @retval HAL status
1046:Drivers/STM32F4xx_HAL_Driver/Src/stm32f4xx_hal_i2c.c ****   */
ARM GAS  /tmp/cc5bMm9J.s 			page 51


1047:Drivers/STM32F4xx_HAL_Driver/Src/stm32f4xx_hal_i2c.c **** HAL_StatusTypeDef HAL_I2C_Master_Receive_IT(I2C_HandleTypeDef *hi2c, uint16_t DevAddress, uint8_t *
1048:Drivers/STM32F4xx_HAL_Driver/Src/stm32f4xx_hal_i2c.c **** {
 1820              		.loc 1 1048 0
 1821              		.cfi_startproc
 1822              		@ args = 0, pretend = 0, frame = 32
 1823              		@ frame_needed = 1, uses_anonymous_args = 0
 1824 0000 80B5     		push	{r7, lr}
 1825              	.LCFI27:
 1826              		.cfi_def_cfa_offset 8
 1827              		.cfi_offset 7, -8
 1828              		.cfi_offset 14, -4
 1829 0002 88B0     		sub	sp, sp, #32
 1830              	.LCFI28:
 1831              		.cfi_def_cfa_offset 40
 1832 0004 00AF     		add	r7, sp, #0
 1833              	.LCFI29:
 1834              		.cfi_def_cfa_register 7
 1835 0006 F860     		str	r0, [r7, #12]
 1836 0008 7A60     		str	r2, [r7, #4]
 1837 000a 0A46     		mov	r2, r1	@ movhi
 1838 000c 7A81     		strh	r2, [r7, #10]	@ movhi
 1839 000e 3B81     		strh	r3, [r7, #8]	@ movhi
1049:Drivers/STM32F4xx_HAL_Driver/Src/stm32f4xx_hal_i2c.c ****   if(hi2c->State == HAL_I2C_STATE_READY)
 1840              		.loc 1 1049 0
 1841 0010 FB68     		ldr	r3, [r7, #12]
 1842 0012 93F83530 		ldrb	r3, [r3, #53]
 1843 0016 DBB2     		uxtb	r3, r3
 1844 0018 012B     		cmp	r3, #1
 1845 001a 40F0AD80 		bne	.L106
1050:Drivers/STM32F4xx_HAL_Driver/Src/stm32f4xx_hal_i2c.c ****   {
1051:Drivers/STM32F4xx_HAL_Driver/Src/stm32f4xx_hal_i2c.c ****     if((pData == NULL) || (Size == 0))
 1846              		.loc 1 1051 0
 1847 001e 7B68     		ldr	r3, [r7, #4]
 1848 0020 002B     		cmp	r3, #0
 1849 0022 02D0     		beq	.L107
 1850              		.loc 1 1051 0 is_stmt 0 discriminator 1
 1851 0024 3B89     		ldrh	r3, [r7, #8]
 1852 0026 002B     		cmp	r3, #0
 1853 0028 01D1     		bne	.L108
 1854              	.L107:
1052:Drivers/STM32F4xx_HAL_Driver/Src/stm32f4xx_hal_i2c.c ****     {
1053:Drivers/STM32F4xx_HAL_Driver/Src/stm32f4xx_hal_i2c.c ****       return  HAL_ERROR;
 1855              		.loc 1 1053 0 is_stmt 1
 1856 002a 0123     		movs	r3, #1
 1857 002c A5E0     		b	.L109
 1858              	.L108:
1054:Drivers/STM32F4xx_HAL_Driver/Src/stm32f4xx_hal_i2c.c ****     }
1055:Drivers/STM32F4xx_HAL_Driver/Src/stm32f4xx_hal_i2c.c **** 
1056:Drivers/STM32F4xx_HAL_Driver/Src/stm32f4xx_hal_i2c.c ****     /* Wait until BUSY flag is reset */
1057:Drivers/STM32F4xx_HAL_Driver/Src/stm32f4xx_hal_i2c.c ****     if(I2C_WaitOnFlagUntilTimeout(hi2c, I2C_FLAG_BUSY, SET, I2C_TIMEOUT_BUSY_FLAG) != HAL_OK)
 1859              		.loc 1 1057 0
 1860 002e F868     		ldr	r0, [r7, #12]
 1861 0030 5449     		ldr	r1, .L117
 1862 0032 0122     		movs	r2, #1
 1863 0034 42F21073 		movw	r3, #10000
 1864 0038 FFF7FEFF 		bl	I2C_WaitOnFlagUntilTimeout
 1865 003c 0346     		mov	r3, r0
ARM GAS  /tmp/cc5bMm9J.s 			page 52


 1866 003e 002B     		cmp	r3, #0
 1867 0040 01D0     		beq	.L110
1058:Drivers/STM32F4xx_HAL_Driver/Src/stm32f4xx_hal_i2c.c ****     {
1059:Drivers/STM32F4xx_HAL_Driver/Src/stm32f4xx_hal_i2c.c ****       return HAL_BUSY;
 1868              		.loc 1 1059 0
 1869 0042 0223     		movs	r3, #2
 1870 0044 99E0     		b	.L109
 1871              	.L110:
1060:Drivers/STM32F4xx_HAL_Driver/Src/stm32f4xx_hal_i2c.c ****     }
1061:Drivers/STM32F4xx_HAL_Driver/Src/stm32f4xx_hal_i2c.c **** 
1062:Drivers/STM32F4xx_HAL_Driver/Src/stm32f4xx_hal_i2c.c ****     /* Process Locked */
1063:Drivers/STM32F4xx_HAL_Driver/Src/stm32f4xx_hal_i2c.c ****     __HAL_LOCK(hi2c);
 1872              		.loc 1 1063 0
 1873 0046 FB68     		ldr	r3, [r7, #12]
 1874 0048 93F83430 		ldrb	r3, [r3, #52]	@ zero_extendqisi2
 1875 004c 012B     		cmp	r3, #1
 1876 004e 01D1     		bne	.L111
 1877              		.loc 1 1063 0 is_stmt 0 discriminator 1
 1878 0050 0223     		movs	r3, #2
 1879 0052 92E0     		b	.L109
 1880              	.L111:
 1881              		.loc 1 1063 0 discriminator 2
 1882 0054 FB68     		ldr	r3, [r7, #12]
 1883 0056 0122     		movs	r2, #1
 1884 0058 83F83420 		strb	r2, [r3, #52]
1064:Drivers/STM32F4xx_HAL_Driver/Src/stm32f4xx_hal_i2c.c ****     
1065:Drivers/STM32F4xx_HAL_Driver/Src/stm32f4xx_hal_i2c.c ****     /* Disable Pos */
1066:Drivers/STM32F4xx_HAL_Driver/Src/stm32f4xx_hal_i2c.c ****     hi2c->Instance->CR1 &= ~I2C_CR1_POS;
 1885              		.loc 1 1066 0 is_stmt 1 discriminator 2
 1886 005c FB68     		ldr	r3, [r7, #12]
 1887 005e 1B68     		ldr	r3, [r3]
 1888 0060 FA68     		ldr	r2, [r7, #12]
 1889 0062 1268     		ldr	r2, [r2]
 1890 0064 1268     		ldr	r2, [r2]
 1891 0066 22F40062 		bic	r2, r2, #2048
 1892 006a 1A60     		str	r2, [r3]
1067:Drivers/STM32F4xx_HAL_Driver/Src/stm32f4xx_hal_i2c.c **** 
1068:Drivers/STM32F4xx_HAL_Driver/Src/stm32f4xx_hal_i2c.c ****     hi2c->State = HAL_I2C_STATE_BUSY_RX;
 1893              		.loc 1 1068 0 discriminator 2
 1894 006c FB68     		ldr	r3, [r7, #12]
 1895 006e 2222     		movs	r2, #34
 1896 0070 83F83520 		strb	r2, [r3, #53]
1069:Drivers/STM32F4xx_HAL_Driver/Src/stm32f4xx_hal_i2c.c ****     hi2c->ErrorCode = HAL_I2C_ERROR_NONE;
 1897              		.loc 1 1069 0 discriminator 2
 1898 0074 FB68     		ldr	r3, [r7, #12]
 1899 0076 0022     		movs	r2, #0
 1900 0078 9A63     		str	r2, [r3, #56]
1070:Drivers/STM32F4xx_HAL_Driver/Src/stm32f4xx_hal_i2c.c **** 
1071:Drivers/STM32F4xx_HAL_Driver/Src/stm32f4xx_hal_i2c.c ****     hi2c->pBuffPtr = pData;
 1901              		.loc 1 1071 0 discriminator 2
 1902 007a FB68     		ldr	r3, [r7, #12]
 1903 007c 7A68     		ldr	r2, [r7, #4]
 1904 007e 5A62     		str	r2, [r3, #36]
1072:Drivers/STM32F4xx_HAL_Driver/Src/stm32f4xx_hal_i2c.c ****     hi2c->XferSize = Size;
 1905              		.loc 1 1072 0 discriminator 2
 1906 0080 FB68     		ldr	r3, [r7, #12]
 1907 0082 3A89     		ldrh	r2, [r7, #8]	@ movhi
ARM GAS  /tmp/cc5bMm9J.s 			page 53


 1908 0084 1A85     		strh	r2, [r3, #40]	@ movhi
1073:Drivers/STM32F4xx_HAL_Driver/Src/stm32f4xx_hal_i2c.c ****     hi2c->XferCount = Size;
 1909              		.loc 1 1073 0 discriminator 2
 1910 0086 FB68     		ldr	r3, [r7, #12]
 1911 0088 3A89     		ldrh	r2, [r7, #8]	@ movhi
 1912 008a 5A85     		strh	r2, [r3, #42]	@ movhi
1074:Drivers/STM32F4xx_HAL_Driver/Src/stm32f4xx_hal_i2c.c **** 
1075:Drivers/STM32F4xx_HAL_Driver/Src/stm32f4xx_hal_i2c.c ****     /* Send Slave Address */
1076:Drivers/STM32F4xx_HAL_Driver/Src/stm32f4xx_hal_i2c.c ****     if(I2C_MasterRequestRead(hi2c, DevAddress, I2C_TIMEOUT_FLAG) != HAL_OK)
 1913              		.loc 1 1076 0 discriminator 2
 1914 008c 7B89     		ldrh	r3, [r7, #10]
 1915 008e F868     		ldr	r0, [r7, #12]
 1916 0090 1946     		mov	r1, r3
 1917 0092 2322     		movs	r2, #35
 1918 0094 FFF7FEFF 		bl	I2C_MasterRequestRead
 1919 0098 0346     		mov	r3, r0
 1920 009a 002B     		cmp	r3, #0
 1921 009c 0FD0     		beq	.L112
1077:Drivers/STM32F4xx_HAL_Driver/Src/stm32f4xx_hal_i2c.c ****     {
1078:Drivers/STM32F4xx_HAL_Driver/Src/stm32f4xx_hal_i2c.c ****       if(hi2c->ErrorCode == HAL_I2C_ERROR_AF)
 1922              		.loc 1 1078 0
 1923 009e FB68     		ldr	r3, [r7, #12]
 1924 00a0 9B6B     		ldr	r3, [r3, #56]
 1925 00a2 042B     		cmp	r3, #4
 1926 00a4 05D1     		bne	.L113
1079:Drivers/STM32F4xx_HAL_Driver/Src/stm32f4xx_hal_i2c.c ****       {
1080:Drivers/STM32F4xx_HAL_Driver/Src/stm32f4xx_hal_i2c.c ****         /* Process Unlocked */
1081:Drivers/STM32F4xx_HAL_Driver/Src/stm32f4xx_hal_i2c.c ****         __HAL_UNLOCK(hi2c);
 1927              		.loc 1 1081 0
 1928 00a6 FB68     		ldr	r3, [r7, #12]
 1929 00a8 0022     		movs	r2, #0
 1930 00aa 83F83420 		strb	r2, [r3, #52]
1082:Drivers/STM32F4xx_HAL_Driver/Src/stm32f4xx_hal_i2c.c ****         return HAL_ERROR;
 1931              		.loc 1 1082 0
 1932 00ae 0123     		movs	r3, #1
 1933 00b0 63E0     		b	.L109
 1934              	.L113:
1083:Drivers/STM32F4xx_HAL_Driver/Src/stm32f4xx_hal_i2c.c ****       }
1084:Drivers/STM32F4xx_HAL_Driver/Src/stm32f4xx_hal_i2c.c ****       else
1085:Drivers/STM32F4xx_HAL_Driver/Src/stm32f4xx_hal_i2c.c ****       {
1086:Drivers/STM32F4xx_HAL_Driver/Src/stm32f4xx_hal_i2c.c ****         /* Process Unlocked */
1087:Drivers/STM32F4xx_HAL_Driver/Src/stm32f4xx_hal_i2c.c ****         __HAL_UNLOCK(hi2c);
 1935              		.loc 1 1087 0
 1936 00b2 FB68     		ldr	r3, [r7, #12]
 1937 00b4 0022     		movs	r2, #0
 1938 00b6 83F83420 		strb	r2, [r3, #52]
1088:Drivers/STM32F4xx_HAL_Driver/Src/stm32f4xx_hal_i2c.c ****         return HAL_TIMEOUT;
 1939              		.loc 1 1088 0
 1940 00ba 0323     		movs	r3, #3
 1941 00bc 5DE0     		b	.L109
 1942              	.L112:
1089:Drivers/STM32F4xx_HAL_Driver/Src/stm32f4xx_hal_i2c.c ****       }
1090:Drivers/STM32F4xx_HAL_Driver/Src/stm32f4xx_hal_i2c.c ****     }
1091:Drivers/STM32F4xx_HAL_Driver/Src/stm32f4xx_hal_i2c.c **** 
1092:Drivers/STM32F4xx_HAL_Driver/Src/stm32f4xx_hal_i2c.c ****     if(hi2c->XferCount == 1)
 1943              		.loc 1 1092 0
 1944 00be FB68     		ldr	r3, [r7, #12]
ARM GAS  /tmp/cc5bMm9J.s 			page 54


 1945 00c0 5B8D     		ldrh	r3, [r3, #42]	@ movhi
 1946 00c2 9BB2     		uxth	r3, r3
 1947 00c4 012B     		cmp	r3, #1
 1948 00c6 19D1     		bne	.L114
1093:Drivers/STM32F4xx_HAL_Driver/Src/stm32f4xx_hal_i2c.c ****     {
1094:Drivers/STM32F4xx_HAL_Driver/Src/stm32f4xx_hal_i2c.c ****       /* Disable Acknowledge */
1095:Drivers/STM32F4xx_HAL_Driver/Src/stm32f4xx_hal_i2c.c ****       hi2c->Instance->CR1 &= ~I2C_CR1_ACK;
 1949              		.loc 1 1095 0
 1950 00c8 FB68     		ldr	r3, [r7, #12]
 1951 00ca 1B68     		ldr	r3, [r3]
 1952 00cc FA68     		ldr	r2, [r7, #12]
 1953 00ce 1268     		ldr	r2, [r2]
 1954 00d0 1268     		ldr	r2, [r2]
 1955 00d2 22F48062 		bic	r2, r2, #1024
 1956 00d6 1A60     		str	r2, [r3]
 1957              	.LBB11:
1096:Drivers/STM32F4xx_HAL_Driver/Src/stm32f4xx_hal_i2c.c **** 
1097:Drivers/STM32F4xx_HAL_Driver/Src/stm32f4xx_hal_i2c.c ****       /* Clear ADDR flag */
1098:Drivers/STM32F4xx_HAL_Driver/Src/stm32f4xx_hal_i2c.c ****       __HAL_I2C_CLEAR_ADDRFLAG(hi2c);
 1958              		.loc 1 1098 0
 1959 00d8 FB68     		ldr	r3, [r7, #12]
 1960 00da 1B68     		ldr	r3, [r3]
 1961 00dc 5B69     		ldr	r3, [r3, #20]
 1962 00de FB61     		str	r3, [r7, #28]
 1963 00e0 FB68     		ldr	r3, [r7, #12]
 1964 00e2 1B68     		ldr	r3, [r3]
 1965 00e4 9B69     		ldr	r3, [r3, #24]
 1966 00e6 FB61     		str	r3, [r7, #28]
 1967 00e8 FB69     		ldr	r3, [r7, #28]
 1968              	.LBE11:
1099:Drivers/STM32F4xx_HAL_Driver/Src/stm32f4xx_hal_i2c.c **** 
1100:Drivers/STM32F4xx_HAL_Driver/Src/stm32f4xx_hal_i2c.c ****       /* Generate Stop */
1101:Drivers/STM32F4xx_HAL_Driver/Src/stm32f4xx_hal_i2c.c ****       hi2c->Instance->CR1 |= I2C_CR1_STOP;
 1969              		.loc 1 1101 0
 1970 00ea FB68     		ldr	r3, [r7, #12]
 1971 00ec 1B68     		ldr	r3, [r3]
 1972 00ee FA68     		ldr	r2, [r7, #12]
 1973 00f0 1268     		ldr	r2, [r2]
 1974 00f2 1268     		ldr	r2, [r2]
 1975 00f4 42F40072 		orr	r2, r2, #512
 1976 00f8 1A60     		str	r2, [r3]
 1977 00fa 2FE0     		b	.L115
 1978              	.L114:
1102:Drivers/STM32F4xx_HAL_Driver/Src/stm32f4xx_hal_i2c.c ****     }
1103:Drivers/STM32F4xx_HAL_Driver/Src/stm32f4xx_hal_i2c.c ****     else if(hi2c->XferCount == 2)
 1979              		.loc 1 1103 0
 1980 00fc FB68     		ldr	r3, [r7, #12]
 1981 00fe 5B8D     		ldrh	r3, [r3, #42]	@ movhi
 1982 0100 9BB2     		uxth	r3, r3
 1983 0102 022B     		cmp	r3, #2
 1984 0104 19D1     		bne	.L116
1104:Drivers/STM32F4xx_HAL_Driver/Src/stm32f4xx_hal_i2c.c ****     {
1105:Drivers/STM32F4xx_HAL_Driver/Src/stm32f4xx_hal_i2c.c ****       /* Disable Acknowledge */
1106:Drivers/STM32F4xx_HAL_Driver/Src/stm32f4xx_hal_i2c.c ****       hi2c->Instance->CR1 &= ~I2C_CR1_ACK;
 1985              		.loc 1 1106 0
 1986 0106 FB68     		ldr	r3, [r7, #12]
 1987 0108 1B68     		ldr	r3, [r3]
ARM GAS  /tmp/cc5bMm9J.s 			page 55


 1988 010a FA68     		ldr	r2, [r7, #12]
 1989 010c 1268     		ldr	r2, [r2]
 1990 010e 1268     		ldr	r2, [r2]
 1991 0110 22F48062 		bic	r2, r2, #1024
 1992 0114 1A60     		str	r2, [r3]
1107:Drivers/STM32F4xx_HAL_Driver/Src/stm32f4xx_hal_i2c.c **** 
1108:Drivers/STM32F4xx_HAL_Driver/Src/stm32f4xx_hal_i2c.c ****       /* Enable Pos */
1109:Drivers/STM32F4xx_HAL_Driver/Src/stm32f4xx_hal_i2c.c ****       hi2c->Instance->CR1 |= I2C_CR1_POS;
 1993              		.loc 1 1109 0
 1994 0116 FB68     		ldr	r3, [r7, #12]
 1995 0118 1B68     		ldr	r3, [r3]
 1996 011a FA68     		ldr	r2, [r7, #12]
 1997 011c 1268     		ldr	r2, [r2]
 1998 011e 1268     		ldr	r2, [r2]
 1999 0120 42F40062 		orr	r2, r2, #2048
 2000 0124 1A60     		str	r2, [r3]
 2001              	.LBB12:
1110:Drivers/STM32F4xx_HAL_Driver/Src/stm32f4xx_hal_i2c.c **** 
1111:Drivers/STM32F4xx_HAL_Driver/Src/stm32f4xx_hal_i2c.c ****       /* Clear ADDR flag */
1112:Drivers/STM32F4xx_HAL_Driver/Src/stm32f4xx_hal_i2c.c ****       __HAL_I2C_CLEAR_ADDRFLAG(hi2c);
 2002              		.loc 1 1112 0
 2003 0126 FB68     		ldr	r3, [r7, #12]
 2004 0128 1B68     		ldr	r3, [r3]
 2005 012a 5B69     		ldr	r3, [r3, #20]
 2006 012c BB61     		str	r3, [r7, #24]
 2007 012e FB68     		ldr	r3, [r7, #12]
 2008 0130 1B68     		ldr	r3, [r3]
 2009 0132 9B69     		ldr	r3, [r3, #24]
 2010 0134 BB61     		str	r3, [r7, #24]
 2011 0136 BB69     		ldr	r3, [r7, #24]
 2012              	.LBE12:
 2013 0138 10E0     		b	.L115
 2014              	.L116:
1113:Drivers/STM32F4xx_HAL_Driver/Src/stm32f4xx_hal_i2c.c ****     }
1114:Drivers/STM32F4xx_HAL_Driver/Src/stm32f4xx_hal_i2c.c ****     else
1115:Drivers/STM32F4xx_HAL_Driver/Src/stm32f4xx_hal_i2c.c ****     {
1116:Drivers/STM32F4xx_HAL_Driver/Src/stm32f4xx_hal_i2c.c ****       /* Enable Acknowledge */
1117:Drivers/STM32F4xx_HAL_Driver/Src/stm32f4xx_hal_i2c.c ****       hi2c->Instance->CR1 |= I2C_CR1_ACK;
 2015              		.loc 1 1117 0
 2016 013a FB68     		ldr	r3, [r7, #12]
 2017 013c 1B68     		ldr	r3, [r3]
 2018 013e FA68     		ldr	r2, [r7, #12]
 2019 0140 1268     		ldr	r2, [r2]
 2020 0142 1268     		ldr	r2, [r2]
 2021 0144 42F48062 		orr	r2, r2, #1024
 2022 0148 1A60     		str	r2, [r3]
 2023              	.LBB13:
1118:Drivers/STM32F4xx_HAL_Driver/Src/stm32f4xx_hal_i2c.c **** 
1119:Drivers/STM32F4xx_HAL_Driver/Src/stm32f4xx_hal_i2c.c ****       /* Clear ADDR flag */
1120:Drivers/STM32F4xx_HAL_Driver/Src/stm32f4xx_hal_i2c.c ****       __HAL_I2C_CLEAR_ADDRFLAG(hi2c);
 2024              		.loc 1 1120 0
 2025 014a FB68     		ldr	r3, [r7, #12]
 2026 014c 1B68     		ldr	r3, [r3]
 2027 014e 5B69     		ldr	r3, [r3, #20]
 2028 0150 7B61     		str	r3, [r7, #20]
 2029 0152 FB68     		ldr	r3, [r7, #12]
 2030 0154 1B68     		ldr	r3, [r3]
ARM GAS  /tmp/cc5bMm9J.s 			page 56


 2031 0156 9B69     		ldr	r3, [r3, #24]
 2032 0158 7B61     		str	r3, [r7, #20]
 2033 015a 7B69     		ldr	r3, [r7, #20]
 2034              	.L115:
 2035              	.LBE13:
1121:Drivers/STM32F4xx_HAL_Driver/Src/stm32f4xx_hal_i2c.c ****     }
1122:Drivers/STM32F4xx_HAL_Driver/Src/stm32f4xx_hal_i2c.c **** 
1123:Drivers/STM32F4xx_HAL_Driver/Src/stm32f4xx_hal_i2c.c ****     /* Process Unlocked */
1124:Drivers/STM32F4xx_HAL_Driver/Src/stm32f4xx_hal_i2c.c ****     __HAL_UNLOCK(hi2c);
 2036              		.loc 1 1124 0
 2037 015c FB68     		ldr	r3, [r7, #12]
 2038 015e 0022     		movs	r2, #0
 2039 0160 83F83420 		strb	r2, [r3, #52]
1125:Drivers/STM32F4xx_HAL_Driver/Src/stm32f4xx_hal_i2c.c **** 
1126:Drivers/STM32F4xx_HAL_Driver/Src/stm32f4xx_hal_i2c.c ****     /* Note : The I2C interrupts must be enabled after unlocking current process
1127:Drivers/STM32F4xx_HAL_Driver/Src/stm32f4xx_hal_i2c.c ****               to avoid the risk of I2C interrupt handle execution before current
1128:Drivers/STM32F4xx_HAL_Driver/Src/stm32f4xx_hal_i2c.c ****               process unlock */
1129:Drivers/STM32F4xx_HAL_Driver/Src/stm32f4xx_hal_i2c.c **** 
1130:Drivers/STM32F4xx_HAL_Driver/Src/stm32f4xx_hal_i2c.c ****     /* Enable EVT, BUF and ERR interrupt */
1131:Drivers/STM32F4xx_HAL_Driver/Src/stm32f4xx_hal_i2c.c ****     __HAL_I2C_ENABLE_IT(hi2c, I2C_IT_EVT | I2C_IT_BUF | I2C_IT_ERR);
 2040              		.loc 1 1131 0
 2041 0164 FB68     		ldr	r3, [r7, #12]
 2042 0166 1B68     		ldr	r3, [r3]
 2043 0168 FA68     		ldr	r2, [r7, #12]
 2044 016a 1268     		ldr	r2, [r2]
 2045 016c 5268     		ldr	r2, [r2, #4]
 2046 016e 42F4E062 		orr	r2, r2, #1792
 2047 0172 5A60     		str	r2, [r3, #4]
1132:Drivers/STM32F4xx_HAL_Driver/Src/stm32f4xx_hal_i2c.c **** 
1133:Drivers/STM32F4xx_HAL_Driver/Src/stm32f4xx_hal_i2c.c ****     return HAL_OK;
 2048              		.loc 1 1133 0
 2049 0174 0023     		movs	r3, #0
 2050 0176 00E0     		b	.L109
 2051              	.L106:
1134:Drivers/STM32F4xx_HAL_Driver/Src/stm32f4xx_hal_i2c.c ****   }
1135:Drivers/STM32F4xx_HAL_Driver/Src/stm32f4xx_hal_i2c.c ****   else
1136:Drivers/STM32F4xx_HAL_Driver/Src/stm32f4xx_hal_i2c.c ****   {
1137:Drivers/STM32F4xx_HAL_Driver/Src/stm32f4xx_hal_i2c.c ****     return HAL_BUSY;
 2052              		.loc 1 1137 0
 2053 0178 0223     		movs	r3, #2
 2054              	.L109:
1138:Drivers/STM32F4xx_HAL_Driver/Src/stm32f4xx_hal_i2c.c ****   }
1139:Drivers/STM32F4xx_HAL_Driver/Src/stm32f4xx_hal_i2c.c **** }
 2055              		.loc 1 1139 0
 2056 017a 1846     		mov	r0, r3
 2057 017c 2037     		adds	r7, r7, #32
 2058 017e BD46     		mov	sp, r7
 2059              		@ sp needed
 2060 0180 80BD     		pop	{r7, pc}
 2061              	.L118:
 2062 0182 00BF     		.align	2
 2063              	.L117:
 2064 0184 02001000 		.word	1048578
 2065              		.cfi_endproc
 2066              	.LFE134:
 2068              		.section	.text.HAL_I2C_Slave_Transmit_IT,"ax",%progbits
 2069              		.align	2
ARM GAS  /tmp/cc5bMm9J.s 			page 57


 2070              		.global	HAL_I2C_Slave_Transmit_IT
 2071              		.thumb
 2072              		.thumb_func
 2074              	HAL_I2C_Slave_Transmit_IT:
 2075              	.LFB135:
1140:Drivers/STM32F4xx_HAL_Driver/Src/stm32f4xx_hal_i2c.c **** 
1141:Drivers/STM32F4xx_HAL_Driver/Src/stm32f4xx_hal_i2c.c **** /**
1142:Drivers/STM32F4xx_HAL_Driver/Src/stm32f4xx_hal_i2c.c ****   * @brief  Transmit in slave mode an amount of data in no-blocking mode with Interrupt
1143:Drivers/STM32F4xx_HAL_Driver/Src/stm32f4xx_hal_i2c.c ****   * @param  hi2c: pointer to a I2C_HandleTypeDef structure that contains
1144:Drivers/STM32F4xx_HAL_Driver/Src/stm32f4xx_hal_i2c.c ****   *         the configuration information for I2C module
1145:Drivers/STM32F4xx_HAL_Driver/Src/stm32f4xx_hal_i2c.c ****   * @param  pData: Pointer to data buffer
1146:Drivers/STM32F4xx_HAL_Driver/Src/stm32f4xx_hal_i2c.c ****   * @param  Size: Amount of data to be sent
1147:Drivers/STM32F4xx_HAL_Driver/Src/stm32f4xx_hal_i2c.c ****   * @retval HAL status
1148:Drivers/STM32F4xx_HAL_Driver/Src/stm32f4xx_hal_i2c.c ****   */
1149:Drivers/STM32F4xx_HAL_Driver/Src/stm32f4xx_hal_i2c.c **** HAL_StatusTypeDef HAL_I2C_Slave_Transmit_IT(I2C_HandleTypeDef *hi2c, uint8_t *pData, uint16_t Size)
1150:Drivers/STM32F4xx_HAL_Driver/Src/stm32f4xx_hal_i2c.c **** {
 2076              		.loc 1 1150 0
 2077              		.cfi_startproc
 2078              		@ args = 0, pretend = 0, frame = 16
 2079              		@ frame_needed = 1, uses_anonymous_args = 0
 2080 0000 80B5     		push	{r7, lr}
 2081              	.LCFI30:
 2082              		.cfi_def_cfa_offset 8
 2083              		.cfi_offset 7, -8
 2084              		.cfi_offset 14, -4
 2085 0002 84B0     		sub	sp, sp, #16
 2086              	.LCFI31:
 2087              		.cfi_def_cfa_offset 24
 2088 0004 00AF     		add	r7, sp, #0
 2089              	.LCFI32:
 2090              		.cfi_def_cfa_register 7
 2091 0006 F860     		str	r0, [r7, #12]
 2092 0008 B960     		str	r1, [r7, #8]
 2093 000a 1346     		mov	r3, r2
 2094 000c FB80     		strh	r3, [r7, #6]	@ movhi
1151:Drivers/STM32F4xx_HAL_Driver/Src/stm32f4xx_hal_i2c.c ****   if(hi2c->State == HAL_I2C_STATE_READY)
 2095              		.loc 1 1151 0
 2096 000e FB68     		ldr	r3, [r7, #12]
 2097 0010 93F83530 		ldrb	r3, [r3, #53]
 2098 0014 DBB2     		uxtb	r3, r3
 2099 0016 012B     		cmp	r3, #1
 2100 0018 4CD1     		bne	.L120
1152:Drivers/STM32F4xx_HAL_Driver/Src/stm32f4xx_hal_i2c.c ****   {
1153:Drivers/STM32F4xx_HAL_Driver/Src/stm32f4xx_hal_i2c.c ****     if((pData == NULL) || (Size == 0))
 2101              		.loc 1 1153 0
 2102 001a BB68     		ldr	r3, [r7, #8]
 2103 001c 002B     		cmp	r3, #0
 2104 001e 02D0     		beq	.L121
 2105              		.loc 1 1153 0 is_stmt 0 discriminator 1
 2106 0020 FB88     		ldrh	r3, [r7, #6]
 2107 0022 002B     		cmp	r3, #0
 2108 0024 01D1     		bne	.L122
 2109              	.L121:
1154:Drivers/STM32F4xx_HAL_Driver/Src/stm32f4xx_hal_i2c.c ****     {
1155:Drivers/STM32F4xx_HAL_Driver/Src/stm32f4xx_hal_i2c.c ****       return  HAL_ERROR;
 2110              		.loc 1 1155 0 is_stmt 1
 2111 0026 0123     		movs	r3, #1
ARM GAS  /tmp/cc5bMm9J.s 			page 58


 2112 0028 45E0     		b	.L123
 2113              	.L122:
1156:Drivers/STM32F4xx_HAL_Driver/Src/stm32f4xx_hal_i2c.c ****     }
1157:Drivers/STM32F4xx_HAL_Driver/Src/stm32f4xx_hal_i2c.c **** 
1158:Drivers/STM32F4xx_HAL_Driver/Src/stm32f4xx_hal_i2c.c ****     /* Wait until BUSY flag is reset */
1159:Drivers/STM32F4xx_HAL_Driver/Src/stm32f4xx_hal_i2c.c ****     if(I2C_WaitOnFlagUntilTimeout(hi2c, I2C_FLAG_BUSY, SET, I2C_TIMEOUT_BUSY_FLAG) != HAL_OK)
 2114              		.loc 1 1159 0
 2115 002a F868     		ldr	r0, [r7, #12]
 2116 002c 2449     		ldr	r1, .L126
 2117 002e 0122     		movs	r2, #1
 2118 0030 42F21073 		movw	r3, #10000
 2119 0034 FFF7FEFF 		bl	I2C_WaitOnFlagUntilTimeout
 2120 0038 0346     		mov	r3, r0
 2121 003a 002B     		cmp	r3, #0
 2122 003c 01D0     		beq	.L124
1160:Drivers/STM32F4xx_HAL_Driver/Src/stm32f4xx_hal_i2c.c ****     {
1161:Drivers/STM32F4xx_HAL_Driver/Src/stm32f4xx_hal_i2c.c ****       return HAL_BUSY;
 2123              		.loc 1 1161 0
 2124 003e 0223     		movs	r3, #2
 2125 0040 39E0     		b	.L123
 2126              	.L124:
1162:Drivers/STM32F4xx_HAL_Driver/Src/stm32f4xx_hal_i2c.c ****     }
1163:Drivers/STM32F4xx_HAL_Driver/Src/stm32f4xx_hal_i2c.c **** 
1164:Drivers/STM32F4xx_HAL_Driver/Src/stm32f4xx_hal_i2c.c ****     /* Process Locked */
1165:Drivers/STM32F4xx_HAL_Driver/Src/stm32f4xx_hal_i2c.c ****     __HAL_LOCK(hi2c);
 2127              		.loc 1 1165 0
 2128 0042 FB68     		ldr	r3, [r7, #12]
 2129 0044 93F83430 		ldrb	r3, [r3, #52]	@ zero_extendqisi2
 2130 0048 012B     		cmp	r3, #1
 2131 004a 01D1     		bne	.L125
 2132              		.loc 1 1165 0 is_stmt 0 discriminator 1
 2133 004c 0223     		movs	r3, #2
 2134 004e 32E0     		b	.L123
 2135              	.L125:
 2136              		.loc 1 1165 0 discriminator 2
 2137 0050 FB68     		ldr	r3, [r7, #12]
 2138 0052 0122     		movs	r2, #1
 2139 0054 83F83420 		strb	r2, [r3, #52]
1166:Drivers/STM32F4xx_HAL_Driver/Src/stm32f4xx_hal_i2c.c ****     
1167:Drivers/STM32F4xx_HAL_Driver/Src/stm32f4xx_hal_i2c.c ****     /* Disable Pos */
1168:Drivers/STM32F4xx_HAL_Driver/Src/stm32f4xx_hal_i2c.c ****     hi2c->Instance->CR1 &= ~I2C_CR1_POS;
 2140              		.loc 1 1168 0 is_stmt 1 discriminator 2
 2141 0058 FB68     		ldr	r3, [r7, #12]
 2142 005a 1B68     		ldr	r3, [r3]
 2143 005c FA68     		ldr	r2, [r7, #12]
 2144 005e 1268     		ldr	r2, [r2]
 2145 0060 1268     		ldr	r2, [r2]
 2146 0062 22F40062 		bic	r2, r2, #2048
 2147 0066 1A60     		str	r2, [r3]
1169:Drivers/STM32F4xx_HAL_Driver/Src/stm32f4xx_hal_i2c.c **** 
1170:Drivers/STM32F4xx_HAL_Driver/Src/stm32f4xx_hal_i2c.c ****     hi2c->State = HAL_I2C_STATE_BUSY_TX;
 2148              		.loc 1 1170 0 discriminator 2
 2149 0068 FB68     		ldr	r3, [r7, #12]
 2150 006a 1222     		movs	r2, #18
 2151 006c 83F83520 		strb	r2, [r3, #53]
1171:Drivers/STM32F4xx_HAL_Driver/Src/stm32f4xx_hal_i2c.c ****     hi2c->ErrorCode = HAL_I2C_ERROR_NONE;
 2152              		.loc 1 1171 0 discriminator 2
ARM GAS  /tmp/cc5bMm9J.s 			page 59


 2153 0070 FB68     		ldr	r3, [r7, #12]
 2154 0072 0022     		movs	r2, #0
 2155 0074 9A63     		str	r2, [r3, #56]
1172:Drivers/STM32F4xx_HAL_Driver/Src/stm32f4xx_hal_i2c.c **** 
1173:Drivers/STM32F4xx_HAL_Driver/Src/stm32f4xx_hal_i2c.c ****     hi2c->pBuffPtr = pData;
 2156              		.loc 1 1173 0 discriminator 2
 2157 0076 FB68     		ldr	r3, [r7, #12]
 2158 0078 BA68     		ldr	r2, [r7, #8]
 2159 007a 5A62     		str	r2, [r3, #36]
1174:Drivers/STM32F4xx_HAL_Driver/Src/stm32f4xx_hal_i2c.c ****     hi2c->XferSize = Size;
 2160              		.loc 1 1174 0 discriminator 2
 2161 007c FB68     		ldr	r3, [r7, #12]
 2162 007e FA88     		ldrh	r2, [r7, #6]	@ movhi
 2163 0080 1A85     		strh	r2, [r3, #40]	@ movhi
1175:Drivers/STM32F4xx_HAL_Driver/Src/stm32f4xx_hal_i2c.c ****     hi2c->XferCount = Size;
 2164              		.loc 1 1175 0 discriminator 2
 2165 0082 FB68     		ldr	r3, [r7, #12]
 2166 0084 FA88     		ldrh	r2, [r7, #6]	@ movhi
 2167 0086 5A85     		strh	r2, [r3, #42]	@ movhi
1176:Drivers/STM32F4xx_HAL_Driver/Src/stm32f4xx_hal_i2c.c **** 
1177:Drivers/STM32F4xx_HAL_Driver/Src/stm32f4xx_hal_i2c.c ****     /* Enable Address Acknowledge */
1178:Drivers/STM32F4xx_HAL_Driver/Src/stm32f4xx_hal_i2c.c ****     hi2c->Instance->CR1 |= I2C_CR1_ACK;
 2168              		.loc 1 1178 0 discriminator 2
 2169 0088 FB68     		ldr	r3, [r7, #12]
 2170 008a 1B68     		ldr	r3, [r3]
 2171 008c FA68     		ldr	r2, [r7, #12]
 2172 008e 1268     		ldr	r2, [r2]
 2173 0090 1268     		ldr	r2, [r2]
 2174 0092 42F48062 		orr	r2, r2, #1024
 2175 0096 1A60     		str	r2, [r3]
1179:Drivers/STM32F4xx_HAL_Driver/Src/stm32f4xx_hal_i2c.c **** 
1180:Drivers/STM32F4xx_HAL_Driver/Src/stm32f4xx_hal_i2c.c ****     /* Process Unlocked */
1181:Drivers/STM32F4xx_HAL_Driver/Src/stm32f4xx_hal_i2c.c ****     __HAL_UNLOCK(hi2c);
 2176              		.loc 1 1181 0 discriminator 2
 2177 0098 FB68     		ldr	r3, [r7, #12]
 2178 009a 0022     		movs	r2, #0
 2179 009c 83F83420 		strb	r2, [r3, #52]
1182:Drivers/STM32F4xx_HAL_Driver/Src/stm32f4xx_hal_i2c.c **** 
1183:Drivers/STM32F4xx_HAL_Driver/Src/stm32f4xx_hal_i2c.c ****     /* Note : The I2C interrupts must be enabled after unlocking current process
1184:Drivers/STM32F4xx_HAL_Driver/Src/stm32f4xx_hal_i2c.c ****               to avoid the risk of I2C interrupt handle execution before current
1185:Drivers/STM32F4xx_HAL_Driver/Src/stm32f4xx_hal_i2c.c ****               process unlock */
1186:Drivers/STM32F4xx_HAL_Driver/Src/stm32f4xx_hal_i2c.c **** 
1187:Drivers/STM32F4xx_HAL_Driver/Src/stm32f4xx_hal_i2c.c ****     /* Enable EVT, BUF and ERR interrupt */
1188:Drivers/STM32F4xx_HAL_Driver/Src/stm32f4xx_hal_i2c.c ****     __HAL_I2C_ENABLE_IT(hi2c, I2C_IT_EVT | I2C_IT_BUF | I2C_IT_ERR);
 2180              		.loc 1 1188 0 discriminator 2
 2181 00a0 FB68     		ldr	r3, [r7, #12]
 2182 00a2 1B68     		ldr	r3, [r3]
 2183 00a4 FA68     		ldr	r2, [r7, #12]
 2184 00a6 1268     		ldr	r2, [r2]
 2185 00a8 5268     		ldr	r2, [r2, #4]
 2186 00aa 42F4E062 		orr	r2, r2, #1792
 2187 00ae 5A60     		str	r2, [r3, #4]
1189:Drivers/STM32F4xx_HAL_Driver/Src/stm32f4xx_hal_i2c.c **** 
1190:Drivers/STM32F4xx_HAL_Driver/Src/stm32f4xx_hal_i2c.c ****     return HAL_OK;
 2188              		.loc 1 1190 0 discriminator 2
 2189 00b0 0023     		movs	r3, #0
 2190 00b2 00E0     		b	.L123
ARM GAS  /tmp/cc5bMm9J.s 			page 60


 2191              	.L120:
1191:Drivers/STM32F4xx_HAL_Driver/Src/stm32f4xx_hal_i2c.c ****   }
1192:Drivers/STM32F4xx_HAL_Driver/Src/stm32f4xx_hal_i2c.c ****   else
1193:Drivers/STM32F4xx_HAL_Driver/Src/stm32f4xx_hal_i2c.c ****   {
1194:Drivers/STM32F4xx_HAL_Driver/Src/stm32f4xx_hal_i2c.c ****     return HAL_BUSY;
 2192              		.loc 1 1194 0
 2193 00b4 0223     		movs	r3, #2
 2194              	.L123:
1195:Drivers/STM32F4xx_HAL_Driver/Src/stm32f4xx_hal_i2c.c ****   }
1196:Drivers/STM32F4xx_HAL_Driver/Src/stm32f4xx_hal_i2c.c **** }
 2195              		.loc 1 1196 0
 2196 00b6 1846     		mov	r0, r3
 2197 00b8 1037     		adds	r7, r7, #16
 2198 00ba BD46     		mov	sp, r7
 2199              		@ sp needed
 2200 00bc 80BD     		pop	{r7, pc}
 2201              	.L127:
 2202 00be 00BF     		.align	2
 2203              	.L126:
 2204 00c0 02001000 		.word	1048578
 2205              		.cfi_endproc
 2206              	.LFE135:
 2208              		.section	.text.HAL_I2C_Slave_Receive_IT,"ax",%progbits
 2209              		.align	2
 2210              		.global	HAL_I2C_Slave_Receive_IT
 2211              		.thumb
 2212              		.thumb_func
 2214              	HAL_I2C_Slave_Receive_IT:
 2215              	.LFB136:
1197:Drivers/STM32F4xx_HAL_Driver/Src/stm32f4xx_hal_i2c.c **** 
1198:Drivers/STM32F4xx_HAL_Driver/Src/stm32f4xx_hal_i2c.c **** /**
1199:Drivers/STM32F4xx_HAL_Driver/Src/stm32f4xx_hal_i2c.c ****   * @brief  Receive in slave mode an amount of data in no-blocking mode with Interrupt
1200:Drivers/STM32F4xx_HAL_Driver/Src/stm32f4xx_hal_i2c.c ****   * @param  hi2c: pointer to a I2C_HandleTypeDef structure that contains
1201:Drivers/STM32F4xx_HAL_Driver/Src/stm32f4xx_hal_i2c.c ****   *         the configuration information for I2C module
1202:Drivers/STM32F4xx_HAL_Driver/Src/stm32f4xx_hal_i2c.c ****   * @param  pData: Pointer to data buffer
1203:Drivers/STM32F4xx_HAL_Driver/Src/stm32f4xx_hal_i2c.c ****   * @param  Size: Amount of data to be sent
1204:Drivers/STM32F4xx_HAL_Driver/Src/stm32f4xx_hal_i2c.c ****   * @retval HAL status
1205:Drivers/STM32F4xx_HAL_Driver/Src/stm32f4xx_hal_i2c.c ****   */
1206:Drivers/STM32F4xx_HAL_Driver/Src/stm32f4xx_hal_i2c.c **** HAL_StatusTypeDef HAL_I2C_Slave_Receive_IT(I2C_HandleTypeDef *hi2c, uint8_t *pData, uint16_t Size)
1207:Drivers/STM32F4xx_HAL_Driver/Src/stm32f4xx_hal_i2c.c **** {
 2216              		.loc 1 1207 0
 2217              		.cfi_startproc
 2218              		@ args = 0, pretend = 0, frame = 16
 2219              		@ frame_needed = 1, uses_anonymous_args = 0
 2220 0000 80B5     		push	{r7, lr}
 2221              	.LCFI33:
 2222              		.cfi_def_cfa_offset 8
 2223              		.cfi_offset 7, -8
 2224              		.cfi_offset 14, -4
 2225 0002 84B0     		sub	sp, sp, #16
 2226              	.LCFI34:
 2227              		.cfi_def_cfa_offset 24
 2228 0004 00AF     		add	r7, sp, #0
 2229              	.LCFI35:
 2230              		.cfi_def_cfa_register 7
 2231 0006 F860     		str	r0, [r7, #12]
 2232 0008 B960     		str	r1, [r7, #8]
ARM GAS  /tmp/cc5bMm9J.s 			page 61


 2233 000a 1346     		mov	r3, r2
 2234 000c FB80     		strh	r3, [r7, #6]	@ movhi
1208:Drivers/STM32F4xx_HAL_Driver/Src/stm32f4xx_hal_i2c.c ****   if(hi2c->State == HAL_I2C_STATE_READY)
 2235              		.loc 1 1208 0
 2236 000e FB68     		ldr	r3, [r7, #12]
 2237 0010 93F83530 		ldrb	r3, [r3, #53]
 2238 0014 DBB2     		uxtb	r3, r3
 2239 0016 012B     		cmp	r3, #1
 2240 0018 4CD1     		bne	.L129
1209:Drivers/STM32F4xx_HAL_Driver/Src/stm32f4xx_hal_i2c.c ****   {
1210:Drivers/STM32F4xx_HAL_Driver/Src/stm32f4xx_hal_i2c.c ****     if((pData == NULL) || (Size == 0))
 2241              		.loc 1 1210 0
 2242 001a BB68     		ldr	r3, [r7, #8]
 2243 001c 002B     		cmp	r3, #0
 2244 001e 02D0     		beq	.L130
 2245              		.loc 1 1210 0 is_stmt 0 discriminator 1
 2246 0020 FB88     		ldrh	r3, [r7, #6]
 2247 0022 002B     		cmp	r3, #0
 2248 0024 01D1     		bne	.L131
 2249              	.L130:
1211:Drivers/STM32F4xx_HAL_Driver/Src/stm32f4xx_hal_i2c.c ****     {
1212:Drivers/STM32F4xx_HAL_Driver/Src/stm32f4xx_hal_i2c.c ****       return  HAL_ERROR;
 2250              		.loc 1 1212 0 is_stmt 1
 2251 0026 0123     		movs	r3, #1
 2252 0028 45E0     		b	.L132
 2253              	.L131:
1213:Drivers/STM32F4xx_HAL_Driver/Src/stm32f4xx_hal_i2c.c ****     }
1214:Drivers/STM32F4xx_HAL_Driver/Src/stm32f4xx_hal_i2c.c **** 
1215:Drivers/STM32F4xx_HAL_Driver/Src/stm32f4xx_hal_i2c.c ****     /* Wait until BUSY flag is reset */
1216:Drivers/STM32F4xx_HAL_Driver/Src/stm32f4xx_hal_i2c.c ****     if(I2C_WaitOnFlagUntilTimeout(hi2c, I2C_FLAG_BUSY, SET, I2C_TIMEOUT_BUSY_FLAG) != HAL_OK)
 2254              		.loc 1 1216 0
 2255 002a F868     		ldr	r0, [r7, #12]
 2256 002c 2449     		ldr	r1, .L135
 2257 002e 0122     		movs	r2, #1
 2258 0030 42F21073 		movw	r3, #10000
 2259 0034 FFF7FEFF 		bl	I2C_WaitOnFlagUntilTimeout
 2260 0038 0346     		mov	r3, r0
 2261 003a 002B     		cmp	r3, #0
 2262 003c 01D0     		beq	.L133
1217:Drivers/STM32F4xx_HAL_Driver/Src/stm32f4xx_hal_i2c.c ****     {
1218:Drivers/STM32F4xx_HAL_Driver/Src/stm32f4xx_hal_i2c.c ****       return HAL_BUSY;
 2263              		.loc 1 1218 0
 2264 003e 0223     		movs	r3, #2
 2265 0040 39E0     		b	.L132
 2266              	.L133:
1219:Drivers/STM32F4xx_HAL_Driver/Src/stm32f4xx_hal_i2c.c ****     }
1220:Drivers/STM32F4xx_HAL_Driver/Src/stm32f4xx_hal_i2c.c **** 
1221:Drivers/STM32F4xx_HAL_Driver/Src/stm32f4xx_hal_i2c.c ****     /* Process Locked */
1222:Drivers/STM32F4xx_HAL_Driver/Src/stm32f4xx_hal_i2c.c ****     __HAL_LOCK(hi2c);
 2267              		.loc 1 1222 0
 2268 0042 FB68     		ldr	r3, [r7, #12]
 2269 0044 93F83430 		ldrb	r3, [r3, #52]	@ zero_extendqisi2
 2270 0048 012B     		cmp	r3, #1
 2271 004a 01D1     		bne	.L134
 2272              		.loc 1 1222 0 is_stmt 0 discriminator 1
 2273 004c 0223     		movs	r3, #2
 2274 004e 32E0     		b	.L132
ARM GAS  /tmp/cc5bMm9J.s 			page 62


 2275              	.L134:
 2276              		.loc 1 1222 0 discriminator 2
 2277 0050 FB68     		ldr	r3, [r7, #12]
 2278 0052 0122     		movs	r2, #1
 2279 0054 83F83420 		strb	r2, [r3, #52]
1223:Drivers/STM32F4xx_HAL_Driver/Src/stm32f4xx_hal_i2c.c ****     
1224:Drivers/STM32F4xx_HAL_Driver/Src/stm32f4xx_hal_i2c.c ****     /* Disable Pos */
1225:Drivers/STM32F4xx_HAL_Driver/Src/stm32f4xx_hal_i2c.c ****     hi2c->Instance->CR1 &= ~I2C_CR1_POS;
 2280              		.loc 1 1225 0 is_stmt 1 discriminator 2
 2281 0058 FB68     		ldr	r3, [r7, #12]
 2282 005a 1B68     		ldr	r3, [r3]
 2283 005c FA68     		ldr	r2, [r7, #12]
 2284 005e 1268     		ldr	r2, [r2]
 2285 0060 1268     		ldr	r2, [r2]
 2286 0062 22F40062 		bic	r2, r2, #2048
 2287 0066 1A60     		str	r2, [r3]
1226:Drivers/STM32F4xx_HAL_Driver/Src/stm32f4xx_hal_i2c.c **** 
1227:Drivers/STM32F4xx_HAL_Driver/Src/stm32f4xx_hal_i2c.c ****     hi2c->State = HAL_I2C_STATE_BUSY_RX;
 2288              		.loc 1 1227 0 discriminator 2
 2289 0068 FB68     		ldr	r3, [r7, #12]
 2290 006a 2222     		movs	r2, #34
 2291 006c 83F83520 		strb	r2, [r3, #53]
1228:Drivers/STM32F4xx_HAL_Driver/Src/stm32f4xx_hal_i2c.c ****     hi2c->ErrorCode = HAL_I2C_ERROR_NONE;
 2292              		.loc 1 1228 0 discriminator 2
 2293 0070 FB68     		ldr	r3, [r7, #12]
 2294 0072 0022     		movs	r2, #0
 2295 0074 9A63     		str	r2, [r3, #56]
1229:Drivers/STM32F4xx_HAL_Driver/Src/stm32f4xx_hal_i2c.c **** 
1230:Drivers/STM32F4xx_HAL_Driver/Src/stm32f4xx_hal_i2c.c ****     hi2c->pBuffPtr = pData;
 2296              		.loc 1 1230 0 discriminator 2
 2297 0076 FB68     		ldr	r3, [r7, #12]
 2298 0078 BA68     		ldr	r2, [r7, #8]
 2299 007a 5A62     		str	r2, [r3, #36]
1231:Drivers/STM32F4xx_HAL_Driver/Src/stm32f4xx_hal_i2c.c ****     hi2c->XferSize = Size;
 2300              		.loc 1 1231 0 discriminator 2
 2301 007c FB68     		ldr	r3, [r7, #12]
 2302 007e FA88     		ldrh	r2, [r7, #6]	@ movhi
 2303 0080 1A85     		strh	r2, [r3, #40]	@ movhi
1232:Drivers/STM32F4xx_HAL_Driver/Src/stm32f4xx_hal_i2c.c ****     hi2c->XferCount = Size;
 2304              		.loc 1 1232 0 discriminator 2
 2305 0082 FB68     		ldr	r3, [r7, #12]
 2306 0084 FA88     		ldrh	r2, [r7, #6]	@ movhi
 2307 0086 5A85     		strh	r2, [r3, #42]	@ movhi
1233:Drivers/STM32F4xx_HAL_Driver/Src/stm32f4xx_hal_i2c.c **** 
1234:Drivers/STM32F4xx_HAL_Driver/Src/stm32f4xx_hal_i2c.c ****     /* Enable Address Acknowledge */
1235:Drivers/STM32F4xx_HAL_Driver/Src/stm32f4xx_hal_i2c.c ****     hi2c->Instance->CR1 |= I2C_CR1_ACK;
 2308              		.loc 1 1235 0 discriminator 2
 2309 0088 FB68     		ldr	r3, [r7, #12]
 2310 008a 1B68     		ldr	r3, [r3]
 2311 008c FA68     		ldr	r2, [r7, #12]
 2312 008e 1268     		ldr	r2, [r2]
 2313 0090 1268     		ldr	r2, [r2]
 2314 0092 42F48062 		orr	r2, r2, #1024
 2315 0096 1A60     		str	r2, [r3]
1236:Drivers/STM32F4xx_HAL_Driver/Src/stm32f4xx_hal_i2c.c **** 
1237:Drivers/STM32F4xx_HAL_Driver/Src/stm32f4xx_hal_i2c.c ****     /* Process Unlocked */
1238:Drivers/STM32F4xx_HAL_Driver/Src/stm32f4xx_hal_i2c.c ****     __HAL_UNLOCK(hi2c);
ARM GAS  /tmp/cc5bMm9J.s 			page 63


 2316              		.loc 1 1238 0 discriminator 2
 2317 0098 FB68     		ldr	r3, [r7, #12]
 2318 009a 0022     		movs	r2, #0
 2319 009c 83F83420 		strb	r2, [r3, #52]
1239:Drivers/STM32F4xx_HAL_Driver/Src/stm32f4xx_hal_i2c.c **** 
1240:Drivers/STM32F4xx_HAL_Driver/Src/stm32f4xx_hal_i2c.c ****     /* Note : The I2C interrupts must be enabled after unlocking current process
1241:Drivers/STM32F4xx_HAL_Driver/Src/stm32f4xx_hal_i2c.c ****               to avoid the risk of I2C interrupt handle execution before current
1242:Drivers/STM32F4xx_HAL_Driver/Src/stm32f4xx_hal_i2c.c ****               process unlock */
1243:Drivers/STM32F4xx_HAL_Driver/Src/stm32f4xx_hal_i2c.c **** 
1244:Drivers/STM32F4xx_HAL_Driver/Src/stm32f4xx_hal_i2c.c ****     /* Enable EVT, BUF and ERR interrupt */
1245:Drivers/STM32F4xx_HAL_Driver/Src/stm32f4xx_hal_i2c.c ****     __HAL_I2C_ENABLE_IT(hi2c, I2C_IT_EVT | I2C_IT_BUF | I2C_IT_ERR);
 2320              		.loc 1 1245 0 discriminator 2
 2321 00a0 FB68     		ldr	r3, [r7, #12]
 2322 00a2 1B68     		ldr	r3, [r3]
 2323 00a4 FA68     		ldr	r2, [r7, #12]
 2324 00a6 1268     		ldr	r2, [r2]
 2325 00a8 5268     		ldr	r2, [r2, #4]
 2326 00aa 42F4E062 		orr	r2, r2, #1792
 2327 00ae 5A60     		str	r2, [r3, #4]
1246:Drivers/STM32F4xx_HAL_Driver/Src/stm32f4xx_hal_i2c.c **** 
1247:Drivers/STM32F4xx_HAL_Driver/Src/stm32f4xx_hal_i2c.c ****     return HAL_OK;
 2328              		.loc 1 1247 0 discriminator 2
 2329 00b0 0023     		movs	r3, #0
 2330 00b2 00E0     		b	.L132
 2331              	.L129:
1248:Drivers/STM32F4xx_HAL_Driver/Src/stm32f4xx_hal_i2c.c ****   }
1249:Drivers/STM32F4xx_HAL_Driver/Src/stm32f4xx_hal_i2c.c ****   else
1250:Drivers/STM32F4xx_HAL_Driver/Src/stm32f4xx_hal_i2c.c ****   {
1251:Drivers/STM32F4xx_HAL_Driver/Src/stm32f4xx_hal_i2c.c ****     return HAL_BUSY;
 2332              		.loc 1 1251 0
 2333 00b4 0223     		movs	r3, #2
 2334              	.L132:
1252:Drivers/STM32F4xx_HAL_Driver/Src/stm32f4xx_hal_i2c.c ****   }
1253:Drivers/STM32F4xx_HAL_Driver/Src/stm32f4xx_hal_i2c.c **** }
 2335              		.loc 1 1253 0
 2336 00b6 1846     		mov	r0, r3
 2337 00b8 1037     		adds	r7, r7, #16
 2338 00ba BD46     		mov	sp, r7
 2339              		@ sp needed
 2340 00bc 80BD     		pop	{r7, pc}
 2341              	.L136:
 2342 00be 00BF     		.align	2
 2343              	.L135:
 2344 00c0 02001000 		.word	1048578
 2345              		.cfi_endproc
 2346              	.LFE136:
 2348              		.section	.text.HAL_I2C_Master_Transmit_DMA,"ax",%progbits
 2349              		.align	2
 2350              		.global	HAL_I2C_Master_Transmit_DMA
 2351              		.thumb
 2352              		.thumb_func
 2354              	HAL_I2C_Master_Transmit_DMA:
 2355              	.LFB137:
1254:Drivers/STM32F4xx_HAL_Driver/Src/stm32f4xx_hal_i2c.c **** 
1255:Drivers/STM32F4xx_HAL_Driver/Src/stm32f4xx_hal_i2c.c **** /**
1256:Drivers/STM32F4xx_HAL_Driver/Src/stm32f4xx_hal_i2c.c ****   * @brief  Transmit in master mode an amount of data in no-blocking mode with DMA
1257:Drivers/STM32F4xx_HAL_Driver/Src/stm32f4xx_hal_i2c.c ****   * @param  hi2c: pointer to a I2C_HandleTypeDef structure that contains
ARM GAS  /tmp/cc5bMm9J.s 			page 64


1258:Drivers/STM32F4xx_HAL_Driver/Src/stm32f4xx_hal_i2c.c ****   *         the configuration information for I2C module
1259:Drivers/STM32F4xx_HAL_Driver/Src/stm32f4xx_hal_i2c.c ****   * @param  DevAddress: Target device address
1260:Drivers/STM32F4xx_HAL_Driver/Src/stm32f4xx_hal_i2c.c ****   * @param  pData: Pointer to data buffer
1261:Drivers/STM32F4xx_HAL_Driver/Src/stm32f4xx_hal_i2c.c ****   * @param  Size: Amount of data to be sent
1262:Drivers/STM32F4xx_HAL_Driver/Src/stm32f4xx_hal_i2c.c ****   * @retval HAL status
1263:Drivers/STM32F4xx_HAL_Driver/Src/stm32f4xx_hal_i2c.c ****   */
1264:Drivers/STM32F4xx_HAL_Driver/Src/stm32f4xx_hal_i2c.c **** HAL_StatusTypeDef HAL_I2C_Master_Transmit_DMA(I2C_HandleTypeDef *hi2c, uint16_t DevAddress, uint8_t
1265:Drivers/STM32F4xx_HAL_Driver/Src/stm32f4xx_hal_i2c.c **** {
 2356              		.loc 1 1265 0
 2357              		.cfi_startproc
 2358              		@ args = 0, pretend = 0, frame = 24
 2359              		@ frame_needed = 1, uses_anonymous_args = 0
 2360 0000 80B5     		push	{r7, lr}
 2361              	.LCFI36:
 2362              		.cfi_def_cfa_offset 8
 2363              		.cfi_offset 7, -8
 2364              		.cfi_offset 14, -4
 2365 0002 86B0     		sub	sp, sp, #24
 2366              	.LCFI37:
 2367              		.cfi_def_cfa_offset 32
 2368 0004 00AF     		add	r7, sp, #0
 2369              	.LCFI38:
 2370              		.cfi_def_cfa_register 7
 2371 0006 F860     		str	r0, [r7, #12]
 2372 0008 7A60     		str	r2, [r7, #4]
 2373 000a 0A46     		mov	r2, r1	@ movhi
 2374 000c 7A81     		strh	r2, [r7, #10]	@ movhi
 2375 000e 3B81     		strh	r3, [r7, #8]	@ movhi
1266:Drivers/STM32F4xx_HAL_Driver/Src/stm32f4xx_hal_i2c.c ****   if(hi2c->State == HAL_I2C_STATE_READY)
 2376              		.loc 1 1266 0
 2377 0010 FB68     		ldr	r3, [r7, #12]
 2378 0012 93F83530 		ldrb	r3, [r3, #53]
 2379 0016 DBB2     		uxtb	r3, r3
 2380 0018 012B     		cmp	r3, #1
 2381 001a 78D1     		bne	.L138
1267:Drivers/STM32F4xx_HAL_Driver/Src/stm32f4xx_hal_i2c.c ****   {
1268:Drivers/STM32F4xx_HAL_Driver/Src/stm32f4xx_hal_i2c.c ****     if((pData == NULL) || (Size == 0))
 2382              		.loc 1 1268 0
 2383 001c 7B68     		ldr	r3, [r7, #4]
 2384 001e 002B     		cmp	r3, #0
 2385 0020 02D0     		beq	.L139
 2386              		.loc 1 1268 0 is_stmt 0 discriminator 1
 2387 0022 3B89     		ldrh	r3, [r7, #8]
 2388 0024 002B     		cmp	r3, #0
 2389 0026 01D1     		bne	.L140
 2390              	.L139:
1269:Drivers/STM32F4xx_HAL_Driver/Src/stm32f4xx_hal_i2c.c ****     {
1270:Drivers/STM32F4xx_HAL_Driver/Src/stm32f4xx_hal_i2c.c ****       return  HAL_ERROR;
 2391              		.loc 1 1270 0 is_stmt 1
 2392 0028 0123     		movs	r3, #1
 2393 002a 71E0     		b	.L141
 2394              	.L140:
1271:Drivers/STM32F4xx_HAL_Driver/Src/stm32f4xx_hal_i2c.c ****     }
1272:Drivers/STM32F4xx_HAL_Driver/Src/stm32f4xx_hal_i2c.c **** 
1273:Drivers/STM32F4xx_HAL_Driver/Src/stm32f4xx_hal_i2c.c ****     /* Wait until BUSY flag is reset */
1274:Drivers/STM32F4xx_HAL_Driver/Src/stm32f4xx_hal_i2c.c ****     if(I2C_WaitOnFlagUntilTimeout(hi2c, I2C_FLAG_BUSY, SET, I2C_TIMEOUT_BUSY_FLAG) != HAL_OK)
 2395              		.loc 1 1274 0
ARM GAS  /tmp/cc5bMm9J.s 			page 65


 2396 002c F868     		ldr	r0, [r7, #12]
 2397 002e 3A49     		ldr	r1, .L146
 2398 0030 0122     		movs	r2, #1
 2399 0032 42F21073 		movw	r3, #10000
 2400 0036 FFF7FEFF 		bl	I2C_WaitOnFlagUntilTimeout
 2401 003a 0346     		mov	r3, r0
 2402 003c 002B     		cmp	r3, #0
 2403 003e 01D0     		beq	.L142
1275:Drivers/STM32F4xx_HAL_Driver/Src/stm32f4xx_hal_i2c.c ****     {
1276:Drivers/STM32F4xx_HAL_Driver/Src/stm32f4xx_hal_i2c.c ****       return HAL_BUSY;
 2404              		.loc 1 1276 0
 2405 0040 0223     		movs	r3, #2
 2406 0042 65E0     		b	.L141
 2407              	.L142:
1277:Drivers/STM32F4xx_HAL_Driver/Src/stm32f4xx_hal_i2c.c ****     }
1278:Drivers/STM32F4xx_HAL_Driver/Src/stm32f4xx_hal_i2c.c **** 
1279:Drivers/STM32F4xx_HAL_Driver/Src/stm32f4xx_hal_i2c.c ****     /* Process Locked */
1280:Drivers/STM32F4xx_HAL_Driver/Src/stm32f4xx_hal_i2c.c ****     __HAL_LOCK(hi2c);
 2408              		.loc 1 1280 0
 2409 0044 FB68     		ldr	r3, [r7, #12]
 2410 0046 93F83430 		ldrb	r3, [r3, #52]	@ zero_extendqisi2
 2411 004a 012B     		cmp	r3, #1
 2412 004c 01D1     		bne	.L143
 2413              		.loc 1 1280 0 is_stmt 0 discriminator 1
 2414 004e 0223     		movs	r3, #2
 2415 0050 5EE0     		b	.L141
 2416              	.L143:
 2417              		.loc 1 1280 0 discriminator 2
 2418 0052 FB68     		ldr	r3, [r7, #12]
 2419 0054 0122     		movs	r2, #1
 2420 0056 83F83420 		strb	r2, [r3, #52]
1281:Drivers/STM32F4xx_HAL_Driver/Src/stm32f4xx_hal_i2c.c ****     
1282:Drivers/STM32F4xx_HAL_Driver/Src/stm32f4xx_hal_i2c.c ****     /* Disable Pos */
1283:Drivers/STM32F4xx_HAL_Driver/Src/stm32f4xx_hal_i2c.c ****     hi2c->Instance->CR1 &= ~I2C_CR1_POS;
 2421              		.loc 1 1283 0 is_stmt 1 discriminator 2
 2422 005a FB68     		ldr	r3, [r7, #12]
 2423 005c 1B68     		ldr	r3, [r3]
 2424 005e FA68     		ldr	r2, [r7, #12]
 2425 0060 1268     		ldr	r2, [r2]
 2426 0062 1268     		ldr	r2, [r2]
 2427 0064 22F40062 		bic	r2, r2, #2048
 2428 0068 1A60     		str	r2, [r3]
1284:Drivers/STM32F4xx_HAL_Driver/Src/stm32f4xx_hal_i2c.c **** 
1285:Drivers/STM32F4xx_HAL_Driver/Src/stm32f4xx_hal_i2c.c ****     hi2c->State = HAL_I2C_STATE_BUSY_TX;
 2429              		.loc 1 1285 0 discriminator 2
 2430 006a FB68     		ldr	r3, [r7, #12]
 2431 006c 1222     		movs	r2, #18
 2432 006e 83F83520 		strb	r2, [r3, #53]
1286:Drivers/STM32F4xx_HAL_Driver/Src/stm32f4xx_hal_i2c.c ****     hi2c->ErrorCode = HAL_I2C_ERROR_NONE;
 2433              		.loc 1 1286 0 discriminator 2
 2434 0072 FB68     		ldr	r3, [r7, #12]
 2435 0074 0022     		movs	r2, #0
 2436 0076 9A63     		str	r2, [r3, #56]
1287:Drivers/STM32F4xx_HAL_Driver/Src/stm32f4xx_hal_i2c.c **** 
1288:Drivers/STM32F4xx_HAL_Driver/Src/stm32f4xx_hal_i2c.c ****     hi2c->pBuffPtr = pData;
 2437              		.loc 1 1288 0 discriminator 2
 2438 0078 FB68     		ldr	r3, [r7, #12]
ARM GAS  /tmp/cc5bMm9J.s 			page 66


 2439 007a 7A68     		ldr	r2, [r7, #4]
 2440 007c 5A62     		str	r2, [r3, #36]
1289:Drivers/STM32F4xx_HAL_Driver/Src/stm32f4xx_hal_i2c.c ****     hi2c->XferSize = Size;
 2441              		.loc 1 1289 0 discriminator 2
 2442 007e FB68     		ldr	r3, [r7, #12]
 2443 0080 3A89     		ldrh	r2, [r7, #8]	@ movhi
 2444 0082 1A85     		strh	r2, [r3, #40]	@ movhi
1290:Drivers/STM32F4xx_HAL_Driver/Src/stm32f4xx_hal_i2c.c ****     hi2c->XferCount = Size;
 2445              		.loc 1 1290 0 discriminator 2
 2446 0084 FB68     		ldr	r3, [r7, #12]
 2447 0086 3A89     		ldrh	r2, [r7, #8]	@ movhi
 2448 0088 5A85     		strh	r2, [r3, #42]	@ movhi
1291:Drivers/STM32F4xx_HAL_Driver/Src/stm32f4xx_hal_i2c.c **** 
1292:Drivers/STM32F4xx_HAL_Driver/Src/stm32f4xx_hal_i2c.c ****     /* Set the I2C DMA transfer complete callback */
1293:Drivers/STM32F4xx_HAL_Driver/Src/stm32f4xx_hal_i2c.c ****     hi2c->hdmatx->XferCpltCallback = I2C_DMAMasterTransmitCplt;
 2449              		.loc 1 1293 0 discriminator 2
 2450 008a FB68     		ldr	r3, [r7, #12]
 2451 008c DB6A     		ldr	r3, [r3, #44]
 2452 008e 234A     		ldr	r2, .L146+4
 2453 0090 DA63     		str	r2, [r3, #60]
1294:Drivers/STM32F4xx_HAL_Driver/Src/stm32f4xx_hal_i2c.c **** 
1295:Drivers/STM32F4xx_HAL_Driver/Src/stm32f4xx_hal_i2c.c ****     /* Set the DMA error callback */
1296:Drivers/STM32F4xx_HAL_Driver/Src/stm32f4xx_hal_i2c.c ****     hi2c->hdmatx->XferErrorCallback = I2C_DMAError;
 2454              		.loc 1 1296 0 discriminator 2
 2455 0092 FB68     		ldr	r3, [r7, #12]
 2456 0094 DB6A     		ldr	r3, [r3, #44]
 2457 0096 224A     		ldr	r2, .L146+8
 2458 0098 9A64     		str	r2, [r3, #72]
1297:Drivers/STM32F4xx_HAL_Driver/Src/stm32f4xx_hal_i2c.c **** 
1298:Drivers/STM32F4xx_HAL_Driver/Src/stm32f4xx_hal_i2c.c ****     /* Enable the DMA Stream */
1299:Drivers/STM32F4xx_HAL_Driver/Src/stm32f4xx_hal_i2c.c ****     HAL_DMA_Start_IT(hi2c->hdmatx, (uint32_t)pData, (uint32_t)&hi2c->Instance->DR, Size);
 2459              		.loc 1 1299 0 discriminator 2
 2460 009a FB68     		ldr	r3, [r7, #12]
 2461 009c D86A     		ldr	r0, [r3, #44]
 2462 009e 7968     		ldr	r1, [r7, #4]
 2463 00a0 FB68     		ldr	r3, [r7, #12]
 2464 00a2 1B68     		ldr	r3, [r3]
 2465 00a4 1033     		adds	r3, r3, #16
 2466 00a6 1A46     		mov	r2, r3
 2467 00a8 3B89     		ldrh	r3, [r7, #8]
 2468 00aa FFF7FEFF 		bl	HAL_DMA_Start_IT
1300:Drivers/STM32F4xx_HAL_Driver/Src/stm32f4xx_hal_i2c.c **** 
1301:Drivers/STM32F4xx_HAL_Driver/Src/stm32f4xx_hal_i2c.c ****     /* Send Slave Address */
1302:Drivers/STM32F4xx_HAL_Driver/Src/stm32f4xx_hal_i2c.c ****     if(I2C_MasterRequestWrite(hi2c, DevAddress, I2C_TIMEOUT_FLAG) != HAL_OK)
 2469              		.loc 1 1302 0 discriminator 2
 2470 00ae 7B89     		ldrh	r3, [r7, #10]
 2471 00b0 F868     		ldr	r0, [r7, #12]
 2472 00b2 1946     		mov	r1, r3
 2473 00b4 2322     		movs	r2, #35
 2474 00b6 FFF7FEFF 		bl	I2C_MasterRequestWrite
 2475 00ba 0346     		mov	r3, r0
 2476 00bc 002B     		cmp	r3, #0
 2477 00be 0FD0     		beq	.L144
1303:Drivers/STM32F4xx_HAL_Driver/Src/stm32f4xx_hal_i2c.c ****     {
1304:Drivers/STM32F4xx_HAL_Driver/Src/stm32f4xx_hal_i2c.c ****       if(hi2c->ErrorCode == HAL_I2C_ERROR_AF)
 2478              		.loc 1 1304 0
 2479 00c0 FB68     		ldr	r3, [r7, #12]
ARM GAS  /tmp/cc5bMm9J.s 			page 67


 2480 00c2 9B6B     		ldr	r3, [r3, #56]
 2481 00c4 042B     		cmp	r3, #4
 2482 00c6 05D1     		bne	.L145
1305:Drivers/STM32F4xx_HAL_Driver/Src/stm32f4xx_hal_i2c.c ****       {
1306:Drivers/STM32F4xx_HAL_Driver/Src/stm32f4xx_hal_i2c.c ****         /* Process Unlocked */
1307:Drivers/STM32F4xx_HAL_Driver/Src/stm32f4xx_hal_i2c.c ****         __HAL_UNLOCK(hi2c);
 2483              		.loc 1 1307 0
 2484 00c8 FB68     		ldr	r3, [r7, #12]
 2485 00ca 0022     		movs	r2, #0
 2486 00cc 83F83420 		strb	r2, [r3, #52]
1308:Drivers/STM32F4xx_HAL_Driver/Src/stm32f4xx_hal_i2c.c ****         return HAL_ERROR;
 2487              		.loc 1 1308 0
 2488 00d0 0123     		movs	r3, #1
 2489 00d2 1DE0     		b	.L141
 2490              	.L145:
1309:Drivers/STM32F4xx_HAL_Driver/Src/stm32f4xx_hal_i2c.c ****       }
1310:Drivers/STM32F4xx_HAL_Driver/Src/stm32f4xx_hal_i2c.c ****       else
1311:Drivers/STM32F4xx_HAL_Driver/Src/stm32f4xx_hal_i2c.c ****       {
1312:Drivers/STM32F4xx_HAL_Driver/Src/stm32f4xx_hal_i2c.c ****         /* Process Unlocked */
1313:Drivers/STM32F4xx_HAL_Driver/Src/stm32f4xx_hal_i2c.c ****         __HAL_UNLOCK(hi2c);
 2491              		.loc 1 1313 0
 2492 00d4 FB68     		ldr	r3, [r7, #12]
 2493 00d6 0022     		movs	r2, #0
 2494 00d8 83F83420 		strb	r2, [r3, #52]
1314:Drivers/STM32F4xx_HAL_Driver/Src/stm32f4xx_hal_i2c.c ****         return HAL_TIMEOUT;
 2495              		.loc 1 1314 0
 2496 00dc 0323     		movs	r3, #3
 2497 00de 17E0     		b	.L141
 2498              	.L144:
1315:Drivers/STM32F4xx_HAL_Driver/Src/stm32f4xx_hal_i2c.c ****       }
1316:Drivers/STM32F4xx_HAL_Driver/Src/stm32f4xx_hal_i2c.c ****     }
1317:Drivers/STM32F4xx_HAL_Driver/Src/stm32f4xx_hal_i2c.c **** 
1318:Drivers/STM32F4xx_HAL_Driver/Src/stm32f4xx_hal_i2c.c ****     /* Enable DMA Request */
1319:Drivers/STM32F4xx_HAL_Driver/Src/stm32f4xx_hal_i2c.c ****     hi2c->Instance->CR2 |= I2C_CR2_DMAEN;
 2499              		.loc 1 1319 0
 2500 00e0 FB68     		ldr	r3, [r7, #12]
 2501 00e2 1B68     		ldr	r3, [r3]
 2502 00e4 FA68     		ldr	r2, [r7, #12]
 2503 00e6 1268     		ldr	r2, [r2]
 2504 00e8 5268     		ldr	r2, [r2, #4]
 2505 00ea 42F40062 		orr	r2, r2, #2048
 2506 00ee 5A60     		str	r2, [r3, #4]
 2507              	.LBB14:
1320:Drivers/STM32F4xx_HAL_Driver/Src/stm32f4xx_hal_i2c.c **** 
1321:Drivers/STM32F4xx_HAL_Driver/Src/stm32f4xx_hal_i2c.c ****     /* Clear ADDR flag */
1322:Drivers/STM32F4xx_HAL_Driver/Src/stm32f4xx_hal_i2c.c ****     __HAL_I2C_CLEAR_ADDRFLAG(hi2c);
 2508              		.loc 1 1322 0
 2509 00f0 FB68     		ldr	r3, [r7, #12]
 2510 00f2 1B68     		ldr	r3, [r3]
 2511 00f4 5B69     		ldr	r3, [r3, #20]
 2512 00f6 7B61     		str	r3, [r7, #20]
 2513 00f8 FB68     		ldr	r3, [r7, #12]
 2514 00fa 1B68     		ldr	r3, [r3]
 2515 00fc 9B69     		ldr	r3, [r3, #24]
 2516 00fe 7B61     		str	r3, [r7, #20]
 2517 0100 7B69     		ldr	r3, [r7, #20]
 2518              	.LBE14:
ARM GAS  /tmp/cc5bMm9J.s 			page 68


1323:Drivers/STM32F4xx_HAL_Driver/Src/stm32f4xx_hal_i2c.c **** 
1324:Drivers/STM32F4xx_HAL_Driver/Src/stm32f4xx_hal_i2c.c ****     /* Process Unlocked */
1325:Drivers/STM32F4xx_HAL_Driver/Src/stm32f4xx_hal_i2c.c ****     __HAL_UNLOCK(hi2c);
 2519              		.loc 1 1325 0
 2520 0102 FB68     		ldr	r3, [r7, #12]
 2521 0104 0022     		movs	r2, #0
 2522 0106 83F83420 		strb	r2, [r3, #52]
1326:Drivers/STM32F4xx_HAL_Driver/Src/stm32f4xx_hal_i2c.c **** 
1327:Drivers/STM32F4xx_HAL_Driver/Src/stm32f4xx_hal_i2c.c ****     return HAL_OK;
 2523              		.loc 1 1327 0
 2524 010a 0023     		movs	r3, #0
 2525 010c 00E0     		b	.L141
 2526              	.L138:
1328:Drivers/STM32F4xx_HAL_Driver/Src/stm32f4xx_hal_i2c.c ****   }
1329:Drivers/STM32F4xx_HAL_Driver/Src/stm32f4xx_hal_i2c.c ****   else
1330:Drivers/STM32F4xx_HAL_Driver/Src/stm32f4xx_hal_i2c.c ****   {
1331:Drivers/STM32F4xx_HAL_Driver/Src/stm32f4xx_hal_i2c.c ****     return HAL_BUSY;
 2527              		.loc 1 1331 0
 2528 010e 0223     		movs	r3, #2
 2529              	.L141:
1332:Drivers/STM32F4xx_HAL_Driver/Src/stm32f4xx_hal_i2c.c ****   }
1333:Drivers/STM32F4xx_HAL_Driver/Src/stm32f4xx_hal_i2c.c **** }
 2530              		.loc 1 1333 0
 2531 0110 1846     		mov	r0, r3
 2532 0112 1837     		adds	r7, r7, #24
 2533 0114 BD46     		mov	sp, r7
 2534              		@ sp needed
 2535 0116 80BD     		pop	{r7, pc}
 2536              	.L147:
 2537              		.align	2
 2538              	.L146:
 2539 0118 02001000 		.word	1048578
 2540 011c 00000000 		.word	I2C_DMAMasterTransmitCplt
 2541 0120 00000000 		.word	I2C_DMAError
 2542              		.cfi_endproc
 2543              	.LFE137:
 2545              		.section	.text.HAL_I2C_Master_Receive_DMA,"ax",%progbits
 2546              		.align	2
 2547              		.global	HAL_I2C_Master_Receive_DMA
 2548              		.thumb
 2549              		.thumb_func
 2551              	HAL_I2C_Master_Receive_DMA:
 2552              	.LFB138:
1334:Drivers/STM32F4xx_HAL_Driver/Src/stm32f4xx_hal_i2c.c **** 
1335:Drivers/STM32F4xx_HAL_Driver/Src/stm32f4xx_hal_i2c.c **** /**
1336:Drivers/STM32F4xx_HAL_Driver/Src/stm32f4xx_hal_i2c.c ****   * @brief  Receive in master mode an amount of data in no-blocking mode with DMA
1337:Drivers/STM32F4xx_HAL_Driver/Src/stm32f4xx_hal_i2c.c ****   * @param  hi2c: pointer to a I2C_HandleTypeDef structure that contains
1338:Drivers/STM32F4xx_HAL_Driver/Src/stm32f4xx_hal_i2c.c ****   *         the configuration information for I2C module
1339:Drivers/STM32F4xx_HAL_Driver/Src/stm32f4xx_hal_i2c.c ****   * @param  DevAddress: Target device address
1340:Drivers/STM32F4xx_HAL_Driver/Src/stm32f4xx_hal_i2c.c ****   * @param  pData: Pointer to data buffer
1341:Drivers/STM32F4xx_HAL_Driver/Src/stm32f4xx_hal_i2c.c ****   * @param  Size: Amount of data to be sent
1342:Drivers/STM32F4xx_HAL_Driver/Src/stm32f4xx_hal_i2c.c ****   * @retval HAL status
1343:Drivers/STM32F4xx_HAL_Driver/Src/stm32f4xx_hal_i2c.c ****   */
1344:Drivers/STM32F4xx_HAL_Driver/Src/stm32f4xx_hal_i2c.c **** HAL_StatusTypeDef HAL_I2C_Master_Receive_DMA(I2C_HandleTypeDef *hi2c, uint16_t DevAddress, uint8_t 
1345:Drivers/STM32F4xx_HAL_Driver/Src/stm32f4xx_hal_i2c.c **** {
 2553              		.loc 1 1345 0
 2554              		.cfi_startproc
ARM GAS  /tmp/cc5bMm9J.s 			page 69


 2555              		@ args = 0, pretend = 0, frame = 24
 2556              		@ frame_needed = 1, uses_anonymous_args = 0
 2557 0000 80B5     		push	{r7, lr}
 2558              	.LCFI39:
 2559              		.cfi_def_cfa_offset 8
 2560              		.cfi_offset 7, -8
 2561              		.cfi_offset 14, -4
 2562 0002 86B0     		sub	sp, sp, #24
 2563              	.LCFI40:
 2564              		.cfi_def_cfa_offset 32
 2565 0004 00AF     		add	r7, sp, #0
 2566              	.LCFI41:
 2567              		.cfi_def_cfa_register 7
 2568 0006 F860     		str	r0, [r7, #12]
 2569 0008 7A60     		str	r2, [r7, #4]
 2570 000a 0A46     		mov	r2, r1	@ movhi
 2571 000c 7A81     		strh	r2, [r7, #10]	@ movhi
 2572 000e 3B81     		strh	r3, [r7, #8]	@ movhi
1346:Drivers/STM32F4xx_HAL_Driver/Src/stm32f4xx_hal_i2c.c ****   if(hi2c->State == HAL_I2C_STATE_READY)
 2573              		.loc 1 1346 0
 2574 0010 FB68     		ldr	r3, [r7, #12]
 2575 0012 93F83530 		ldrb	r3, [r3, #53]
 2576 0016 DBB2     		uxtb	r3, r3
 2577 0018 012B     		cmp	r3, #1
 2578 001a 40F08D80 		bne	.L149
1347:Drivers/STM32F4xx_HAL_Driver/Src/stm32f4xx_hal_i2c.c ****   {
1348:Drivers/STM32F4xx_HAL_Driver/Src/stm32f4xx_hal_i2c.c ****     if((pData == NULL) || (Size == 0))
 2579              		.loc 1 1348 0
 2580 001e 7B68     		ldr	r3, [r7, #4]
 2581 0020 002B     		cmp	r3, #0
 2582 0022 02D0     		beq	.L150
 2583              		.loc 1 1348 0 is_stmt 0 discriminator 1
 2584 0024 3B89     		ldrh	r3, [r7, #8]
 2585 0026 002B     		cmp	r3, #0
 2586 0028 01D1     		bne	.L151
 2587              	.L150:
1349:Drivers/STM32F4xx_HAL_Driver/Src/stm32f4xx_hal_i2c.c ****     {
1350:Drivers/STM32F4xx_HAL_Driver/Src/stm32f4xx_hal_i2c.c ****       return  HAL_ERROR;
 2588              		.loc 1 1350 0 is_stmt 1
 2589 002a 0123     		movs	r3, #1
 2590 002c 85E0     		b	.L152
 2591              	.L151:
1351:Drivers/STM32F4xx_HAL_Driver/Src/stm32f4xx_hal_i2c.c ****     }
1352:Drivers/STM32F4xx_HAL_Driver/Src/stm32f4xx_hal_i2c.c **** 
1353:Drivers/STM32F4xx_HAL_Driver/Src/stm32f4xx_hal_i2c.c ****     /* Wait until BUSY flag is reset */
1354:Drivers/STM32F4xx_HAL_Driver/Src/stm32f4xx_hal_i2c.c ****     if(I2C_WaitOnFlagUntilTimeout(hi2c, I2C_FLAG_BUSY, SET, I2C_TIMEOUT_BUSY_FLAG) != HAL_OK)
 2592              		.loc 1 1354 0
 2593 002e F868     		ldr	r0, [r7, #12]
 2594 0030 4449     		ldr	r1, .L159
 2595 0032 0122     		movs	r2, #1
 2596 0034 42F21073 		movw	r3, #10000
 2597 0038 FFF7FEFF 		bl	I2C_WaitOnFlagUntilTimeout
 2598 003c 0346     		mov	r3, r0
 2599 003e 002B     		cmp	r3, #0
 2600 0040 01D0     		beq	.L153
1355:Drivers/STM32F4xx_HAL_Driver/Src/stm32f4xx_hal_i2c.c ****     {
1356:Drivers/STM32F4xx_HAL_Driver/Src/stm32f4xx_hal_i2c.c ****       return HAL_BUSY;
ARM GAS  /tmp/cc5bMm9J.s 			page 70


 2601              		.loc 1 1356 0
 2602 0042 0223     		movs	r3, #2
 2603 0044 79E0     		b	.L152
 2604              	.L153:
1357:Drivers/STM32F4xx_HAL_Driver/Src/stm32f4xx_hal_i2c.c ****     }
1358:Drivers/STM32F4xx_HAL_Driver/Src/stm32f4xx_hal_i2c.c **** 
1359:Drivers/STM32F4xx_HAL_Driver/Src/stm32f4xx_hal_i2c.c ****     /* Process Locked */
1360:Drivers/STM32F4xx_HAL_Driver/Src/stm32f4xx_hal_i2c.c ****     __HAL_LOCK(hi2c);
 2605              		.loc 1 1360 0
 2606 0046 FB68     		ldr	r3, [r7, #12]
 2607 0048 93F83430 		ldrb	r3, [r3, #52]	@ zero_extendqisi2
 2608 004c 012B     		cmp	r3, #1
 2609 004e 01D1     		bne	.L154
 2610              		.loc 1 1360 0 is_stmt 0 discriminator 1
 2611 0050 0223     		movs	r3, #2
 2612 0052 72E0     		b	.L152
 2613              	.L154:
 2614              		.loc 1 1360 0 discriminator 2
 2615 0054 FB68     		ldr	r3, [r7, #12]
 2616 0056 0122     		movs	r2, #1
 2617 0058 83F83420 		strb	r2, [r3, #52]
1361:Drivers/STM32F4xx_HAL_Driver/Src/stm32f4xx_hal_i2c.c ****     
1362:Drivers/STM32F4xx_HAL_Driver/Src/stm32f4xx_hal_i2c.c ****     /* Disable Pos */
1363:Drivers/STM32F4xx_HAL_Driver/Src/stm32f4xx_hal_i2c.c ****     hi2c->Instance->CR1 &= ~I2C_CR1_POS;
 2618              		.loc 1 1363 0 is_stmt 1 discriminator 2
 2619 005c FB68     		ldr	r3, [r7, #12]
 2620 005e 1B68     		ldr	r3, [r3]
 2621 0060 FA68     		ldr	r2, [r7, #12]
 2622 0062 1268     		ldr	r2, [r2]
 2623 0064 1268     		ldr	r2, [r2]
 2624 0066 22F40062 		bic	r2, r2, #2048
 2625 006a 1A60     		str	r2, [r3]
1364:Drivers/STM32F4xx_HAL_Driver/Src/stm32f4xx_hal_i2c.c **** 
1365:Drivers/STM32F4xx_HAL_Driver/Src/stm32f4xx_hal_i2c.c ****     hi2c->State = HAL_I2C_STATE_BUSY_RX;
 2626              		.loc 1 1365 0 discriminator 2
 2627 006c FB68     		ldr	r3, [r7, #12]
 2628 006e 2222     		movs	r2, #34
 2629 0070 83F83520 		strb	r2, [r3, #53]
1366:Drivers/STM32F4xx_HAL_Driver/Src/stm32f4xx_hal_i2c.c ****     hi2c->ErrorCode = HAL_I2C_ERROR_NONE;
 2630              		.loc 1 1366 0 discriminator 2
 2631 0074 FB68     		ldr	r3, [r7, #12]
 2632 0076 0022     		movs	r2, #0
 2633 0078 9A63     		str	r2, [r3, #56]
1367:Drivers/STM32F4xx_HAL_Driver/Src/stm32f4xx_hal_i2c.c **** 
1368:Drivers/STM32F4xx_HAL_Driver/Src/stm32f4xx_hal_i2c.c ****     hi2c->pBuffPtr = pData;
 2634              		.loc 1 1368 0 discriminator 2
 2635 007a FB68     		ldr	r3, [r7, #12]
 2636 007c 7A68     		ldr	r2, [r7, #4]
 2637 007e 5A62     		str	r2, [r3, #36]
1369:Drivers/STM32F4xx_HAL_Driver/Src/stm32f4xx_hal_i2c.c ****     hi2c->XferSize = Size;
 2638              		.loc 1 1369 0 discriminator 2
 2639 0080 FB68     		ldr	r3, [r7, #12]
 2640 0082 3A89     		ldrh	r2, [r7, #8]	@ movhi
 2641 0084 1A85     		strh	r2, [r3, #40]	@ movhi
1370:Drivers/STM32F4xx_HAL_Driver/Src/stm32f4xx_hal_i2c.c ****     hi2c->XferCount = Size;
 2642              		.loc 1 1370 0 discriminator 2
 2643 0086 FB68     		ldr	r3, [r7, #12]
ARM GAS  /tmp/cc5bMm9J.s 			page 71


 2644 0088 3A89     		ldrh	r2, [r7, #8]	@ movhi
 2645 008a 5A85     		strh	r2, [r3, #42]	@ movhi
1371:Drivers/STM32F4xx_HAL_Driver/Src/stm32f4xx_hal_i2c.c **** 
1372:Drivers/STM32F4xx_HAL_Driver/Src/stm32f4xx_hal_i2c.c ****     /* Set the I2C DMA transfer complete callback */
1373:Drivers/STM32F4xx_HAL_Driver/Src/stm32f4xx_hal_i2c.c ****     hi2c->hdmarx->XferCpltCallback = I2C_DMAMasterReceiveCplt;
 2646              		.loc 1 1373 0 discriminator 2
 2647 008c FB68     		ldr	r3, [r7, #12]
 2648 008e 1B6B     		ldr	r3, [r3, #48]
 2649 0090 2D4A     		ldr	r2, .L159+4
 2650 0092 DA63     		str	r2, [r3, #60]
1374:Drivers/STM32F4xx_HAL_Driver/Src/stm32f4xx_hal_i2c.c **** 
1375:Drivers/STM32F4xx_HAL_Driver/Src/stm32f4xx_hal_i2c.c ****     /* Set the DMA error callback */
1376:Drivers/STM32F4xx_HAL_Driver/Src/stm32f4xx_hal_i2c.c ****     hi2c->hdmarx->XferErrorCallback = I2C_DMAError;
 2651              		.loc 1 1376 0 discriminator 2
 2652 0094 FB68     		ldr	r3, [r7, #12]
 2653 0096 1B6B     		ldr	r3, [r3, #48]
 2654 0098 2C4A     		ldr	r2, .L159+8
 2655 009a 9A64     		str	r2, [r3, #72]
1377:Drivers/STM32F4xx_HAL_Driver/Src/stm32f4xx_hal_i2c.c **** 
1378:Drivers/STM32F4xx_HAL_Driver/Src/stm32f4xx_hal_i2c.c ****     /* Enable the DMA Stream */
1379:Drivers/STM32F4xx_HAL_Driver/Src/stm32f4xx_hal_i2c.c ****     HAL_DMA_Start_IT(hi2c->hdmarx, (uint32_t)&hi2c->Instance->DR, (uint32_t)pData, Size);
 2656              		.loc 1 1379 0 discriminator 2
 2657 009c FB68     		ldr	r3, [r7, #12]
 2658 009e 186B     		ldr	r0, [r3, #48]
 2659 00a0 FB68     		ldr	r3, [r7, #12]
 2660 00a2 1B68     		ldr	r3, [r3]
 2661 00a4 1033     		adds	r3, r3, #16
 2662 00a6 1946     		mov	r1, r3
 2663 00a8 7A68     		ldr	r2, [r7, #4]
 2664 00aa 3B89     		ldrh	r3, [r7, #8]
 2665 00ac FFF7FEFF 		bl	HAL_DMA_Start_IT
1380:Drivers/STM32F4xx_HAL_Driver/Src/stm32f4xx_hal_i2c.c **** 
1381:Drivers/STM32F4xx_HAL_Driver/Src/stm32f4xx_hal_i2c.c ****     /* Send Slave Address */
1382:Drivers/STM32F4xx_HAL_Driver/Src/stm32f4xx_hal_i2c.c ****     if(I2C_MasterRequestRead(hi2c, DevAddress, I2C_TIMEOUT_FLAG) != HAL_OK)
 2666              		.loc 1 1382 0 discriminator 2
 2667 00b0 7B89     		ldrh	r3, [r7, #10]
 2668 00b2 F868     		ldr	r0, [r7, #12]
 2669 00b4 1946     		mov	r1, r3
 2670 00b6 2322     		movs	r2, #35
 2671 00b8 FFF7FEFF 		bl	I2C_MasterRequestRead
 2672 00bc 0346     		mov	r3, r0
 2673 00be 002B     		cmp	r3, #0
 2674 00c0 0FD0     		beq	.L155
1383:Drivers/STM32F4xx_HAL_Driver/Src/stm32f4xx_hal_i2c.c ****     {
1384:Drivers/STM32F4xx_HAL_Driver/Src/stm32f4xx_hal_i2c.c ****       if(hi2c->ErrorCode == HAL_I2C_ERROR_AF)
 2675              		.loc 1 1384 0
 2676 00c2 FB68     		ldr	r3, [r7, #12]
 2677 00c4 9B6B     		ldr	r3, [r3, #56]
 2678 00c6 042B     		cmp	r3, #4
 2679 00c8 05D1     		bne	.L156
1385:Drivers/STM32F4xx_HAL_Driver/Src/stm32f4xx_hal_i2c.c ****       {
1386:Drivers/STM32F4xx_HAL_Driver/Src/stm32f4xx_hal_i2c.c ****         /* Process Unlocked */
1387:Drivers/STM32F4xx_HAL_Driver/Src/stm32f4xx_hal_i2c.c ****         __HAL_UNLOCK(hi2c);
 2680              		.loc 1 1387 0
 2681 00ca FB68     		ldr	r3, [r7, #12]
 2682 00cc 0022     		movs	r2, #0
 2683 00ce 83F83420 		strb	r2, [r3, #52]
ARM GAS  /tmp/cc5bMm9J.s 			page 72


1388:Drivers/STM32F4xx_HAL_Driver/Src/stm32f4xx_hal_i2c.c ****         return HAL_ERROR;
 2684              		.loc 1 1388 0
 2685 00d2 0123     		movs	r3, #1
 2686 00d4 31E0     		b	.L152
 2687              	.L156:
1389:Drivers/STM32F4xx_HAL_Driver/Src/stm32f4xx_hal_i2c.c ****       }
1390:Drivers/STM32F4xx_HAL_Driver/Src/stm32f4xx_hal_i2c.c ****       else
1391:Drivers/STM32F4xx_HAL_Driver/Src/stm32f4xx_hal_i2c.c ****       {
1392:Drivers/STM32F4xx_HAL_Driver/Src/stm32f4xx_hal_i2c.c ****         /* Process Unlocked */
1393:Drivers/STM32F4xx_HAL_Driver/Src/stm32f4xx_hal_i2c.c ****         __HAL_UNLOCK(hi2c);
 2688              		.loc 1 1393 0
 2689 00d6 FB68     		ldr	r3, [r7, #12]
 2690 00d8 0022     		movs	r2, #0
 2691 00da 83F83420 		strb	r2, [r3, #52]
1394:Drivers/STM32F4xx_HAL_Driver/Src/stm32f4xx_hal_i2c.c ****         return HAL_TIMEOUT;
 2692              		.loc 1 1394 0
 2693 00de 0323     		movs	r3, #3
 2694 00e0 2BE0     		b	.L152
 2695              	.L155:
1395:Drivers/STM32F4xx_HAL_Driver/Src/stm32f4xx_hal_i2c.c ****       }
1396:Drivers/STM32F4xx_HAL_Driver/Src/stm32f4xx_hal_i2c.c ****     }
1397:Drivers/STM32F4xx_HAL_Driver/Src/stm32f4xx_hal_i2c.c **** 
1398:Drivers/STM32F4xx_HAL_Driver/Src/stm32f4xx_hal_i2c.c ****     if(Size == 1)
 2696              		.loc 1 1398 0
 2697 00e2 3B89     		ldrh	r3, [r7, #8]
 2698 00e4 012B     		cmp	r3, #1
 2699 00e6 08D1     		bne	.L157
1399:Drivers/STM32F4xx_HAL_Driver/Src/stm32f4xx_hal_i2c.c ****     {
1400:Drivers/STM32F4xx_HAL_Driver/Src/stm32f4xx_hal_i2c.c ****       /* Disable Acknowledge */
1401:Drivers/STM32F4xx_HAL_Driver/Src/stm32f4xx_hal_i2c.c ****       hi2c->Instance->CR1 &= ~I2C_CR1_ACK;
 2700              		.loc 1 1401 0
 2701 00e8 FB68     		ldr	r3, [r7, #12]
 2702 00ea 1B68     		ldr	r3, [r3]
 2703 00ec FA68     		ldr	r2, [r7, #12]
 2704 00ee 1268     		ldr	r2, [r2]
 2705 00f0 1268     		ldr	r2, [r2]
 2706 00f2 22F48062 		bic	r2, r2, #1024
 2707 00f6 1A60     		str	r2, [r3]
 2708 00f8 07E0     		b	.L158
 2709              	.L157:
1402:Drivers/STM32F4xx_HAL_Driver/Src/stm32f4xx_hal_i2c.c ****     }
1403:Drivers/STM32F4xx_HAL_Driver/Src/stm32f4xx_hal_i2c.c ****     else
1404:Drivers/STM32F4xx_HAL_Driver/Src/stm32f4xx_hal_i2c.c ****     {
1405:Drivers/STM32F4xx_HAL_Driver/Src/stm32f4xx_hal_i2c.c ****       /* Enable Last DMA bit */
1406:Drivers/STM32F4xx_HAL_Driver/Src/stm32f4xx_hal_i2c.c ****       hi2c->Instance->CR2 |= I2C_CR2_LAST;
 2710              		.loc 1 1406 0
 2711 00fa FB68     		ldr	r3, [r7, #12]
 2712 00fc 1B68     		ldr	r3, [r3]
 2713 00fe FA68     		ldr	r2, [r7, #12]
 2714 0100 1268     		ldr	r2, [r2]
 2715 0102 5268     		ldr	r2, [r2, #4]
 2716 0104 42F48052 		orr	r2, r2, #4096
 2717 0108 5A60     		str	r2, [r3, #4]
 2718              	.L158:
1407:Drivers/STM32F4xx_HAL_Driver/Src/stm32f4xx_hal_i2c.c ****     }
1408:Drivers/STM32F4xx_HAL_Driver/Src/stm32f4xx_hal_i2c.c **** 
1409:Drivers/STM32F4xx_HAL_Driver/Src/stm32f4xx_hal_i2c.c ****     /* Enable DMA Request */
ARM GAS  /tmp/cc5bMm9J.s 			page 73


1410:Drivers/STM32F4xx_HAL_Driver/Src/stm32f4xx_hal_i2c.c ****     hi2c->Instance->CR2 |= I2C_CR2_DMAEN;
 2719              		.loc 1 1410 0
 2720 010a FB68     		ldr	r3, [r7, #12]
 2721 010c 1B68     		ldr	r3, [r3]
 2722 010e FA68     		ldr	r2, [r7, #12]
 2723 0110 1268     		ldr	r2, [r2]
 2724 0112 5268     		ldr	r2, [r2, #4]
 2725 0114 42F40062 		orr	r2, r2, #2048
 2726 0118 5A60     		str	r2, [r3, #4]
 2727              	.LBB15:
1411:Drivers/STM32F4xx_HAL_Driver/Src/stm32f4xx_hal_i2c.c **** 
1412:Drivers/STM32F4xx_HAL_Driver/Src/stm32f4xx_hal_i2c.c ****     /* Clear ADDR flag */
1413:Drivers/STM32F4xx_HAL_Driver/Src/stm32f4xx_hal_i2c.c ****     __HAL_I2C_CLEAR_ADDRFLAG(hi2c);
 2728              		.loc 1 1413 0
 2729 011a FB68     		ldr	r3, [r7, #12]
 2730 011c 1B68     		ldr	r3, [r3]
 2731 011e 5B69     		ldr	r3, [r3, #20]
 2732 0120 7B61     		str	r3, [r7, #20]
 2733 0122 FB68     		ldr	r3, [r7, #12]
 2734 0124 1B68     		ldr	r3, [r3]
 2735 0126 9B69     		ldr	r3, [r3, #24]
 2736 0128 7B61     		str	r3, [r7, #20]
 2737 012a 7B69     		ldr	r3, [r7, #20]
 2738              	.LBE15:
1414:Drivers/STM32F4xx_HAL_Driver/Src/stm32f4xx_hal_i2c.c **** 
1415:Drivers/STM32F4xx_HAL_Driver/Src/stm32f4xx_hal_i2c.c ****     /* Process Unlocked */
1416:Drivers/STM32F4xx_HAL_Driver/Src/stm32f4xx_hal_i2c.c ****     __HAL_UNLOCK(hi2c);
 2739              		.loc 1 1416 0
 2740 012c FB68     		ldr	r3, [r7, #12]
 2741 012e 0022     		movs	r2, #0
 2742 0130 83F83420 		strb	r2, [r3, #52]
1417:Drivers/STM32F4xx_HAL_Driver/Src/stm32f4xx_hal_i2c.c **** 
1418:Drivers/STM32F4xx_HAL_Driver/Src/stm32f4xx_hal_i2c.c ****     return HAL_OK;
 2743              		.loc 1 1418 0
 2744 0134 0023     		movs	r3, #0
 2745 0136 00E0     		b	.L152
 2746              	.L149:
1419:Drivers/STM32F4xx_HAL_Driver/Src/stm32f4xx_hal_i2c.c ****   }
1420:Drivers/STM32F4xx_HAL_Driver/Src/stm32f4xx_hal_i2c.c ****   else
1421:Drivers/STM32F4xx_HAL_Driver/Src/stm32f4xx_hal_i2c.c ****   {
1422:Drivers/STM32F4xx_HAL_Driver/Src/stm32f4xx_hal_i2c.c ****     return HAL_BUSY;
 2747              		.loc 1 1422 0
 2748 0138 0223     		movs	r3, #2
 2749              	.L152:
1423:Drivers/STM32F4xx_HAL_Driver/Src/stm32f4xx_hal_i2c.c ****   }
1424:Drivers/STM32F4xx_HAL_Driver/Src/stm32f4xx_hal_i2c.c **** }
 2750              		.loc 1 1424 0
 2751 013a 1846     		mov	r0, r3
 2752 013c 1837     		adds	r7, r7, #24
 2753 013e BD46     		mov	sp, r7
 2754              		@ sp needed
 2755 0140 80BD     		pop	{r7, pc}
 2756              	.L160:
 2757 0142 00BF     		.align	2
 2758              	.L159:
 2759 0144 02001000 		.word	1048578
 2760 0148 00000000 		.word	I2C_DMAMasterReceiveCplt
ARM GAS  /tmp/cc5bMm9J.s 			page 74


 2761 014c 00000000 		.word	I2C_DMAError
 2762              		.cfi_endproc
 2763              	.LFE138:
 2765              		.section	.text.HAL_I2C_Slave_Transmit_DMA,"ax",%progbits
 2766              		.align	2
 2767              		.global	HAL_I2C_Slave_Transmit_DMA
 2768              		.thumb
 2769              		.thumb_func
 2771              	HAL_I2C_Slave_Transmit_DMA:
 2772              	.LFB139:
1425:Drivers/STM32F4xx_HAL_Driver/Src/stm32f4xx_hal_i2c.c **** 
1426:Drivers/STM32F4xx_HAL_Driver/Src/stm32f4xx_hal_i2c.c **** /**
1427:Drivers/STM32F4xx_HAL_Driver/Src/stm32f4xx_hal_i2c.c ****   * @brief  Transmit in slave mode an amount of data in no-blocking mode with DMA
1428:Drivers/STM32F4xx_HAL_Driver/Src/stm32f4xx_hal_i2c.c ****   * @param  hi2c: pointer to a I2C_HandleTypeDef structure that contains
1429:Drivers/STM32F4xx_HAL_Driver/Src/stm32f4xx_hal_i2c.c ****   *         the configuration information for I2C module
1430:Drivers/STM32F4xx_HAL_Driver/Src/stm32f4xx_hal_i2c.c ****   * @param  pData: Pointer to data buffer
1431:Drivers/STM32F4xx_HAL_Driver/Src/stm32f4xx_hal_i2c.c ****   * @param  Size: Amount of data to be sent
1432:Drivers/STM32F4xx_HAL_Driver/Src/stm32f4xx_hal_i2c.c ****   * @retval HAL status
1433:Drivers/STM32F4xx_HAL_Driver/Src/stm32f4xx_hal_i2c.c ****   */
1434:Drivers/STM32F4xx_HAL_Driver/Src/stm32f4xx_hal_i2c.c **** HAL_StatusTypeDef HAL_I2C_Slave_Transmit_DMA(I2C_HandleTypeDef *hi2c, uint8_t *pData, uint16_t Size
1435:Drivers/STM32F4xx_HAL_Driver/Src/stm32f4xx_hal_i2c.c **** {
 2773              		.loc 1 1435 0
 2774              		.cfi_startproc
 2775              		@ args = 0, pretend = 0, frame = 32
 2776              		@ frame_needed = 1, uses_anonymous_args = 0
 2777 0000 80B5     		push	{r7, lr}
 2778              	.LCFI42:
 2779              		.cfi_def_cfa_offset 8
 2780              		.cfi_offset 7, -8
 2781              		.cfi_offset 14, -4
 2782 0002 88B0     		sub	sp, sp, #32
 2783              	.LCFI43:
 2784              		.cfi_def_cfa_offset 40
 2785 0004 00AF     		add	r7, sp, #0
 2786              	.LCFI44:
 2787              		.cfi_def_cfa_register 7
 2788 0006 F860     		str	r0, [r7, #12]
 2789 0008 B960     		str	r1, [r7, #8]
 2790 000a 1346     		mov	r3, r2
 2791 000c FB80     		strh	r3, [r7, #6]	@ movhi
1436:Drivers/STM32F4xx_HAL_Driver/Src/stm32f4xx_hal_i2c.c ****   if(hi2c->State == HAL_I2C_STATE_READY)
 2792              		.loc 1 1436 0
 2793 000e FB68     		ldr	r3, [r7, #12]
 2794 0010 93F83530 		ldrb	r3, [r3, #53]
 2795 0014 DBB2     		uxtb	r3, r3
 2796 0016 012B     		cmp	r3, #1
 2797 0018 40F09880 		bne	.L162
1437:Drivers/STM32F4xx_HAL_Driver/Src/stm32f4xx_hal_i2c.c ****   {
1438:Drivers/STM32F4xx_HAL_Driver/Src/stm32f4xx_hal_i2c.c ****     if((pData == NULL) || (Size == 0))
 2798              		.loc 1 1438 0
 2799 001c BB68     		ldr	r3, [r7, #8]
 2800 001e 002B     		cmp	r3, #0
 2801 0020 02D0     		beq	.L163
 2802              		.loc 1 1438 0 is_stmt 0 discriminator 1
 2803 0022 FB88     		ldrh	r3, [r7, #6]
 2804 0024 002B     		cmp	r3, #0
 2805 0026 01D1     		bne	.L164
ARM GAS  /tmp/cc5bMm9J.s 			page 75


 2806              	.L163:
1439:Drivers/STM32F4xx_HAL_Driver/Src/stm32f4xx_hal_i2c.c ****     {
1440:Drivers/STM32F4xx_HAL_Driver/Src/stm32f4xx_hal_i2c.c ****       return  HAL_ERROR;
 2807              		.loc 1 1440 0 is_stmt 1
 2808 0028 0123     		movs	r3, #1
 2809 002a 90E0     		b	.L165
 2810              	.L164:
1441:Drivers/STM32F4xx_HAL_Driver/Src/stm32f4xx_hal_i2c.c ****     }
1442:Drivers/STM32F4xx_HAL_Driver/Src/stm32f4xx_hal_i2c.c **** 
1443:Drivers/STM32F4xx_HAL_Driver/Src/stm32f4xx_hal_i2c.c ****     /* Wait until BUSY flag is reset */
1444:Drivers/STM32F4xx_HAL_Driver/Src/stm32f4xx_hal_i2c.c ****     if(I2C_WaitOnFlagUntilTimeout(hi2c, I2C_FLAG_BUSY, SET, I2C_TIMEOUT_BUSY_FLAG) != HAL_OK)
 2811              		.loc 1 1444 0
 2812 002c F868     		ldr	r0, [r7, #12]
 2813 002e 4A49     		ldr	r1, .L172
 2814 0030 0122     		movs	r2, #1
 2815 0032 42F21073 		movw	r3, #10000
 2816 0036 FFF7FEFF 		bl	I2C_WaitOnFlagUntilTimeout
 2817 003a 0346     		mov	r3, r0
 2818 003c 002B     		cmp	r3, #0
 2819 003e 01D0     		beq	.L166
1445:Drivers/STM32F4xx_HAL_Driver/Src/stm32f4xx_hal_i2c.c ****     {
1446:Drivers/STM32F4xx_HAL_Driver/Src/stm32f4xx_hal_i2c.c ****       return HAL_BUSY;
 2820              		.loc 1 1446 0
 2821 0040 0223     		movs	r3, #2
 2822 0042 84E0     		b	.L165
 2823              	.L166:
1447:Drivers/STM32F4xx_HAL_Driver/Src/stm32f4xx_hal_i2c.c ****     }
1448:Drivers/STM32F4xx_HAL_Driver/Src/stm32f4xx_hal_i2c.c **** 
1449:Drivers/STM32F4xx_HAL_Driver/Src/stm32f4xx_hal_i2c.c ****     /* Process Locked */
1450:Drivers/STM32F4xx_HAL_Driver/Src/stm32f4xx_hal_i2c.c ****     __HAL_LOCK(hi2c);
 2824              		.loc 1 1450 0
 2825 0044 FB68     		ldr	r3, [r7, #12]
 2826 0046 93F83430 		ldrb	r3, [r3, #52]	@ zero_extendqisi2
 2827 004a 012B     		cmp	r3, #1
 2828 004c 01D1     		bne	.L167
 2829              		.loc 1 1450 0 is_stmt 0 discriminator 1
 2830 004e 0223     		movs	r3, #2
 2831 0050 7DE0     		b	.L165
 2832              	.L167:
 2833              		.loc 1 1450 0 discriminator 2
 2834 0052 FB68     		ldr	r3, [r7, #12]
 2835 0054 0122     		movs	r2, #1
 2836 0056 83F83420 		strb	r2, [r3, #52]
1451:Drivers/STM32F4xx_HAL_Driver/Src/stm32f4xx_hal_i2c.c ****     
1452:Drivers/STM32F4xx_HAL_Driver/Src/stm32f4xx_hal_i2c.c ****     /* Disable Pos */
1453:Drivers/STM32F4xx_HAL_Driver/Src/stm32f4xx_hal_i2c.c ****     hi2c->Instance->CR1 &= ~I2C_CR1_POS;
 2837              		.loc 1 1453 0 is_stmt 1 discriminator 2
 2838 005a FB68     		ldr	r3, [r7, #12]
 2839 005c 1B68     		ldr	r3, [r3]
 2840 005e FA68     		ldr	r2, [r7, #12]
 2841 0060 1268     		ldr	r2, [r2]
 2842 0062 1268     		ldr	r2, [r2]
 2843 0064 22F40062 		bic	r2, r2, #2048
 2844 0068 1A60     		str	r2, [r3]
1454:Drivers/STM32F4xx_HAL_Driver/Src/stm32f4xx_hal_i2c.c **** 
1455:Drivers/STM32F4xx_HAL_Driver/Src/stm32f4xx_hal_i2c.c ****     hi2c->State = HAL_I2C_STATE_BUSY_TX;
 2845              		.loc 1 1455 0 discriminator 2
ARM GAS  /tmp/cc5bMm9J.s 			page 76


 2846 006a FB68     		ldr	r3, [r7, #12]
 2847 006c 1222     		movs	r2, #18
 2848 006e 83F83520 		strb	r2, [r3, #53]
1456:Drivers/STM32F4xx_HAL_Driver/Src/stm32f4xx_hal_i2c.c ****     hi2c->ErrorCode = HAL_I2C_ERROR_NONE;
 2849              		.loc 1 1456 0 discriminator 2
 2850 0072 FB68     		ldr	r3, [r7, #12]
 2851 0074 0022     		movs	r2, #0
 2852 0076 9A63     		str	r2, [r3, #56]
1457:Drivers/STM32F4xx_HAL_Driver/Src/stm32f4xx_hal_i2c.c **** 
1458:Drivers/STM32F4xx_HAL_Driver/Src/stm32f4xx_hal_i2c.c ****     hi2c->pBuffPtr = pData;
 2853              		.loc 1 1458 0 discriminator 2
 2854 0078 FB68     		ldr	r3, [r7, #12]
 2855 007a BA68     		ldr	r2, [r7, #8]
 2856 007c 5A62     		str	r2, [r3, #36]
1459:Drivers/STM32F4xx_HAL_Driver/Src/stm32f4xx_hal_i2c.c ****     hi2c->XferSize = Size;
 2857              		.loc 1 1459 0 discriminator 2
 2858 007e FB68     		ldr	r3, [r7, #12]
 2859 0080 FA88     		ldrh	r2, [r7, #6]	@ movhi
 2860 0082 1A85     		strh	r2, [r3, #40]	@ movhi
1460:Drivers/STM32F4xx_HAL_Driver/Src/stm32f4xx_hal_i2c.c ****     hi2c->XferCount = Size;
 2861              		.loc 1 1460 0 discriminator 2
 2862 0084 FB68     		ldr	r3, [r7, #12]
 2863 0086 FA88     		ldrh	r2, [r7, #6]	@ movhi
 2864 0088 5A85     		strh	r2, [r3, #42]	@ movhi
1461:Drivers/STM32F4xx_HAL_Driver/Src/stm32f4xx_hal_i2c.c **** 
1462:Drivers/STM32F4xx_HAL_Driver/Src/stm32f4xx_hal_i2c.c ****     /* Set the I2C DMA transfer complete callback */
1463:Drivers/STM32F4xx_HAL_Driver/Src/stm32f4xx_hal_i2c.c ****     hi2c->hdmatx->XferCpltCallback = I2C_DMASlaveTransmitCplt;
 2865              		.loc 1 1463 0 discriminator 2
 2866 008a FB68     		ldr	r3, [r7, #12]
 2867 008c DB6A     		ldr	r3, [r3, #44]
 2868 008e 334A     		ldr	r2, .L172+4
 2869 0090 DA63     		str	r2, [r3, #60]
1464:Drivers/STM32F4xx_HAL_Driver/Src/stm32f4xx_hal_i2c.c **** 
1465:Drivers/STM32F4xx_HAL_Driver/Src/stm32f4xx_hal_i2c.c ****     /* Set the DMA error callback */
1466:Drivers/STM32F4xx_HAL_Driver/Src/stm32f4xx_hal_i2c.c ****     hi2c->hdmatx->XferErrorCallback = I2C_DMAError;
 2870              		.loc 1 1466 0 discriminator 2
 2871 0092 FB68     		ldr	r3, [r7, #12]
 2872 0094 DB6A     		ldr	r3, [r3, #44]
 2873 0096 324A     		ldr	r2, .L172+8
 2874 0098 9A64     		str	r2, [r3, #72]
1467:Drivers/STM32F4xx_HAL_Driver/Src/stm32f4xx_hal_i2c.c **** 
1468:Drivers/STM32F4xx_HAL_Driver/Src/stm32f4xx_hal_i2c.c ****     /* Enable the DMA Stream */
1469:Drivers/STM32F4xx_HAL_Driver/Src/stm32f4xx_hal_i2c.c ****     HAL_DMA_Start_IT(hi2c->hdmatx, (uint32_t)pData, (uint32_t)&hi2c->Instance->DR, Size);
 2875              		.loc 1 1469 0 discriminator 2
 2876 009a FB68     		ldr	r3, [r7, #12]
 2877 009c D86A     		ldr	r0, [r3, #44]
 2878 009e B968     		ldr	r1, [r7, #8]
 2879 00a0 FB68     		ldr	r3, [r7, #12]
 2880 00a2 1B68     		ldr	r3, [r3]
 2881 00a4 1033     		adds	r3, r3, #16
 2882 00a6 1A46     		mov	r2, r3
 2883 00a8 FB88     		ldrh	r3, [r7, #6]
 2884 00aa FFF7FEFF 		bl	HAL_DMA_Start_IT
1470:Drivers/STM32F4xx_HAL_Driver/Src/stm32f4xx_hal_i2c.c **** 
1471:Drivers/STM32F4xx_HAL_Driver/Src/stm32f4xx_hal_i2c.c ****     /* Enable DMA Request */
1472:Drivers/STM32F4xx_HAL_Driver/Src/stm32f4xx_hal_i2c.c ****     hi2c->Instance->CR2 |= I2C_CR2_DMAEN;
 2885              		.loc 1 1472 0 discriminator 2
ARM GAS  /tmp/cc5bMm9J.s 			page 77


 2886 00ae FB68     		ldr	r3, [r7, #12]
 2887 00b0 1B68     		ldr	r3, [r3]
 2888 00b2 FA68     		ldr	r2, [r7, #12]
 2889 00b4 1268     		ldr	r2, [r2]
 2890 00b6 5268     		ldr	r2, [r2, #4]
 2891 00b8 42F40062 		orr	r2, r2, #2048
 2892 00bc 5A60     		str	r2, [r3, #4]
1473:Drivers/STM32F4xx_HAL_Driver/Src/stm32f4xx_hal_i2c.c **** 
1474:Drivers/STM32F4xx_HAL_Driver/Src/stm32f4xx_hal_i2c.c ****     /* Enable Address Acknowledge */
1475:Drivers/STM32F4xx_HAL_Driver/Src/stm32f4xx_hal_i2c.c ****     hi2c->Instance->CR1 |= I2C_CR1_ACK;
 2893              		.loc 1 1475 0 discriminator 2
 2894 00be FB68     		ldr	r3, [r7, #12]
 2895 00c0 1B68     		ldr	r3, [r3]
 2896 00c2 FA68     		ldr	r2, [r7, #12]
 2897 00c4 1268     		ldr	r2, [r2]
 2898 00c6 1268     		ldr	r2, [r2]
 2899 00c8 42F48062 		orr	r2, r2, #1024
 2900 00cc 1A60     		str	r2, [r3]
1476:Drivers/STM32F4xx_HAL_Driver/Src/stm32f4xx_hal_i2c.c **** 
1477:Drivers/STM32F4xx_HAL_Driver/Src/stm32f4xx_hal_i2c.c ****     /* Wait until ADDR flag is set */
1478:Drivers/STM32F4xx_HAL_Driver/Src/stm32f4xx_hal_i2c.c ****     if(I2C_WaitOnFlagUntilTimeout(hi2c, I2C_FLAG_ADDR, RESET, I2C_TIMEOUT_ADDR_SLAVE) != HAL_OK)
 2901              		.loc 1 1478 0 discriminator 2
 2902 00ce F868     		ldr	r0, [r7, #12]
 2903 00d0 2449     		ldr	r1, .L172+12
 2904 00d2 0022     		movs	r2, #0
 2905 00d4 42F21073 		movw	r3, #10000
 2906 00d8 FFF7FEFF 		bl	I2C_WaitOnFlagUntilTimeout
 2907 00dc 0346     		mov	r3, r0
 2908 00de 002B     		cmp	r3, #0
 2909 00e0 01D0     		beq	.L168
1479:Drivers/STM32F4xx_HAL_Driver/Src/stm32f4xx_hal_i2c.c ****     {
1480:Drivers/STM32F4xx_HAL_Driver/Src/stm32f4xx_hal_i2c.c ****       return HAL_TIMEOUT;
 2910              		.loc 1 1480 0
 2911 00e2 0323     		movs	r3, #3
 2912 00e4 33E0     		b	.L165
 2913              	.L168:
1481:Drivers/STM32F4xx_HAL_Driver/Src/stm32f4xx_hal_i2c.c ****     }
1482:Drivers/STM32F4xx_HAL_Driver/Src/stm32f4xx_hal_i2c.c **** 
1483:Drivers/STM32F4xx_HAL_Driver/Src/stm32f4xx_hal_i2c.c ****     /* If 7bit addressing mode is selected */
1484:Drivers/STM32F4xx_HAL_Driver/Src/stm32f4xx_hal_i2c.c ****     if(hi2c->Init.AddressingMode == I2C_ADDRESSINGMODE_7BIT)
 2914              		.loc 1 1484 0
 2915 00e6 FB68     		ldr	r3, [r7, #12]
 2916 00e8 1B69     		ldr	r3, [r3, #16]
 2917 00ea B3F5804F 		cmp	r3, #16384
 2918 00ee 09D1     		bne	.L169
 2919              	.LBB16:
1485:Drivers/STM32F4xx_HAL_Driver/Src/stm32f4xx_hal_i2c.c ****     {
1486:Drivers/STM32F4xx_HAL_Driver/Src/stm32f4xx_hal_i2c.c ****       /* Clear ADDR flag */
1487:Drivers/STM32F4xx_HAL_Driver/Src/stm32f4xx_hal_i2c.c ****       __HAL_I2C_CLEAR_ADDRFLAG(hi2c);
 2920              		.loc 1 1487 0
 2921 00f0 FB68     		ldr	r3, [r7, #12]
 2922 00f2 1B68     		ldr	r3, [r3]
 2923 00f4 5B69     		ldr	r3, [r3, #20]
 2924 00f6 FB61     		str	r3, [r7, #28]
 2925 00f8 FB68     		ldr	r3, [r7, #12]
 2926 00fa 1B68     		ldr	r3, [r3]
 2927 00fc 9B69     		ldr	r3, [r3, #24]
ARM GAS  /tmp/cc5bMm9J.s 			page 78


 2928 00fe FB61     		str	r3, [r7, #28]
 2929 0100 FB69     		ldr	r3, [r7, #28]
 2930              	.LBE16:
 2931 0102 1DE0     		b	.L170
 2932              	.L169:
 2933              	.LBB17:
1488:Drivers/STM32F4xx_HAL_Driver/Src/stm32f4xx_hal_i2c.c ****     }
1489:Drivers/STM32F4xx_HAL_Driver/Src/stm32f4xx_hal_i2c.c ****     else
1490:Drivers/STM32F4xx_HAL_Driver/Src/stm32f4xx_hal_i2c.c ****     {
1491:Drivers/STM32F4xx_HAL_Driver/Src/stm32f4xx_hal_i2c.c ****       /* Clear ADDR flag */
1492:Drivers/STM32F4xx_HAL_Driver/Src/stm32f4xx_hal_i2c.c ****       __HAL_I2C_CLEAR_ADDRFLAG(hi2c);
 2934              		.loc 1 1492 0
 2935 0104 FB68     		ldr	r3, [r7, #12]
 2936 0106 1B68     		ldr	r3, [r3]
 2937 0108 5B69     		ldr	r3, [r3, #20]
 2938 010a BB61     		str	r3, [r7, #24]
 2939 010c FB68     		ldr	r3, [r7, #12]
 2940 010e 1B68     		ldr	r3, [r3]
 2941 0110 9B69     		ldr	r3, [r3, #24]
 2942 0112 BB61     		str	r3, [r7, #24]
 2943 0114 BB69     		ldr	r3, [r7, #24]
 2944              	.LBE17:
1493:Drivers/STM32F4xx_HAL_Driver/Src/stm32f4xx_hal_i2c.c **** 
1494:Drivers/STM32F4xx_HAL_Driver/Src/stm32f4xx_hal_i2c.c ****       /* Wait until ADDR flag is set */
1495:Drivers/STM32F4xx_HAL_Driver/Src/stm32f4xx_hal_i2c.c ****       if(I2C_WaitOnFlagUntilTimeout(hi2c, I2C_FLAG_ADDR, RESET, I2C_TIMEOUT_ADDR_SLAVE) != HAL_OK)
 2945              		.loc 1 1495 0
 2946 0116 F868     		ldr	r0, [r7, #12]
 2947 0118 1249     		ldr	r1, .L172+12
 2948 011a 0022     		movs	r2, #0
 2949 011c 42F21073 		movw	r3, #10000
 2950 0120 FFF7FEFF 		bl	I2C_WaitOnFlagUntilTimeout
 2951 0124 0346     		mov	r3, r0
 2952 0126 002B     		cmp	r3, #0
 2953 0128 01D0     		beq	.L171
1496:Drivers/STM32F4xx_HAL_Driver/Src/stm32f4xx_hal_i2c.c ****       {
1497:Drivers/STM32F4xx_HAL_Driver/Src/stm32f4xx_hal_i2c.c ****         return HAL_TIMEOUT;
 2954              		.loc 1 1497 0
 2955 012a 0323     		movs	r3, #3
 2956 012c 0FE0     		b	.L165
 2957              	.L171:
 2958              	.LBB18:
1498:Drivers/STM32F4xx_HAL_Driver/Src/stm32f4xx_hal_i2c.c ****       }
1499:Drivers/STM32F4xx_HAL_Driver/Src/stm32f4xx_hal_i2c.c **** 
1500:Drivers/STM32F4xx_HAL_Driver/Src/stm32f4xx_hal_i2c.c ****       /* Clear ADDR flag */
1501:Drivers/STM32F4xx_HAL_Driver/Src/stm32f4xx_hal_i2c.c ****       __HAL_I2C_CLEAR_ADDRFLAG(hi2c);
 2959              		.loc 1 1501 0
 2960 012e FB68     		ldr	r3, [r7, #12]
 2961 0130 1B68     		ldr	r3, [r3]
 2962 0132 5B69     		ldr	r3, [r3, #20]
 2963 0134 7B61     		str	r3, [r7, #20]
 2964 0136 FB68     		ldr	r3, [r7, #12]
 2965 0138 1B68     		ldr	r3, [r3]
 2966 013a 9B69     		ldr	r3, [r3, #24]
 2967 013c 7B61     		str	r3, [r7, #20]
 2968 013e 7B69     		ldr	r3, [r7, #20]
 2969              	.L170:
 2970              	.LBE18:
ARM GAS  /tmp/cc5bMm9J.s 			page 79


1502:Drivers/STM32F4xx_HAL_Driver/Src/stm32f4xx_hal_i2c.c ****     }
1503:Drivers/STM32F4xx_HAL_Driver/Src/stm32f4xx_hal_i2c.c **** 
1504:Drivers/STM32F4xx_HAL_Driver/Src/stm32f4xx_hal_i2c.c ****     /* Process Unlocked */
1505:Drivers/STM32F4xx_HAL_Driver/Src/stm32f4xx_hal_i2c.c ****     __HAL_UNLOCK(hi2c);
 2971              		.loc 1 1505 0
 2972 0140 FB68     		ldr	r3, [r7, #12]
 2973 0142 0022     		movs	r2, #0
 2974 0144 83F83420 		strb	r2, [r3, #52]
1506:Drivers/STM32F4xx_HAL_Driver/Src/stm32f4xx_hal_i2c.c **** 
1507:Drivers/STM32F4xx_HAL_Driver/Src/stm32f4xx_hal_i2c.c ****     return HAL_OK;
 2975              		.loc 1 1507 0
 2976 0148 0023     		movs	r3, #0
 2977 014a 00E0     		b	.L165
 2978              	.L162:
1508:Drivers/STM32F4xx_HAL_Driver/Src/stm32f4xx_hal_i2c.c ****   }
1509:Drivers/STM32F4xx_HAL_Driver/Src/stm32f4xx_hal_i2c.c ****   else
1510:Drivers/STM32F4xx_HAL_Driver/Src/stm32f4xx_hal_i2c.c ****   {
1511:Drivers/STM32F4xx_HAL_Driver/Src/stm32f4xx_hal_i2c.c ****     return HAL_BUSY;
 2979              		.loc 1 1511 0
 2980 014c 0223     		movs	r3, #2
 2981              	.L165:
1512:Drivers/STM32F4xx_HAL_Driver/Src/stm32f4xx_hal_i2c.c ****   }
1513:Drivers/STM32F4xx_HAL_Driver/Src/stm32f4xx_hal_i2c.c **** }
 2982              		.loc 1 1513 0
 2983 014e 1846     		mov	r0, r3
 2984 0150 2037     		adds	r7, r7, #32
 2985 0152 BD46     		mov	sp, r7
 2986              		@ sp needed
 2987 0154 80BD     		pop	{r7, pc}
 2988              	.L173:
 2989 0156 00BF     		.align	2
 2990              	.L172:
 2991 0158 02001000 		.word	1048578
 2992 015c 00000000 		.word	I2C_DMASlaveTransmitCplt
 2993 0160 00000000 		.word	I2C_DMAError
 2994 0164 02000100 		.word	65538
 2995              		.cfi_endproc
 2996              	.LFE139:
 2998              		.section	.text.HAL_I2C_Slave_Receive_DMA,"ax",%progbits
 2999              		.align	2
 3000              		.global	HAL_I2C_Slave_Receive_DMA
 3001              		.thumb
 3002              		.thumb_func
 3004              	HAL_I2C_Slave_Receive_DMA:
 3005              	.LFB140:
1514:Drivers/STM32F4xx_HAL_Driver/Src/stm32f4xx_hal_i2c.c **** 
1515:Drivers/STM32F4xx_HAL_Driver/Src/stm32f4xx_hal_i2c.c **** /**
1516:Drivers/STM32F4xx_HAL_Driver/Src/stm32f4xx_hal_i2c.c ****   * @brief  Receive in slave mode an amount of data in no-blocking mode with DMA
1517:Drivers/STM32F4xx_HAL_Driver/Src/stm32f4xx_hal_i2c.c ****   * @param  hi2c: pointer to a I2C_HandleTypeDef structure that contains
1518:Drivers/STM32F4xx_HAL_Driver/Src/stm32f4xx_hal_i2c.c ****   *         the configuration information for I2C module
1519:Drivers/STM32F4xx_HAL_Driver/Src/stm32f4xx_hal_i2c.c ****   * @param  pData: Pointer to data buffer
1520:Drivers/STM32F4xx_HAL_Driver/Src/stm32f4xx_hal_i2c.c ****   * @param  Size: Amount of data to be sent
1521:Drivers/STM32F4xx_HAL_Driver/Src/stm32f4xx_hal_i2c.c ****   * @retval HAL status
1522:Drivers/STM32F4xx_HAL_Driver/Src/stm32f4xx_hal_i2c.c ****   */
1523:Drivers/STM32F4xx_HAL_Driver/Src/stm32f4xx_hal_i2c.c **** HAL_StatusTypeDef HAL_I2C_Slave_Receive_DMA(I2C_HandleTypeDef *hi2c, uint8_t *pData, uint16_t Size)
1524:Drivers/STM32F4xx_HAL_Driver/Src/stm32f4xx_hal_i2c.c **** {
 3006              		.loc 1 1524 0
ARM GAS  /tmp/cc5bMm9J.s 			page 80


 3007              		.cfi_startproc
 3008              		@ args = 0, pretend = 0, frame = 24
 3009              		@ frame_needed = 1, uses_anonymous_args = 0
 3010 0000 80B5     		push	{r7, lr}
 3011              	.LCFI45:
 3012              		.cfi_def_cfa_offset 8
 3013              		.cfi_offset 7, -8
 3014              		.cfi_offset 14, -4
 3015 0002 86B0     		sub	sp, sp, #24
 3016              	.LCFI46:
 3017              		.cfi_def_cfa_offset 32
 3018 0004 00AF     		add	r7, sp, #0
 3019              	.LCFI47:
 3020              		.cfi_def_cfa_register 7
 3021 0006 F860     		str	r0, [r7, #12]
 3022 0008 B960     		str	r1, [r7, #8]
 3023 000a 1346     		mov	r3, r2
 3024 000c FB80     		strh	r3, [r7, #6]	@ movhi
1525:Drivers/STM32F4xx_HAL_Driver/Src/stm32f4xx_hal_i2c.c ****   if(hi2c->State == HAL_I2C_STATE_READY)
 3025              		.loc 1 1525 0
 3026 000e FB68     		ldr	r3, [r7, #12]
 3027 0010 93F83530 		ldrb	r3, [r3, #53]
 3028 0014 DBB2     		uxtb	r3, r3
 3029 0016 012B     		cmp	r3, #1
 3030 0018 73D1     		bne	.L175
1526:Drivers/STM32F4xx_HAL_Driver/Src/stm32f4xx_hal_i2c.c ****   {
1527:Drivers/STM32F4xx_HAL_Driver/Src/stm32f4xx_hal_i2c.c ****     if((pData == NULL) || (Size == 0))
 3031              		.loc 1 1527 0
 3032 001a BB68     		ldr	r3, [r7, #8]
 3033 001c 002B     		cmp	r3, #0
 3034 001e 02D0     		beq	.L176
 3035              		.loc 1 1527 0 is_stmt 0 discriminator 1
 3036 0020 FB88     		ldrh	r3, [r7, #6]
 3037 0022 002B     		cmp	r3, #0
 3038 0024 01D1     		bne	.L177
 3039              	.L176:
1528:Drivers/STM32F4xx_HAL_Driver/Src/stm32f4xx_hal_i2c.c ****     {
1529:Drivers/STM32F4xx_HAL_Driver/Src/stm32f4xx_hal_i2c.c ****       return  HAL_ERROR;
 3040              		.loc 1 1529 0 is_stmt 1
 3041 0026 0123     		movs	r3, #1
 3042 0028 6CE0     		b	.L178
 3043              	.L177:
1530:Drivers/STM32F4xx_HAL_Driver/Src/stm32f4xx_hal_i2c.c ****     }
1531:Drivers/STM32F4xx_HAL_Driver/Src/stm32f4xx_hal_i2c.c **** 
1532:Drivers/STM32F4xx_HAL_Driver/Src/stm32f4xx_hal_i2c.c ****     /* Wait until BUSY flag is reset */
1533:Drivers/STM32F4xx_HAL_Driver/Src/stm32f4xx_hal_i2c.c ****     if(I2C_WaitOnFlagUntilTimeout(hi2c, I2C_FLAG_BUSY, SET, I2C_TIMEOUT_BUSY_FLAG) != HAL_OK)
 3044              		.loc 1 1533 0
 3045 002a F868     		ldr	r0, [r7, #12]
 3046 002c 3749     		ldr	r1, .L182
 3047 002e 0122     		movs	r2, #1
 3048 0030 42F21073 		movw	r3, #10000
 3049 0034 FFF7FEFF 		bl	I2C_WaitOnFlagUntilTimeout
 3050 0038 0346     		mov	r3, r0
 3051 003a 002B     		cmp	r3, #0
 3052 003c 01D0     		beq	.L179
1534:Drivers/STM32F4xx_HAL_Driver/Src/stm32f4xx_hal_i2c.c ****     {
1535:Drivers/STM32F4xx_HAL_Driver/Src/stm32f4xx_hal_i2c.c ****       return HAL_BUSY;
ARM GAS  /tmp/cc5bMm9J.s 			page 81


 3053              		.loc 1 1535 0
 3054 003e 0223     		movs	r3, #2
 3055 0040 60E0     		b	.L178
 3056              	.L179:
1536:Drivers/STM32F4xx_HAL_Driver/Src/stm32f4xx_hal_i2c.c ****     }
1537:Drivers/STM32F4xx_HAL_Driver/Src/stm32f4xx_hal_i2c.c **** 
1538:Drivers/STM32F4xx_HAL_Driver/Src/stm32f4xx_hal_i2c.c ****     /* Process Locked */
1539:Drivers/STM32F4xx_HAL_Driver/Src/stm32f4xx_hal_i2c.c ****     __HAL_LOCK(hi2c);
 3057              		.loc 1 1539 0
 3058 0042 FB68     		ldr	r3, [r7, #12]
 3059 0044 93F83430 		ldrb	r3, [r3, #52]	@ zero_extendqisi2
 3060 0048 012B     		cmp	r3, #1
 3061 004a 01D1     		bne	.L180
 3062              		.loc 1 1539 0 is_stmt 0 discriminator 1
 3063 004c 0223     		movs	r3, #2
 3064 004e 59E0     		b	.L178
 3065              	.L180:
 3066              		.loc 1 1539 0 discriminator 2
 3067 0050 FB68     		ldr	r3, [r7, #12]
 3068 0052 0122     		movs	r2, #1
 3069 0054 83F83420 		strb	r2, [r3, #52]
1540:Drivers/STM32F4xx_HAL_Driver/Src/stm32f4xx_hal_i2c.c ****     
1541:Drivers/STM32F4xx_HAL_Driver/Src/stm32f4xx_hal_i2c.c ****     /* Disable Pos */
1542:Drivers/STM32F4xx_HAL_Driver/Src/stm32f4xx_hal_i2c.c ****     hi2c->Instance->CR1 &= ~I2C_CR1_POS;
 3070              		.loc 1 1542 0 is_stmt 1 discriminator 2
 3071 0058 FB68     		ldr	r3, [r7, #12]
 3072 005a 1B68     		ldr	r3, [r3]
 3073 005c FA68     		ldr	r2, [r7, #12]
 3074 005e 1268     		ldr	r2, [r2]
 3075 0060 1268     		ldr	r2, [r2]
 3076 0062 22F40062 		bic	r2, r2, #2048
 3077 0066 1A60     		str	r2, [r3]
1543:Drivers/STM32F4xx_HAL_Driver/Src/stm32f4xx_hal_i2c.c **** 
1544:Drivers/STM32F4xx_HAL_Driver/Src/stm32f4xx_hal_i2c.c ****     hi2c->State = HAL_I2C_STATE_BUSY_RX;
 3078              		.loc 1 1544 0 discriminator 2
 3079 0068 FB68     		ldr	r3, [r7, #12]
 3080 006a 2222     		movs	r2, #34
 3081 006c 83F83520 		strb	r2, [r3, #53]
1545:Drivers/STM32F4xx_HAL_Driver/Src/stm32f4xx_hal_i2c.c ****     hi2c->ErrorCode = HAL_I2C_ERROR_NONE;
 3082              		.loc 1 1545 0 discriminator 2
 3083 0070 FB68     		ldr	r3, [r7, #12]
 3084 0072 0022     		movs	r2, #0
 3085 0074 9A63     		str	r2, [r3, #56]
1546:Drivers/STM32F4xx_HAL_Driver/Src/stm32f4xx_hal_i2c.c **** 
1547:Drivers/STM32F4xx_HAL_Driver/Src/stm32f4xx_hal_i2c.c ****     hi2c->pBuffPtr = pData;
 3086              		.loc 1 1547 0 discriminator 2
 3087 0076 FB68     		ldr	r3, [r7, #12]
 3088 0078 BA68     		ldr	r2, [r7, #8]
 3089 007a 5A62     		str	r2, [r3, #36]
1548:Drivers/STM32F4xx_HAL_Driver/Src/stm32f4xx_hal_i2c.c ****     hi2c->XferSize = Size;
 3090              		.loc 1 1548 0 discriminator 2
 3091 007c FB68     		ldr	r3, [r7, #12]
 3092 007e FA88     		ldrh	r2, [r7, #6]	@ movhi
 3093 0080 1A85     		strh	r2, [r3, #40]	@ movhi
1549:Drivers/STM32F4xx_HAL_Driver/Src/stm32f4xx_hal_i2c.c ****     hi2c->XferCount = Size;
 3094              		.loc 1 1549 0 discriminator 2
 3095 0082 FB68     		ldr	r3, [r7, #12]
ARM GAS  /tmp/cc5bMm9J.s 			page 82


 3096 0084 FA88     		ldrh	r2, [r7, #6]	@ movhi
 3097 0086 5A85     		strh	r2, [r3, #42]	@ movhi
1550:Drivers/STM32F4xx_HAL_Driver/Src/stm32f4xx_hal_i2c.c **** 
1551:Drivers/STM32F4xx_HAL_Driver/Src/stm32f4xx_hal_i2c.c ****     /* Set the I2C DMA transfer complete callback */
1552:Drivers/STM32F4xx_HAL_Driver/Src/stm32f4xx_hal_i2c.c ****     hi2c->hdmarx->XferCpltCallback = I2C_DMASlaveReceiveCplt;
 3098              		.loc 1 1552 0 discriminator 2
 3099 0088 FB68     		ldr	r3, [r7, #12]
 3100 008a 1B6B     		ldr	r3, [r3, #48]
 3101 008c 204A     		ldr	r2, .L182+4
 3102 008e DA63     		str	r2, [r3, #60]
1553:Drivers/STM32F4xx_HAL_Driver/Src/stm32f4xx_hal_i2c.c **** 
1554:Drivers/STM32F4xx_HAL_Driver/Src/stm32f4xx_hal_i2c.c ****     /* Set the DMA error callback */
1555:Drivers/STM32F4xx_HAL_Driver/Src/stm32f4xx_hal_i2c.c ****     hi2c->hdmarx->XferErrorCallback = I2C_DMAError;
 3103              		.loc 1 1555 0 discriminator 2
 3104 0090 FB68     		ldr	r3, [r7, #12]
 3105 0092 1B6B     		ldr	r3, [r3, #48]
 3106 0094 1F4A     		ldr	r2, .L182+8
 3107 0096 9A64     		str	r2, [r3, #72]
1556:Drivers/STM32F4xx_HAL_Driver/Src/stm32f4xx_hal_i2c.c **** 
1557:Drivers/STM32F4xx_HAL_Driver/Src/stm32f4xx_hal_i2c.c ****     /* Enable the DMA Stream */
1558:Drivers/STM32F4xx_HAL_Driver/Src/stm32f4xx_hal_i2c.c ****     HAL_DMA_Start_IT(hi2c->hdmarx, (uint32_t)&hi2c->Instance->DR, (uint32_t)pData, Size);
 3108              		.loc 1 1558 0 discriminator 2
 3109 0098 FB68     		ldr	r3, [r7, #12]
 3110 009a 186B     		ldr	r0, [r3, #48]
 3111 009c FB68     		ldr	r3, [r7, #12]
 3112 009e 1B68     		ldr	r3, [r3]
 3113 00a0 1033     		adds	r3, r3, #16
 3114 00a2 1946     		mov	r1, r3
 3115 00a4 BA68     		ldr	r2, [r7, #8]
 3116 00a6 FB88     		ldrh	r3, [r7, #6]
 3117 00a8 FFF7FEFF 		bl	HAL_DMA_Start_IT
1559:Drivers/STM32F4xx_HAL_Driver/Src/stm32f4xx_hal_i2c.c **** 
1560:Drivers/STM32F4xx_HAL_Driver/Src/stm32f4xx_hal_i2c.c ****     /* Enable DMA Request */
1561:Drivers/STM32F4xx_HAL_Driver/Src/stm32f4xx_hal_i2c.c ****     hi2c->Instance->CR2 |= I2C_CR2_DMAEN;
 3118              		.loc 1 1561 0 discriminator 2
 3119 00ac FB68     		ldr	r3, [r7, #12]
 3120 00ae 1B68     		ldr	r3, [r3]
 3121 00b0 FA68     		ldr	r2, [r7, #12]
 3122 00b2 1268     		ldr	r2, [r2]
 3123 00b4 5268     		ldr	r2, [r2, #4]
 3124 00b6 42F40062 		orr	r2, r2, #2048
 3125 00ba 5A60     		str	r2, [r3, #4]
1562:Drivers/STM32F4xx_HAL_Driver/Src/stm32f4xx_hal_i2c.c **** 
1563:Drivers/STM32F4xx_HAL_Driver/Src/stm32f4xx_hal_i2c.c ****     /* Enable Address Acknowledge */
1564:Drivers/STM32F4xx_HAL_Driver/Src/stm32f4xx_hal_i2c.c ****     hi2c->Instance->CR1 |= I2C_CR1_ACK;
 3126              		.loc 1 1564 0 discriminator 2
 3127 00bc FB68     		ldr	r3, [r7, #12]
 3128 00be 1B68     		ldr	r3, [r3]
 3129 00c0 FA68     		ldr	r2, [r7, #12]
 3130 00c2 1268     		ldr	r2, [r2]
 3131 00c4 1268     		ldr	r2, [r2]
 3132 00c6 42F48062 		orr	r2, r2, #1024
 3133 00ca 1A60     		str	r2, [r3]
1565:Drivers/STM32F4xx_HAL_Driver/Src/stm32f4xx_hal_i2c.c **** 
1566:Drivers/STM32F4xx_HAL_Driver/Src/stm32f4xx_hal_i2c.c ****     /* Wait until ADDR flag is set */
1567:Drivers/STM32F4xx_HAL_Driver/Src/stm32f4xx_hal_i2c.c ****     if(I2C_WaitOnFlagUntilTimeout(hi2c, I2C_FLAG_ADDR, RESET, I2C_TIMEOUT_ADDR_SLAVE) != HAL_OK)
 3134              		.loc 1 1567 0 discriminator 2
ARM GAS  /tmp/cc5bMm9J.s 			page 83


 3135 00cc F868     		ldr	r0, [r7, #12]
 3136 00ce 1249     		ldr	r1, .L182+12
 3137 00d0 0022     		movs	r2, #0
 3138 00d2 42F21073 		movw	r3, #10000
 3139 00d6 FFF7FEFF 		bl	I2C_WaitOnFlagUntilTimeout
 3140 00da 0346     		mov	r3, r0
 3141 00dc 002B     		cmp	r3, #0
 3142 00de 01D0     		beq	.L181
1568:Drivers/STM32F4xx_HAL_Driver/Src/stm32f4xx_hal_i2c.c ****     {
1569:Drivers/STM32F4xx_HAL_Driver/Src/stm32f4xx_hal_i2c.c ****       return HAL_TIMEOUT;
 3143              		.loc 1 1569 0
 3144 00e0 0323     		movs	r3, #3
 3145 00e2 0FE0     		b	.L178
 3146              	.L181:
 3147              	.LBB19:
1570:Drivers/STM32F4xx_HAL_Driver/Src/stm32f4xx_hal_i2c.c ****     }
1571:Drivers/STM32F4xx_HAL_Driver/Src/stm32f4xx_hal_i2c.c **** 
1572:Drivers/STM32F4xx_HAL_Driver/Src/stm32f4xx_hal_i2c.c ****     /* Clear ADDR flag */
1573:Drivers/STM32F4xx_HAL_Driver/Src/stm32f4xx_hal_i2c.c ****     __HAL_I2C_CLEAR_ADDRFLAG(hi2c);
 3148              		.loc 1 1573 0
 3149 00e4 FB68     		ldr	r3, [r7, #12]
 3150 00e6 1B68     		ldr	r3, [r3]
 3151 00e8 5B69     		ldr	r3, [r3, #20]
 3152 00ea 7B61     		str	r3, [r7, #20]
 3153 00ec FB68     		ldr	r3, [r7, #12]
 3154 00ee 1B68     		ldr	r3, [r3]
 3155 00f0 9B69     		ldr	r3, [r3, #24]
 3156 00f2 7B61     		str	r3, [r7, #20]
 3157 00f4 7B69     		ldr	r3, [r7, #20]
 3158              	.LBE19:
1574:Drivers/STM32F4xx_HAL_Driver/Src/stm32f4xx_hal_i2c.c **** 
1575:Drivers/STM32F4xx_HAL_Driver/Src/stm32f4xx_hal_i2c.c ****     /* Process Unlocked */
1576:Drivers/STM32F4xx_HAL_Driver/Src/stm32f4xx_hal_i2c.c ****     __HAL_UNLOCK(hi2c);
 3159              		.loc 1 1576 0
 3160 00f6 FB68     		ldr	r3, [r7, #12]
 3161 00f8 0022     		movs	r2, #0
 3162 00fa 83F83420 		strb	r2, [r3, #52]
1577:Drivers/STM32F4xx_HAL_Driver/Src/stm32f4xx_hal_i2c.c **** 
1578:Drivers/STM32F4xx_HAL_Driver/Src/stm32f4xx_hal_i2c.c ****     return HAL_OK;
 3163              		.loc 1 1578 0
 3164 00fe 0023     		movs	r3, #0
 3165 0100 00E0     		b	.L178
 3166              	.L175:
1579:Drivers/STM32F4xx_HAL_Driver/Src/stm32f4xx_hal_i2c.c ****   }
1580:Drivers/STM32F4xx_HAL_Driver/Src/stm32f4xx_hal_i2c.c ****   else
1581:Drivers/STM32F4xx_HAL_Driver/Src/stm32f4xx_hal_i2c.c ****   {
1582:Drivers/STM32F4xx_HAL_Driver/Src/stm32f4xx_hal_i2c.c ****     return HAL_BUSY;
 3167              		.loc 1 1582 0
 3168 0102 0223     		movs	r3, #2
 3169              	.L178:
1583:Drivers/STM32F4xx_HAL_Driver/Src/stm32f4xx_hal_i2c.c ****   }
1584:Drivers/STM32F4xx_HAL_Driver/Src/stm32f4xx_hal_i2c.c **** }
 3170              		.loc 1 1584 0
 3171 0104 1846     		mov	r0, r3
 3172 0106 1837     		adds	r7, r7, #24
 3173 0108 BD46     		mov	sp, r7
 3174              		@ sp needed
ARM GAS  /tmp/cc5bMm9J.s 			page 84


 3175 010a 80BD     		pop	{r7, pc}
 3176              	.L183:
 3177              		.align	2
 3178              	.L182:
 3179 010c 02001000 		.word	1048578
 3180 0110 00000000 		.word	I2C_DMASlaveReceiveCplt
 3181 0114 00000000 		.word	I2C_DMAError
 3182 0118 02000100 		.word	65538
 3183              		.cfi_endproc
 3184              	.LFE140:
 3186              		.section	.text.HAL_I2C_Mem_Write,"ax",%progbits
 3187              		.align	2
 3188              		.global	HAL_I2C_Mem_Write
 3189              		.thumb
 3190              		.thumb_func
 3192              	HAL_I2C_Mem_Write:
 3193              	.LFB141:
1585:Drivers/STM32F4xx_HAL_Driver/Src/stm32f4xx_hal_i2c.c **** /**
1586:Drivers/STM32F4xx_HAL_Driver/Src/stm32f4xx_hal_i2c.c ****   * @brief  Write an amount of data in blocking mode to a specific memory address
1587:Drivers/STM32F4xx_HAL_Driver/Src/stm32f4xx_hal_i2c.c ****   * @param  hi2c: pointer to a I2C_HandleTypeDef structure that contains
1588:Drivers/STM32F4xx_HAL_Driver/Src/stm32f4xx_hal_i2c.c ****   *         the configuration information for I2C module
1589:Drivers/STM32F4xx_HAL_Driver/Src/stm32f4xx_hal_i2c.c ****   * @param  DevAddress: Target device address
1590:Drivers/STM32F4xx_HAL_Driver/Src/stm32f4xx_hal_i2c.c ****   * @param  MemAddress: Internal memory address
1591:Drivers/STM32F4xx_HAL_Driver/Src/stm32f4xx_hal_i2c.c ****   * @param  MemAddSize: Size of internal memory address
1592:Drivers/STM32F4xx_HAL_Driver/Src/stm32f4xx_hal_i2c.c ****   * @param  pData: Pointer to data buffer
1593:Drivers/STM32F4xx_HAL_Driver/Src/stm32f4xx_hal_i2c.c ****   * @param  Size: Amount of data to be sent
1594:Drivers/STM32F4xx_HAL_Driver/Src/stm32f4xx_hal_i2c.c ****   * @param  Timeout: Timeout duration
1595:Drivers/STM32F4xx_HAL_Driver/Src/stm32f4xx_hal_i2c.c ****   * @retval HAL status
1596:Drivers/STM32F4xx_HAL_Driver/Src/stm32f4xx_hal_i2c.c ****   */
1597:Drivers/STM32F4xx_HAL_Driver/Src/stm32f4xx_hal_i2c.c **** HAL_StatusTypeDef HAL_I2C_Mem_Write(I2C_HandleTypeDef *hi2c, uint16_t DevAddress, uint16_t MemAddre
1598:Drivers/STM32F4xx_HAL_Driver/Src/stm32f4xx_hal_i2c.c **** {
 3194              		.loc 1 1598 0
 3195              		.cfi_startproc
 3196              		@ args = 12, pretend = 0, frame = 16
 3197              		@ frame_needed = 1, uses_anonymous_args = 0
 3198 0000 80B5     		push	{r7, lr}
 3199              	.LCFI48:
 3200              		.cfi_def_cfa_offset 8
 3201              		.cfi_offset 7, -8
 3202              		.cfi_offset 14, -4
 3203 0002 86B0     		sub	sp, sp, #24
 3204              	.LCFI49:
 3205              		.cfi_def_cfa_offset 32
 3206 0004 02AF     		add	r7, sp, #8
 3207              	.LCFI50:
 3208              		.cfi_def_cfa 7, 24
 3209 0006 F860     		str	r0, [r7, #12]
 3210 0008 7981     		strh	r1, [r7, #10]	@ movhi
 3211 000a 3A81     		strh	r2, [r7, #8]	@ movhi
 3212 000c FB80     		strh	r3, [r7, #6]	@ movhi
1599:Drivers/STM32F4xx_HAL_Driver/Src/stm32f4xx_hal_i2c.c ****   /* Check the parameters */
1600:Drivers/STM32F4xx_HAL_Driver/Src/stm32f4xx_hal_i2c.c ****   assert_param(IS_I2C_MEMADD_SIZE(MemAddSize));
1601:Drivers/STM32F4xx_HAL_Driver/Src/stm32f4xx_hal_i2c.c **** 
1602:Drivers/STM32F4xx_HAL_Driver/Src/stm32f4xx_hal_i2c.c ****   if(hi2c->State == HAL_I2C_STATE_READY)
 3213              		.loc 1 1602 0
 3214 000e FB68     		ldr	r3, [r7, #12]
 3215 0010 93F83530 		ldrb	r3, [r3, #53]
ARM GAS  /tmp/cc5bMm9J.s 			page 85


 3216 0014 DBB2     		uxtb	r3, r3
 3217 0016 012B     		cmp	r3, #1
 3218 0018 40F09380 		bne	.L185
1603:Drivers/STM32F4xx_HAL_Driver/Src/stm32f4xx_hal_i2c.c ****   {
1604:Drivers/STM32F4xx_HAL_Driver/Src/stm32f4xx_hal_i2c.c ****     if((pData == NULL) || (Size == 0))
 3219              		.loc 1 1604 0
 3220 001c BB69     		ldr	r3, [r7, #24]
 3221 001e 002B     		cmp	r3, #0
 3222 0020 02D0     		beq	.L186
 3223              		.loc 1 1604 0 is_stmt 0 discriminator 1
 3224 0022 BB8B     		ldrh	r3, [r7, #28]
 3225 0024 002B     		cmp	r3, #0
 3226 0026 01D1     		bne	.L187
 3227              	.L186:
1605:Drivers/STM32F4xx_HAL_Driver/Src/stm32f4xx_hal_i2c.c ****     {
1606:Drivers/STM32F4xx_HAL_Driver/Src/stm32f4xx_hal_i2c.c ****       return  HAL_ERROR;
 3228              		.loc 1 1606 0 is_stmt 1
 3229 0028 0123     		movs	r3, #1
 3230 002a 8BE0     		b	.L188
 3231              	.L187:
1607:Drivers/STM32F4xx_HAL_Driver/Src/stm32f4xx_hal_i2c.c ****     }
1608:Drivers/STM32F4xx_HAL_Driver/Src/stm32f4xx_hal_i2c.c **** 
1609:Drivers/STM32F4xx_HAL_Driver/Src/stm32f4xx_hal_i2c.c ****     /* Wait until BUSY flag is reset */
1610:Drivers/STM32F4xx_HAL_Driver/Src/stm32f4xx_hal_i2c.c ****     if(I2C_WaitOnFlagUntilTimeout(hi2c, I2C_FLAG_BUSY, SET, I2C_TIMEOUT_BUSY_FLAG) != HAL_OK)
 3232              		.loc 1 1610 0
 3233 002c F868     		ldr	r0, [r7, #12]
 3234 002e 4749     		ldr	r1, .L197
 3235 0030 0122     		movs	r2, #1
 3236 0032 42F21073 		movw	r3, #10000
 3237 0036 FFF7FEFF 		bl	I2C_WaitOnFlagUntilTimeout
 3238 003a 0346     		mov	r3, r0
 3239 003c 002B     		cmp	r3, #0
 3240 003e 01D0     		beq	.L189
1611:Drivers/STM32F4xx_HAL_Driver/Src/stm32f4xx_hal_i2c.c ****     {
1612:Drivers/STM32F4xx_HAL_Driver/Src/stm32f4xx_hal_i2c.c ****       return HAL_BUSY;
 3241              		.loc 1 1612 0
 3242 0040 0223     		movs	r3, #2
 3243 0042 7FE0     		b	.L188
 3244              	.L189:
1613:Drivers/STM32F4xx_HAL_Driver/Src/stm32f4xx_hal_i2c.c ****     }
1614:Drivers/STM32F4xx_HAL_Driver/Src/stm32f4xx_hal_i2c.c **** 
1615:Drivers/STM32F4xx_HAL_Driver/Src/stm32f4xx_hal_i2c.c ****     /* Process Locked */
1616:Drivers/STM32F4xx_HAL_Driver/Src/stm32f4xx_hal_i2c.c ****     __HAL_LOCK(hi2c);
 3245              		.loc 1 1616 0
 3246 0044 FB68     		ldr	r3, [r7, #12]
 3247 0046 93F83430 		ldrb	r3, [r3, #52]	@ zero_extendqisi2
 3248 004a 012B     		cmp	r3, #1
 3249 004c 01D1     		bne	.L190
 3250              		.loc 1 1616 0 is_stmt 0 discriminator 1
 3251 004e 0223     		movs	r3, #2
 3252 0050 78E0     		b	.L188
 3253              	.L190:
 3254              		.loc 1 1616 0 discriminator 2
 3255 0052 FB68     		ldr	r3, [r7, #12]
 3256 0054 0122     		movs	r2, #1
 3257 0056 83F83420 		strb	r2, [r3, #52]
1617:Drivers/STM32F4xx_HAL_Driver/Src/stm32f4xx_hal_i2c.c ****     
ARM GAS  /tmp/cc5bMm9J.s 			page 86


1618:Drivers/STM32F4xx_HAL_Driver/Src/stm32f4xx_hal_i2c.c ****     /* Disable Pos */
1619:Drivers/STM32F4xx_HAL_Driver/Src/stm32f4xx_hal_i2c.c ****     hi2c->Instance->CR1 &= ~I2C_CR1_POS;
 3258              		.loc 1 1619 0 is_stmt 1 discriminator 2
 3259 005a FB68     		ldr	r3, [r7, #12]
 3260 005c 1B68     		ldr	r3, [r3]
 3261 005e FA68     		ldr	r2, [r7, #12]
 3262 0060 1268     		ldr	r2, [r2]
 3263 0062 1268     		ldr	r2, [r2]
 3264 0064 22F40062 		bic	r2, r2, #2048
 3265 0068 1A60     		str	r2, [r3]
1620:Drivers/STM32F4xx_HAL_Driver/Src/stm32f4xx_hal_i2c.c **** 
1621:Drivers/STM32F4xx_HAL_Driver/Src/stm32f4xx_hal_i2c.c ****     hi2c->State = HAL_I2C_STATE_MEM_BUSY_TX;
 3266              		.loc 1 1621 0 discriminator 2
 3267 006a FB68     		ldr	r3, [r7, #12]
 3268 006c 3222     		movs	r2, #50
 3269 006e 83F83520 		strb	r2, [r3, #53]
1622:Drivers/STM32F4xx_HAL_Driver/Src/stm32f4xx_hal_i2c.c ****     hi2c->ErrorCode = HAL_I2C_ERROR_NONE;
 3270              		.loc 1 1622 0 discriminator 2
 3271 0072 FB68     		ldr	r3, [r7, #12]
 3272 0074 0022     		movs	r2, #0
 3273 0076 9A63     		str	r2, [r3, #56]
1623:Drivers/STM32F4xx_HAL_Driver/Src/stm32f4xx_hal_i2c.c **** 
1624:Drivers/STM32F4xx_HAL_Driver/Src/stm32f4xx_hal_i2c.c ****     /* Send Slave Address and Memory Address */
1625:Drivers/STM32F4xx_HAL_Driver/Src/stm32f4xx_hal_i2c.c ****     if(I2C_RequestMemoryWrite(hi2c, DevAddress, MemAddress, MemAddSize, Timeout) != HAL_OK)
 3274              		.loc 1 1625 0 discriminator 2
 3275 0078 7989     		ldrh	r1, [r7, #10]
 3276 007a 3A89     		ldrh	r2, [r7, #8]
 3277 007c FB88     		ldrh	r3, [r7, #6]
 3278 007e 386A     		ldr	r0, [r7, #32]
 3279 0080 0090     		str	r0, [sp]
 3280 0082 F868     		ldr	r0, [r7, #12]
 3281 0084 FFF7FEFF 		bl	I2C_RequestMemoryWrite
 3282 0088 0346     		mov	r3, r0
 3283 008a 002B     		cmp	r3, #0
 3284 008c 0FD0     		beq	.L191
1626:Drivers/STM32F4xx_HAL_Driver/Src/stm32f4xx_hal_i2c.c ****     {
1627:Drivers/STM32F4xx_HAL_Driver/Src/stm32f4xx_hal_i2c.c ****       if(hi2c->ErrorCode == HAL_I2C_ERROR_AF)
 3285              		.loc 1 1627 0
 3286 008e FB68     		ldr	r3, [r7, #12]
 3287 0090 9B6B     		ldr	r3, [r3, #56]
 3288 0092 042B     		cmp	r3, #4
 3289 0094 05D1     		bne	.L192
1628:Drivers/STM32F4xx_HAL_Driver/Src/stm32f4xx_hal_i2c.c ****       {
1629:Drivers/STM32F4xx_HAL_Driver/Src/stm32f4xx_hal_i2c.c ****         /* Process Unlocked */
1630:Drivers/STM32F4xx_HAL_Driver/Src/stm32f4xx_hal_i2c.c ****         __HAL_UNLOCK(hi2c);
 3290              		.loc 1 1630 0
 3291 0096 FB68     		ldr	r3, [r7, #12]
 3292 0098 0022     		movs	r2, #0
 3293 009a 83F83420 		strb	r2, [r3, #52]
1631:Drivers/STM32F4xx_HAL_Driver/Src/stm32f4xx_hal_i2c.c ****         return HAL_ERROR;
 3294              		.loc 1 1631 0
 3295 009e 0123     		movs	r3, #1
 3296 00a0 50E0     		b	.L188
 3297              	.L192:
1632:Drivers/STM32F4xx_HAL_Driver/Src/stm32f4xx_hal_i2c.c ****       }
1633:Drivers/STM32F4xx_HAL_Driver/Src/stm32f4xx_hal_i2c.c ****       else
1634:Drivers/STM32F4xx_HAL_Driver/Src/stm32f4xx_hal_i2c.c ****       {
ARM GAS  /tmp/cc5bMm9J.s 			page 87


1635:Drivers/STM32F4xx_HAL_Driver/Src/stm32f4xx_hal_i2c.c ****         /* Process Unlocked */
1636:Drivers/STM32F4xx_HAL_Driver/Src/stm32f4xx_hal_i2c.c ****         __HAL_UNLOCK(hi2c);
 3298              		.loc 1 1636 0
 3299 00a2 FB68     		ldr	r3, [r7, #12]
 3300 00a4 0022     		movs	r2, #0
 3301 00a6 83F83420 		strb	r2, [r3, #52]
1637:Drivers/STM32F4xx_HAL_Driver/Src/stm32f4xx_hal_i2c.c ****         return HAL_TIMEOUT;
 3302              		.loc 1 1637 0
 3303 00aa 0323     		movs	r3, #3
 3304 00ac 4AE0     		b	.L188
 3305              	.L191:
1638:Drivers/STM32F4xx_HAL_Driver/Src/stm32f4xx_hal_i2c.c ****       }
1639:Drivers/STM32F4xx_HAL_Driver/Src/stm32f4xx_hal_i2c.c ****     }
1640:Drivers/STM32F4xx_HAL_Driver/Src/stm32f4xx_hal_i2c.c **** 
1641:Drivers/STM32F4xx_HAL_Driver/Src/stm32f4xx_hal_i2c.c ****     while(Size > 0)
 3306              		.loc 1 1641 0
 3307 00ae 28E0     		b	.L193
 3308              	.L195:
1642:Drivers/STM32F4xx_HAL_Driver/Src/stm32f4xx_hal_i2c.c ****     {
1643:Drivers/STM32F4xx_HAL_Driver/Src/stm32f4xx_hal_i2c.c ****       /* Wait until TXE flag is set */
1644:Drivers/STM32F4xx_HAL_Driver/Src/stm32f4xx_hal_i2c.c ****       if(I2C_WaitOnFlagUntilTimeout(hi2c, I2C_FLAG_TXE, RESET, Timeout) != HAL_OK)
 3309              		.loc 1 1644 0
 3310 00b0 F868     		ldr	r0, [r7, #12]
 3311 00b2 2749     		ldr	r1, .L197+4
 3312 00b4 0022     		movs	r2, #0
 3313 00b6 3B6A     		ldr	r3, [r7, #32]
 3314 00b8 FFF7FEFF 		bl	I2C_WaitOnFlagUntilTimeout
 3315 00bc 0346     		mov	r3, r0
 3316 00be 002B     		cmp	r3, #0
 3317 00c0 01D0     		beq	.L194
1645:Drivers/STM32F4xx_HAL_Driver/Src/stm32f4xx_hal_i2c.c ****       {
1646:Drivers/STM32F4xx_HAL_Driver/Src/stm32f4xx_hal_i2c.c ****         return HAL_TIMEOUT;
 3318              		.loc 1 1646 0
 3319 00c2 0323     		movs	r3, #3
 3320 00c4 3EE0     		b	.L188
 3321              	.L194:
1647:Drivers/STM32F4xx_HAL_Driver/Src/stm32f4xx_hal_i2c.c ****       }
1648:Drivers/STM32F4xx_HAL_Driver/Src/stm32f4xx_hal_i2c.c **** 
1649:Drivers/STM32F4xx_HAL_Driver/Src/stm32f4xx_hal_i2c.c ****       /* Write data to DR */
1650:Drivers/STM32F4xx_HAL_Driver/Src/stm32f4xx_hal_i2c.c ****       hi2c->Instance->DR = (*pData++);
 3322              		.loc 1 1650 0
 3323 00c6 FB68     		ldr	r3, [r7, #12]
 3324 00c8 1A68     		ldr	r2, [r3]
 3325 00ca BB69     		ldr	r3, [r7, #24]
 3326 00cc 591C     		adds	r1, r3, #1
 3327 00ce B961     		str	r1, [r7, #24]
 3328 00d0 1B78     		ldrb	r3, [r3]	@ zero_extendqisi2
 3329 00d2 1361     		str	r3, [r2, #16]
1651:Drivers/STM32F4xx_HAL_Driver/Src/stm32f4xx_hal_i2c.c ****       Size--;
 3330              		.loc 1 1651 0
 3331 00d4 BB8B     		ldrh	r3, [r7, #28]
 3332 00d6 013B     		subs	r3, r3, #1
 3333 00d8 BB83     		strh	r3, [r7, #28]	@ movhi
1652:Drivers/STM32F4xx_HAL_Driver/Src/stm32f4xx_hal_i2c.c **** 
1653:Drivers/STM32F4xx_HAL_Driver/Src/stm32f4xx_hal_i2c.c ****       if((__HAL_I2C_GET_FLAG(hi2c, I2C_FLAG_BTF) == SET) && (Size != 0))
 3334              		.loc 1 1653 0
 3335 00da FB68     		ldr	r3, [r7, #12]
ARM GAS  /tmp/cc5bMm9J.s 			page 88


 3336 00dc 1B68     		ldr	r3, [r3]
 3337 00de 5B69     		ldr	r3, [r3, #20]
 3338 00e0 03F00403 		and	r3, r3, #4
 3339 00e4 002B     		cmp	r3, #0
 3340 00e6 0CD0     		beq	.L193
 3341              		.loc 1 1653 0 is_stmt 0 discriminator 1
 3342 00e8 BB8B     		ldrh	r3, [r7, #28]
 3343 00ea 002B     		cmp	r3, #0
 3344 00ec 09D0     		beq	.L193
1654:Drivers/STM32F4xx_HAL_Driver/Src/stm32f4xx_hal_i2c.c ****       {
1655:Drivers/STM32F4xx_HAL_Driver/Src/stm32f4xx_hal_i2c.c ****         /* Write data to DR */
1656:Drivers/STM32F4xx_HAL_Driver/Src/stm32f4xx_hal_i2c.c ****         hi2c->Instance->DR = (*pData++);
 3345              		.loc 1 1656 0 is_stmt 1
 3346 00ee FB68     		ldr	r3, [r7, #12]
 3347 00f0 1A68     		ldr	r2, [r3]
 3348 00f2 BB69     		ldr	r3, [r7, #24]
 3349 00f4 591C     		adds	r1, r3, #1
 3350 00f6 B961     		str	r1, [r7, #24]
 3351 00f8 1B78     		ldrb	r3, [r3]	@ zero_extendqisi2
 3352 00fa 1361     		str	r3, [r2, #16]
1657:Drivers/STM32F4xx_HAL_Driver/Src/stm32f4xx_hal_i2c.c ****         Size--;
 3353              		.loc 1 1657 0
 3354 00fc BB8B     		ldrh	r3, [r7, #28]
 3355 00fe 013B     		subs	r3, r3, #1
 3356 0100 BB83     		strh	r3, [r7, #28]	@ movhi
 3357              	.L193:
1641:Drivers/STM32F4xx_HAL_Driver/Src/stm32f4xx_hal_i2c.c ****     {
 3358              		.loc 1 1641 0 discriminator 1
 3359 0102 BB8B     		ldrh	r3, [r7, #28]
 3360 0104 002B     		cmp	r3, #0
 3361 0106 D3D1     		bne	.L195
1658:Drivers/STM32F4xx_HAL_Driver/Src/stm32f4xx_hal_i2c.c ****       }
1659:Drivers/STM32F4xx_HAL_Driver/Src/stm32f4xx_hal_i2c.c ****     }
1660:Drivers/STM32F4xx_HAL_Driver/Src/stm32f4xx_hal_i2c.c **** 
1661:Drivers/STM32F4xx_HAL_Driver/Src/stm32f4xx_hal_i2c.c ****     /* Wait until TXE flag is set */
1662:Drivers/STM32F4xx_HAL_Driver/Src/stm32f4xx_hal_i2c.c ****     if(I2C_WaitOnFlagUntilTimeout(hi2c, I2C_FLAG_TXE, RESET, Timeout) != HAL_OK)
 3362              		.loc 1 1662 0
 3363 0108 F868     		ldr	r0, [r7, #12]
 3364 010a 1149     		ldr	r1, .L197+4
 3365 010c 0022     		movs	r2, #0
 3366 010e 3B6A     		ldr	r3, [r7, #32]
 3367 0110 FFF7FEFF 		bl	I2C_WaitOnFlagUntilTimeout
 3368 0114 0346     		mov	r3, r0
 3369 0116 002B     		cmp	r3, #0
 3370 0118 01D0     		beq	.L196
1663:Drivers/STM32F4xx_HAL_Driver/Src/stm32f4xx_hal_i2c.c ****     {
1664:Drivers/STM32F4xx_HAL_Driver/Src/stm32f4xx_hal_i2c.c ****       return HAL_TIMEOUT;
 3371              		.loc 1 1664 0
 3372 011a 0323     		movs	r3, #3
 3373 011c 12E0     		b	.L188
 3374              	.L196:
1665:Drivers/STM32F4xx_HAL_Driver/Src/stm32f4xx_hal_i2c.c ****     }
1666:Drivers/STM32F4xx_HAL_Driver/Src/stm32f4xx_hal_i2c.c **** 
1667:Drivers/STM32F4xx_HAL_Driver/Src/stm32f4xx_hal_i2c.c ****     /* Generate Stop */
1668:Drivers/STM32F4xx_HAL_Driver/Src/stm32f4xx_hal_i2c.c ****     hi2c->Instance->CR1 |= I2C_CR1_STOP;
 3375              		.loc 1 1668 0
 3376 011e FB68     		ldr	r3, [r7, #12]
ARM GAS  /tmp/cc5bMm9J.s 			page 89


 3377 0120 1B68     		ldr	r3, [r3]
 3378 0122 FA68     		ldr	r2, [r7, #12]
 3379 0124 1268     		ldr	r2, [r2]
 3380 0126 1268     		ldr	r2, [r2]
 3381 0128 42F40072 		orr	r2, r2, #512
 3382 012c 1A60     		str	r2, [r3]
1669:Drivers/STM32F4xx_HAL_Driver/Src/stm32f4xx_hal_i2c.c **** 
1670:Drivers/STM32F4xx_HAL_Driver/Src/stm32f4xx_hal_i2c.c ****     hi2c->State = HAL_I2C_STATE_READY;
 3383              		.loc 1 1670 0
 3384 012e FB68     		ldr	r3, [r7, #12]
 3385 0130 0122     		movs	r2, #1
 3386 0132 83F83520 		strb	r2, [r3, #53]
1671:Drivers/STM32F4xx_HAL_Driver/Src/stm32f4xx_hal_i2c.c **** 
1672:Drivers/STM32F4xx_HAL_Driver/Src/stm32f4xx_hal_i2c.c ****     /* Process Unlocked */
1673:Drivers/STM32F4xx_HAL_Driver/Src/stm32f4xx_hal_i2c.c ****     __HAL_UNLOCK(hi2c);
 3387              		.loc 1 1673 0
 3388 0136 FB68     		ldr	r3, [r7, #12]
 3389 0138 0022     		movs	r2, #0
 3390 013a 83F83420 		strb	r2, [r3, #52]
1674:Drivers/STM32F4xx_HAL_Driver/Src/stm32f4xx_hal_i2c.c **** 
1675:Drivers/STM32F4xx_HAL_Driver/Src/stm32f4xx_hal_i2c.c ****     return HAL_OK;
 3391              		.loc 1 1675 0
 3392 013e 0023     		movs	r3, #0
 3393 0140 00E0     		b	.L188
 3394              	.L185:
1676:Drivers/STM32F4xx_HAL_Driver/Src/stm32f4xx_hal_i2c.c ****   }
1677:Drivers/STM32F4xx_HAL_Driver/Src/stm32f4xx_hal_i2c.c ****   else
1678:Drivers/STM32F4xx_HAL_Driver/Src/stm32f4xx_hal_i2c.c ****   {
1679:Drivers/STM32F4xx_HAL_Driver/Src/stm32f4xx_hal_i2c.c ****     return HAL_BUSY;
 3395              		.loc 1 1679 0
 3396 0142 0223     		movs	r3, #2
 3397              	.L188:
1680:Drivers/STM32F4xx_HAL_Driver/Src/stm32f4xx_hal_i2c.c ****   }
1681:Drivers/STM32F4xx_HAL_Driver/Src/stm32f4xx_hal_i2c.c **** }
 3398              		.loc 1 1681 0
 3399 0144 1846     		mov	r0, r3
 3400 0146 1037     		adds	r7, r7, #16
 3401 0148 BD46     		mov	sp, r7
 3402              		@ sp needed
 3403 014a 80BD     		pop	{r7, pc}
 3404              	.L198:
 3405              		.align	2
 3406              	.L197:
 3407 014c 02001000 		.word	1048578
 3408 0150 80000100 		.word	65664
 3409              		.cfi_endproc
 3410              	.LFE141:
 3412              		.section	.text.HAL_I2C_Mem_Read,"ax",%progbits
 3413              		.align	2
 3414              		.global	HAL_I2C_Mem_Read
 3415              		.thumb
 3416              		.thumb_func
 3418              	HAL_I2C_Mem_Read:
 3419              	.LFB142:
1682:Drivers/STM32F4xx_HAL_Driver/Src/stm32f4xx_hal_i2c.c **** 
1683:Drivers/STM32F4xx_HAL_Driver/Src/stm32f4xx_hal_i2c.c **** /**
1684:Drivers/STM32F4xx_HAL_Driver/Src/stm32f4xx_hal_i2c.c ****   * @brief  Read an amount of data in blocking mode from a specific memory address
ARM GAS  /tmp/cc5bMm9J.s 			page 90


1685:Drivers/STM32F4xx_HAL_Driver/Src/stm32f4xx_hal_i2c.c ****   * @param  hi2c: pointer to a I2C_HandleTypeDef structure that contains
1686:Drivers/STM32F4xx_HAL_Driver/Src/stm32f4xx_hal_i2c.c ****   *         the configuration information for I2C module
1687:Drivers/STM32F4xx_HAL_Driver/Src/stm32f4xx_hal_i2c.c ****   * @param  DevAddress: Target device address
1688:Drivers/STM32F4xx_HAL_Driver/Src/stm32f4xx_hal_i2c.c ****   * @param  MemAddress: Internal memory address
1689:Drivers/STM32F4xx_HAL_Driver/Src/stm32f4xx_hal_i2c.c ****   * @param  MemAddSize: Size of internal memory address
1690:Drivers/STM32F4xx_HAL_Driver/Src/stm32f4xx_hal_i2c.c ****   * @param  pData: Pointer to data buffer
1691:Drivers/STM32F4xx_HAL_Driver/Src/stm32f4xx_hal_i2c.c ****   * @param  Size: Amount of data to be sent
1692:Drivers/STM32F4xx_HAL_Driver/Src/stm32f4xx_hal_i2c.c ****   * @param  Timeout: Timeout duration
1693:Drivers/STM32F4xx_HAL_Driver/Src/stm32f4xx_hal_i2c.c ****   * @retval HAL status
1694:Drivers/STM32F4xx_HAL_Driver/Src/stm32f4xx_hal_i2c.c ****   */
1695:Drivers/STM32F4xx_HAL_Driver/Src/stm32f4xx_hal_i2c.c **** HAL_StatusTypeDef HAL_I2C_Mem_Read(I2C_HandleTypeDef *hi2c, uint16_t DevAddress, uint16_t MemAddres
1696:Drivers/STM32F4xx_HAL_Driver/Src/stm32f4xx_hal_i2c.c **** {
 3420              		.loc 1 1696 0
 3421              		.cfi_startproc
 3422              		@ args = 12, pretend = 0, frame = 32
 3423              		@ frame_needed = 1, uses_anonymous_args = 0
 3424 0000 80B5     		push	{r7, lr}
 3425              	.LCFI51:
 3426              		.cfi_def_cfa_offset 8
 3427              		.cfi_offset 7, -8
 3428              		.cfi_offset 14, -4
 3429 0002 8AB0     		sub	sp, sp, #40
 3430              	.LCFI52:
 3431              		.cfi_def_cfa_offset 48
 3432 0004 02AF     		add	r7, sp, #8
 3433              	.LCFI53:
 3434              		.cfi_def_cfa 7, 40
 3435 0006 F860     		str	r0, [r7, #12]
 3436 0008 7981     		strh	r1, [r7, #10]	@ movhi
 3437 000a 3A81     		strh	r2, [r7, #8]	@ movhi
 3438 000c FB80     		strh	r3, [r7, #6]	@ movhi
1697:Drivers/STM32F4xx_HAL_Driver/Src/stm32f4xx_hal_i2c.c ****   /* Check the parameters */
1698:Drivers/STM32F4xx_HAL_Driver/Src/stm32f4xx_hal_i2c.c ****   assert_param(IS_I2C_MEMADD_SIZE(MemAddSize));
1699:Drivers/STM32F4xx_HAL_Driver/Src/stm32f4xx_hal_i2c.c **** 
1700:Drivers/STM32F4xx_HAL_Driver/Src/stm32f4xx_hal_i2c.c ****   if(hi2c->State == HAL_I2C_STATE_READY)
 3439              		.loc 1 1700 0
 3440 000e FB68     		ldr	r3, [r7, #12]
 3441 0010 93F83530 		ldrb	r3, [r3, #53]
 3442 0014 DBB2     		uxtb	r3, r3
 3443 0016 012B     		cmp	r3, #1
 3444 0018 40F05D81 		bne	.L200
1701:Drivers/STM32F4xx_HAL_Driver/Src/stm32f4xx_hal_i2c.c ****   {
1702:Drivers/STM32F4xx_HAL_Driver/Src/stm32f4xx_hal_i2c.c ****     if((pData == NULL) || (Size == 0))
 3445              		.loc 1 1702 0
 3446 001c BB6A     		ldr	r3, [r7, #40]
 3447 001e 002B     		cmp	r3, #0
 3448 0020 02D0     		beq	.L201
 3449              		.loc 1 1702 0 is_stmt 0 discriminator 1
 3450 0022 BB8D     		ldrh	r3, [r7, #44]
 3451 0024 002B     		cmp	r3, #0
 3452 0026 01D1     		bne	.L202
 3453              	.L201:
1703:Drivers/STM32F4xx_HAL_Driver/Src/stm32f4xx_hal_i2c.c ****     {
1704:Drivers/STM32F4xx_HAL_Driver/Src/stm32f4xx_hal_i2c.c ****       return  HAL_ERROR;
 3454              		.loc 1 1704 0 is_stmt 1
 3455 0028 0123     		movs	r3, #1
 3456 002a 55E1     		b	.L203
ARM GAS  /tmp/cc5bMm9J.s 			page 91


 3457              	.L202:
1705:Drivers/STM32F4xx_HAL_Driver/Src/stm32f4xx_hal_i2c.c ****     }
1706:Drivers/STM32F4xx_HAL_Driver/Src/stm32f4xx_hal_i2c.c **** 
1707:Drivers/STM32F4xx_HAL_Driver/Src/stm32f4xx_hal_i2c.c ****     /* Wait until BUSY flag is reset */
1708:Drivers/STM32F4xx_HAL_Driver/Src/stm32f4xx_hal_i2c.c ****     if(I2C_WaitOnFlagUntilTimeout(hi2c, I2C_FLAG_BUSY, SET, I2C_TIMEOUT_BUSY_FLAG) != HAL_OK)
 3458              		.loc 1 1708 0
 3459 002c F868     		ldr	r0, [r7, #12]
 3460 002e 9149     		ldr	r1, .L222
 3461 0030 0122     		movs	r2, #1
 3462 0032 42F21073 		movw	r3, #10000
 3463 0036 FFF7FEFF 		bl	I2C_WaitOnFlagUntilTimeout
 3464 003a 0346     		mov	r3, r0
 3465 003c 002B     		cmp	r3, #0
 3466 003e 01D0     		beq	.L204
1709:Drivers/STM32F4xx_HAL_Driver/Src/stm32f4xx_hal_i2c.c ****     {
1710:Drivers/STM32F4xx_HAL_Driver/Src/stm32f4xx_hal_i2c.c ****       return HAL_BUSY;
 3467              		.loc 1 1710 0
 3468 0040 0223     		movs	r3, #2
 3469 0042 49E1     		b	.L203
 3470              	.L204:
1711:Drivers/STM32F4xx_HAL_Driver/Src/stm32f4xx_hal_i2c.c ****     }
1712:Drivers/STM32F4xx_HAL_Driver/Src/stm32f4xx_hal_i2c.c **** 
1713:Drivers/STM32F4xx_HAL_Driver/Src/stm32f4xx_hal_i2c.c ****     /* Process Locked */
1714:Drivers/STM32F4xx_HAL_Driver/Src/stm32f4xx_hal_i2c.c ****     __HAL_LOCK(hi2c);
 3471              		.loc 1 1714 0
 3472 0044 FB68     		ldr	r3, [r7, #12]
 3473 0046 93F83430 		ldrb	r3, [r3, #52]	@ zero_extendqisi2
 3474 004a 012B     		cmp	r3, #1
 3475 004c 01D1     		bne	.L205
 3476              		.loc 1 1714 0 is_stmt 0 discriminator 1
 3477 004e 0223     		movs	r3, #2
 3478 0050 42E1     		b	.L203
 3479              	.L205:
 3480              		.loc 1 1714 0 discriminator 2
 3481 0052 FB68     		ldr	r3, [r7, #12]
 3482 0054 0122     		movs	r2, #1
 3483 0056 83F83420 		strb	r2, [r3, #52]
1715:Drivers/STM32F4xx_HAL_Driver/Src/stm32f4xx_hal_i2c.c ****     
1716:Drivers/STM32F4xx_HAL_Driver/Src/stm32f4xx_hal_i2c.c ****     /* Disable Pos */
1717:Drivers/STM32F4xx_HAL_Driver/Src/stm32f4xx_hal_i2c.c ****     hi2c->Instance->CR1 &= ~I2C_CR1_POS;
 3484              		.loc 1 1717 0 is_stmt 1 discriminator 2
 3485 005a FB68     		ldr	r3, [r7, #12]
 3486 005c 1B68     		ldr	r3, [r3]
 3487 005e FA68     		ldr	r2, [r7, #12]
 3488 0060 1268     		ldr	r2, [r2]
 3489 0062 1268     		ldr	r2, [r2]
 3490 0064 22F40062 		bic	r2, r2, #2048
 3491 0068 1A60     		str	r2, [r3]
1718:Drivers/STM32F4xx_HAL_Driver/Src/stm32f4xx_hal_i2c.c **** 
1719:Drivers/STM32F4xx_HAL_Driver/Src/stm32f4xx_hal_i2c.c ****     hi2c->State = HAL_I2C_STATE_MEM_BUSY_RX;
 3492              		.loc 1 1719 0 discriminator 2
 3493 006a FB68     		ldr	r3, [r7, #12]
 3494 006c 4222     		movs	r2, #66
 3495 006e 83F83520 		strb	r2, [r3, #53]
1720:Drivers/STM32F4xx_HAL_Driver/Src/stm32f4xx_hal_i2c.c ****     hi2c->ErrorCode = HAL_I2C_ERROR_NONE;
 3496              		.loc 1 1720 0 discriminator 2
 3497 0072 FB68     		ldr	r3, [r7, #12]
ARM GAS  /tmp/cc5bMm9J.s 			page 92


 3498 0074 0022     		movs	r2, #0
 3499 0076 9A63     		str	r2, [r3, #56]
1721:Drivers/STM32F4xx_HAL_Driver/Src/stm32f4xx_hal_i2c.c **** 
1722:Drivers/STM32F4xx_HAL_Driver/Src/stm32f4xx_hal_i2c.c ****     /* Send Slave Address and Memory Address */
1723:Drivers/STM32F4xx_HAL_Driver/Src/stm32f4xx_hal_i2c.c ****     if(I2C_RequestMemoryRead(hi2c, DevAddress, MemAddress, MemAddSize, Timeout) != HAL_OK)
 3500              		.loc 1 1723 0 discriminator 2
 3501 0078 7989     		ldrh	r1, [r7, #10]
 3502 007a 3A89     		ldrh	r2, [r7, #8]
 3503 007c FB88     		ldrh	r3, [r7, #6]
 3504 007e 386B     		ldr	r0, [r7, #48]
 3505 0080 0090     		str	r0, [sp]
 3506 0082 F868     		ldr	r0, [r7, #12]
 3507 0084 FFF7FEFF 		bl	I2C_RequestMemoryRead
 3508 0088 0346     		mov	r3, r0
 3509 008a 002B     		cmp	r3, #0
 3510 008c 0FD0     		beq	.L206
1724:Drivers/STM32F4xx_HAL_Driver/Src/stm32f4xx_hal_i2c.c ****     {
1725:Drivers/STM32F4xx_HAL_Driver/Src/stm32f4xx_hal_i2c.c ****       if(hi2c->ErrorCode == HAL_I2C_ERROR_AF)
 3511              		.loc 1 1725 0
 3512 008e FB68     		ldr	r3, [r7, #12]
 3513 0090 9B6B     		ldr	r3, [r3, #56]
 3514 0092 042B     		cmp	r3, #4
 3515 0094 05D1     		bne	.L207
1726:Drivers/STM32F4xx_HAL_Driver/Src/stm32f4xx_hal_i2c.c ****       {
1727:Drivers/STM32F4xx_HAL_Driver/Src/stm32f4xx_hal_i2c.c ****         /* Process Unlocked */
1728:Drivers/STM32F4xx_HAL_Driver/Src/stm32f4xx_hal_i2c.c ****         __HAL_UNLOCK(hi2c);
 3516              		.loc 1 1728 0
 3517 0096 FB68     		ldr	r3, [r7, #12]
 3518 0098 0022     		movs	r2, #0
 3519 009a 83F83420 		strb	r2, [r3, #52]
1729:Drivers/STM32F4xx_HAL_Driver/Src/stm32f4xx_hal_i2c.c ****         return HAL_ERROR;
 3520              		.loc 1 1729 0
 3521 009e 0123     		movs	r3, #1
 3522 00a0 1AE1     		b	.L203
 3523              	.L207:
1730:Drivers/STM32F4xx_HAL_Driver/Src/stm32f4xx_hal_i2c.c ****       }
1731:Drivers/STM32F4xx_HAL_Driver/Src/stm32f4xx_hal_i2c.c ****       else
1732:Drivers/STM32F4xx_HAL_Driver/Src/stm32f4xx_hal_i2c.c ****       {
1733:Drivers/STM32F4xx_HAL_Driver/Src/stm32f4xx_hal_i2c.c ****         /* Process Unlocked */
1734:Drivers/STM32F4xx_HAL_Driver/Src/stm32f4xx_hal_i2c.c ****         __HAL_UNLOCK(hi2c);
 3524              		.loc 1 1734 0
 3525 00a2 FB68     		ldr	r3, [r7, #12]
 3526 00a4 0022     		movs	r2, #0
 3527 00a6 83F83420 		strb	r2, [r3, #52]
1735:Drivers/STM32F4xx_HAL_Driver/Src/stm32f4xx_hal_i2c.c ****         return HAL_TIMEOUT;
 3528              		.loc 1 1735 0
 3529 00aa 0323     		movs	r3, #3
 3530 00ac 14E1     		b	.L203
 3531              	.L206:
1736:Drivers/STM32F4xx_HAL_Driver/Src/stm32f4xx_hal_i2c.c ****       }
1737:Drivers/STM32F4xx_HAL_Driver/Src/stm32f4xx_hal_i2c.c ****     }
1738:Drivers/STM32F4xx_HAL_Driver/Src/stm32f4xx_hal_i2c.c **** 
1739:Drivers/STM32F4xx_HAL_Driver/Src/stm32f4xx_hal_i2c.c ****     if(Size == 1)
 3532              		.loc 1 1739 0
 3533 00ae BB8D     		ldrh	r3, [r7, #44]
 3534 00b0 012B     		cmp	r3, #1
 3535 00b2 19D1     		bne	.L208
ARM GAS  /tmp/cc5bMm9J.s 			page 93


1740:Drivers/STM32F4xx_HAL_Driver/Src/stm32f4xx_hal_i2c.c ****     {
1741:Drivers/STM32F4xx_HAL_Driver/Src/stm32f4xx_hal_i2c.c ****       /* Disable Acknowledge */
1742:Drivers/STM32F4xx_HAL_Driver/Src/stm32f4xx_hal_i2c.c ****       hi2c->Instance->CR1 &= ~I2C_CR1_ACK;
 3536              		.loc 1 1742 0
 3537 00b4 FB68     		ldr	r3, [r7, #12]
 3538 00b6 1B68     		ldr	r3, [r3]
 3539 00b8 FA68     		ldr	r2, [r7, #12]
 3540 00ba 1268     		ldr	r2, [r2]
 3541 00bc 1268     		ldr	r2, [r2]
 3542 00be 22F48062 		bic	r2, r2, #1024
 3543 00c2 1A60     		str	r2, [r3]
 3544              	.LBB20:
1743:Drivers/STM32F4xx_HAL_Driver/Src/stm32f4xx_hal_i2c.c **** 
1744:Drivers/STM32F4xx_HAL_Driver/Src/stm32f4xx_hal_i2c.c ****       /* Clear ADDR flag */
1745:Drivers/STM32F4xx_HAL_Driver/Src/stm32f4xx_hal_i2c.c ****       __HAL_I2C_CLEAR_ADDRFLAG(hi2c);
 3545              		.loc 1 1745 0
 3546 00c4 FB68     		ldr	r3, [r7, #12]
 3547 00c6 1B68     		ldr	r3, [r3]
 3548 00c8 5B69     		ldr	r3, [r3, #20]
 3549 00ca FB61     		str	r3, [r7, #28]
 3550 00cc FB68     		ldr	r3, [r7, #12]
 3551 00ce 1B68     		ldr	r3, [r3]
 3552 00d0 9B69     		ldr	r3, [r3, #24]
 3553 00d2 FB61     		str	r3, [r7, #28]
 3554 00d4 FB69     		ldr	r3, [r7, #28]
 3555              	.LBE20:
1746:Drivers/STM32F4xx_HAL_Driver/Src/stm32f4xx_hal_i2c.c **** 
1747:Drivers/STM32F4xx_HAL_Driver/Src/stm32f4xx_hal_i2c.c ****       /* Generate Stop */
1748:Drivers/STM32F4xx_HAL_Driver/Src/stm32f4xx_hal_i2c.c ****       hi2c->Instance->CR1 |= I2C_CR1_STOP;
 3556              		.loc 1 1748 0
 3557 00d6 FB68     		ldr	r3, [r7, #12]
 3558 00d8 1B68     		ldr	r3, [r3]
 3559 00da FA68     		ldr	r2, [r7, #12]
 3560 00dc 1268     		ldr	r2, [r2]
 3561 00de 1268     		ldr	r2, [r2]
 3562 00e0 42F40072 		orr	r2, r2, #512
 3563 00e4 1A60     		str	r2, [r3]
 3564 00e6 26E0     		b	.L209
 3565              	.L208:
1749:Drivers/STM32F4xx_HAL_Driver/Src/stm32f4xx_hal_i2c.c ****     }
1750:Drivers/STM32F4xx_HAL_Driver/Src/stm32f4xx_hal_i2c.c ****     else if(Size == 2)
 3566              		.loc 1 1750 0
 3567 00e8 BB8D     		ldrh	r3, [r7, #44]
 3568 00ea 022B     		cmp	r3, #2
 3569 00ec 19D1     		bne	.L210
1751:Drivers/STM32F4xx_HAL_Driver/Src/stm32f4xx_hal_i2c.c ****     {
1752:Drivers/STM32F4xx_HAL_Driver/Src/stm32f4xx_hal_i2c.c ****       /* Disable Acknowledge */
1753:Drivers/STM32F4xx_HAL_Driver/Src/stm32f4xx_hal_i2c.c ****       hi2c->Instance->CR1 &= ~I2C_CR1_ACK;
 3570              		.loc 1 1753 0
 3571 00ee FB68     		ldr	r3, [r7, #12]
 3572 00f0 1B68     		ldr	r3, [r3]
 3573 00f2 FA68     		ldr	r2, [r7, #12]
 3574 00f4 1268     		ldr	r2, [r2]
 3575 00f6 1268     		ldr	r2, [r2]
 3576 00f8 22F48062 		bic	r2, r2, #1024
 3577 00fc 1A60     		str	r2, [r3]
1754:Drivers/STM32F4xx_HAL_Driver/Src/stm32f4xx_hal_i2c.c **** 
ARM GAS  /tmp/cc5bMm9J.s 			page 94


1755:Drivers/STM32F4xx_HAL_Driver/Src/stm32f4xx_hal_i2c.c ****       /* Enable Pos */
1756:Drivers/STM32F4xx_HAL_Driver/Src/stm32f4xx_hal_i2c.c ****       hi2c->Instance->CR1 |= I2C_CR1_POS;
 3578              		.loc 1 1756 0
 3579 00fe FB68     		ldr	r3, [r7, #12]
 3580 0100 1B68     		ldr	r3, [r3]
 3581 0102 FA68     		ldr	r2, [r7, #12]
 3582 0104 1268     		ldr	r2, [r2]
 3583 0106 1268     		ldr	r2, [r2]
 3584 0108 42F40062 		orr	r2, r2, #2048
 3585 010c 1A60     		str	r2, [r3]
 3586              	.LBB21:
1757:Drivers/STM32F4xx_HAL_Driver/Src/stm32f4xx_hal_i2c.c **** 
1758:Drivers/STM32F4xx_HAL_Driver/Src/stm32f4xx_hal_i2c.c ****       /* Clear ADDR flag */
1759:Drivers/STM32F4xx_HAL_Driver/Src/stm32f4xx_hal_i2c.c ****       __HAL_I2C_CLEAR_ADDRFLAG(hi2c);
 3587              		.loc 1 1759 0
 3588 010e FB68     		ldr	r3, [r7, #12]
 3589 0110 1B68     		ldr	r3, [r3]
 3590 0112 5B69     		ldr	r3, [r3, #20]
 3591 0114 BB61     		str	r3, [r7, #24]
 3592 0116 FB68     		ldr	r3, [r7, #12]
 3593 0118 1B68     		ldr	r3, [r3]
 3594 011a 9B69     		ldr	r3, [r3, #24]
 3595 011c BB61     		str	r3, [r7, #24]
 3596 011e BB69     		ldr	r3, [r7, #24]
 3597              	.LBE21:
 3598 0120 09E0     		b	.L209
 3599              	.L210:
 3600              	.LBB22:
1760:Drivers/STM32F4xx_HAL_Driver/Src/stm32f4xx_hal_i2c.c ****     }
1761:Drivers/STM32F4xx_HAL_Driver/Src/stm32f4xx_hal_i2c.c ****     else
1762:Drivers/STM32F4xx_HAL_Driver/Src/stm32f4xx_hal_i2c.c ****     {
1763:Drivers/STM32F4xx_HAL_Driver/Src/stm32f4xx_hal_i2c.c ****       /* Clear ADDR flag */
1764:Drivers/STM32F4xx_HAL_Driver/Src/stm32f4xx_hal_i2c.c ****       __HAL_I2C_CLEAR_ADDRFLAG(hi2c);
 3601              		.loc 1 1764 0
 3602 0122 FB68     		ldr	r3, [r7, #12]
 3603 0124 1B68     		ldr	r3, [r3]
 3604 0126 5B69     		ldr	r3, [r3, #20]
 3605 0128 7B61     		str	r3, [r7, #20]
 3606 012a FB68     		ldr	r3, [r7, #12]
 3607 012c 1B68     		ldr	r3, [r3]
 3608 012e 9B69     		ldr	r3, [r3, #24]
 3609 0130 7B61     		str	r3, [r7, #20]
 3610 0132 7B69     		ldr	r3, [r7, #20]
 3611              	.LBE22:
1765:Drivers/STM32F4xx_HAL_Driver/Src/stm32f4xx_hal_i2c.c ****     }
1766:Drivers/STM32F4xx_HAL_Driver/Src/stm32f4xx_hal_i2c.c **** 
1767:Drivers/STM32F4xx_HAL_Driver/Src/stm32f4xx_hal_i2c.c ****     while(Size > 0)
 3612              		.loc 1 1767 0
 3613 0134 C1E0     		b	.L211
 3614              	.L209:
 3615 0136 C0E0     		b	.L211
 3616              	.L221:
1768:Drivers/STM32F4xx_HAL_Driver/Src/stm32f4xx_hal_i2c.c ****     {
1769:Drivers/STM32F4xx_HAL_Driver/Src/stm32f4xx_hal_i2c.c ****       if(Size <= 3)
 3617              		.loc 1 1769 0
 3618 0138 BB8D     		ldrh	r3, [r7, #44]
 3619 013a 032B     		cmp	r3, #3
ARM GAS  /tmp/cc5bMm9J.s 			page 95


 3620 013c 00F28F80 		bhi	.L212
1770:Drivers/STM32F4xx_HAL_Driver/Src/stm32f4xx_hal_i2c.c ****       {
1771:Drivers/STM32F4xx_HAL_Driver/Src/stm32f4xx_hal_i2c.c ****         /* One byte */
1772:Drivers/STM32F4xx_HAL_Driver/Src/stm32f4xx_hal_i2c.c ****         if(Size== 1)
 3621              		.loc 1 1772 0
 3622 0140 BB8D     		ldrh	r3, [r7, #44]
 3623 0142 012B     		cmp	r3, #1
 3624 0144 16D1     		bne	.L213
1773:Drivers/STM32F4xx_HAL_Driver/Src/stm32f4xx_hal_i2c.c ****         {
1774:Drivers/STM32F4xx_HAL_Driver/Src/stm32f4xx_hal_i2c.c ****           /* Wait until RXNE flag is set */
1775:Drivers/STM32F4xx_HAL_Driver/Src/stm32f4xx_hal_i2c.c ****           if(I2C_WaitOnFlagUntilTimeout(hi2c, I2C_FLAG_RXNE, RESET, Timeout) != HAL_OK)
 3625              		.loc 1 1775 0
 3626 0146 F868     		ldr	r0, [r7, #12]
 3627 0148 4B49     		ldr	r1, .L222+4
 3628 014a 0022     		movs	r2, #0
 3629 014c 3B6B     		ldr	r3, [r7, #48]
 3630 014e FFF7FEFF 		bl	I2C_WaitOnFlagUntilTimeout
 3631 0152 0346     		mov	r3, r0
 3632 0154 002B     		cmp	r3, #0
 3633 0156 01D0     		beq	.L214
1776:Drivers/STM32F4xx_HAL_Driver/Src/stm32f4xx_hal_i2c.c ****           {
1777:Drivers/STM32F4xx_HAL_Driver/Src/stm32f4xx_hal_i2c.c ****             return HAL_TIMEOUT;
 3634              		.loc 1 1777 0
 3635 0158 0323     		movs	r3, #3
 3636 015a BDE0     		b	.L203
 3637              	.L214:
1778:Drivers/STM32F4xx_HAL_Driver/Src/stm32f4xx_hal_i2c.c ****           }
1779:Drivers/STM32F4xx_HAL_Driver/Src/stm32f4xx_hal_i2c.c **** 
1780:Drivers/STM32F4xx_HAL_Driver/Src/stm32f4xx_hal_i2c.c ****           /* Read data from DR */
1781:Drivers/STM32F4xx_HAL_Driver/Src/stm32f4xx_hal_i2c.c ****           (*pData++) = hi2c->Instance->DR;
 3638              		.loc 1 1781 0
 3639 015c BB6A     		ldr	r3, [r7, #40]
 3640 015e 5A1C     		adds	r2, r3, #1
 3641 0160 BA62     		str	r2, [r7, #40]
 3642 0162 FA68     		ldr	r2, [r7, #12]
 3643 0164 1268     		ldr	r2, [r2]
 3644 0166 1269     		ldr	r2, [r2, #16]
 3645 0168 D2B2     		uxtb	r2, r2
 3646 016a 1A70     		strb	r2, [r3]
1782:Drivers/STM32F4xx_HAL_Driver/Src/stm32f4xx_hal_i2c.c ****           Size--;
 3647              		.loc 1 1782 0
 3648 016c BB8D     		ldrh	r3, [r7, #44]
 3649 016e 013B     		subs	r3, r3, #1
 3650 0170 BB85     		strh	r3, [r7, #44]	@ movhi
 3651 0172 A2E0     		b	.L211
 3652              	.L213:
1783:Drivers/STM32F4xx_HAL_Driver/Src/stm32f4xx_hal_i2c.c ****         }
1784:Drivers/STM32F4xx_HAL_Driver/Src/stm32f4xx_hal_i2c.c ****         /* Two bytes */
1785:Drivers/STM32F4xx_HAL_Driver/Src/stm32f4xx_hal_i2c.c ****         else if(Size == 2)
 3653              		.loc 1 1785 0
 3654 0174 BB8D     		ldrh	r3, [r7, #44]
 3655 0176 022B     		cmp	r3, #2
 3656 0178 29D1     		bne	.L216
1786:Drivers/STM32F4xx_HAL_Driver/Src/stm32f4xx_hal_i2c.c ****         {
1787:Drivers/STM32F4xx_HAL_Driver/Src/stm32f4xx_hal_i2c.c ****           /* Wait until BTF flag is set */
1788:Drivers/STM32F4xx_HAL_Driver/Src/stm32f4xx_hal_i2c.c ****           if(I2C_WaitOnFlagUntilTimeout(hi2c, I2C_FLAG_BTF, RESET, Timeout) != HAL_OK)
 3657              		.loc 1 1788 0
ARM GAS  /tmp/cc5bMm9J.s 			page 96


 3658 017a F868     		ldr	r0, [r7, #12]
 3659 017c 3F49     		ldr	r1, .L222+8
 3660 017e 0022     		movs	r2, #0
 3661 0180 3B6B     		ldr	r3, [r7, #48]
 3662 0182 FFF7FEFF 		bl	I2C_WaitOnFlagUntilTimeout
 3663 0186 0346     		mov	r3, r0
 3664 0188 002B     		cmp	r3, #0
 3665 018a 01D0     		beq	.L217
1789:Drivers/STM32F4xx_HAL_Driver/Src/stm32f4xx_hal_i2c.c ****           {
1790:Drivers/STM32F4xx_HAL_Driver/Src/stm32f4xx_hal_i2c.c ****             return HAL_TIMEOUT;
 3666              		.loc 1 1790 0
 3667 018c 0323     		movs	r3, #3
 3668 018e A3E0     		b	.L203
 3669              	.L217:
1791:Drivers/STM32F4xx_HAL_Driver/Src/stm32f4xx_hal_i2c.c ****           }
1792:Drivers/STM32F4xx_HAL_Driver/Src/stm32f4xx_hal_i2c.c **** 
1793:Drivers/STM32F4xx_HAL_Driver/Src/stm32f4xx_hal_i2c.c ****           /* Generate Stop */
1794:Drivers/STM32F4xx_HAL_Driver/Src/stm32f4xx_hal_i2c.c ****           hi2c->Instance->CR1 |= I2C_CR1_STOP;
 3670              		.loc 1 1794 0
 3671 0190 FB68     		ldr	r3, [r7, #12]
 3672 0192 1B68     		ldr	r3, [r3]
 3673 0194 FA68     		ldr	r2, [r7, #12]
 3674 0196 1268     		ldr	r2, [r2]
 3675 0198 1268     		ldr	r2, [r2]
 3676 019a 42F40072 		orr	r2, r2, #512
 3677 019e 1A60     		str	r2, [r3]
1795:Drivers/STM32F4xx_HAL_Driver/Src/stm32f4xx_hal_i2c.c **** 
1796:Drivers/STM32F4xx_HAL_Driver/Src/stm32f4xx_hal_i2c.c ****           /* Read data from DR */
1797:Drivers/STM32F4xx_HAL_Driver/Src/stm32f4xx_hal_i2c.c ****           (*pData++) = hi2c->Instance->DR;
 3678              		.loc 1 1797 0
 3679 01a0 BB6A     		ldr	r3, [r7, #40]
 3680 01a2 5A1C     		adds	r2, r3, #1
 3681 01a4 BA62     		str	r2, [r7, #40]
 3682 01a6 FA68     		ldr	r2, [r7, #12]
 3683 01a8 1268     		ldr	r2, [r2]
 3684 01aa 1269     		ldr	r2, [r2, #16]
 3685 01ac D2B2     		uxtb	r2, r2
 3686 01ae 1A70     		strb	r2, [r3]
1798:Drivers/STM32F4xx_HAL_Driver/Src/stm32f4xx_hal_i2c.c ****           Size--;
 3687              		.loc 1 1798 0
 3688 01b0 BB8D     		ldrh	r3, [r7, #44]
 3689 01b2 013B     		subs	r3, r3, #1
 3690 01b4 BB85     		strh	r3, [r7, #44]	@ movhi
1799:Drivers/STM32F4xx_HAL_Driver/Src/stm32f4xx_hal_i2c.c **** 
1800:Drivers/STM32F4xx_HAL_Driver/Src/stm32f4xx_hal_i2c.c ****           /* Read data from DR */
1801:Drivers/STM32F4xx_HAL_Driver/Src/stm32f4xx_hal_i2c.c ****           (*pData++) = hi2c->Instance->DR;
 3691              		.loc 1 1801 0
 3692 01b6 BB6A     		ldr	r3, [r7, #40]
 3693 01b8 5A1C     		adds	r2, r3, #1
 3694 01ba BA62     		str	r2, [r7, #40]
 3695 01bc FA68     		ldr	r2, [r7, #12]
 3696 01be 1268     		ldr	r2, [r2]
 3697 01c0 1269     		ldr	r2, [r2, #16]
 3698 01c2 D2B2     		uxtb	r2, r2
 3699 01c4 1A70     		strb	r2, [r3]
1802:Drivers/STM32F4xx_HAL_Driver/Src/stm32f4xx_hal_i2c.c ****           Size--;
 3700              		.loc 1 1802 0
ARM GAS  /tmp/cc5bMm9J.s 			page 97


 3701 01c6 BB8D     		ldrh	r3, [r7, #44]
 3702 01c8 013B     		subs	r3, r3, #1
 3703 01ca BB85     		strh	r3, [r7, #44]	@ movhi
 3704 01cc 75E0     		b	.L211
 3705              	.L216:
1803:Drivers/STM32F4xx_HAL_Driver/Src/stm32f4xx_hal_i2c.c ****         }
1804:Drivers/STM32F4xx_HAL_Driver/Src/stm32f4xx_hal_i2c.c ****         /* 3 Last bytes */
1805:Drivers/STM32F4xx_HAL_Driver/Src/stm32f4xx_hal_i2c.c ****         else
1806:Drivers/STM32F4xx_HAL_Driver/Src/stm32f4xx_hal_i2c.c ****         {
1807:Drivers/STM32F4xx_HAL_Driver/Src/stm32f4xx_hal_i2c.c ****           /* Wait until BTF flag is set */
1808:Drivers/STM32F4xx_HAL_Driver/Src/stm32f4xx_hal_i2c.c ****           if(I2C_WaitOnFlagUntilTimeout(hi2c, I2C_FLAG_BTF, RESET, Timeout) != HAL_OK)
 3706              		.loc 1 1808 0
 3707 01ce F868     		ldr	r0, [r7, #12]
 3708 01d0 2A49     		ldr	r1, .L222+8
 3709 01d2 0022     		movs	r2, #0
 3710 01d4 3B6B     		ldr	r3, [r7, #48]
 3711 01d6 FFF7FEFF 		bl	I2C_WaitOnFlagUntilTimeout
 3712 01da 0346     		mov	r3, r0
 3713 01dc 002B     		cmp	r3, #0
 3714 01de 01D0     		beq	.L218
1809:Drivers/STM32F4xx_HAL_Driver/Src/stm32f4xx_hal_i2c.c ****           {
1810:Drivers/STM32F4xx_HAL_Driver/Src/stm32f4xx_hal_i2c.c ****             return HAL_TIMEOUT;
 3715              		.loc 1 1810 0
 3716 01e0 0323     		movs	r3, #3
 3717 01e2 79E0     		b	.L203
 3718              	.L218:
1811:Drivers/STM32F4xx_HAL_Driver/Src/stm32f4xx_hal_i2c.c ****           }
1812:Drivers/STM32F4xx_HAL_Driver/Src/stm32f4xx_hal_i2c.c **** 
1813:Drivers/STM32F4xx_HAL_Driver/Src/stm32f4xx_hal_i2c.c ****           /* Disable Acknowledge */
1814:Drivers/STM32F4xx_HAL_Driver/Src/stm32f4xx_hal_i2c.c ****           hi2c->Instance->CR1 &= ~I2C_CR1_ACK;
 3719              		.loc 1 1814 0
 3720 01e4 FB68     		ldr	r3, [r7, #12]
 3721 01e6 1B68     		ldr	r3, [r3]
 3722 01e8 FA68     		ldr	r2, [r7, #12]
 3723 01ea 1268     		ldr	r2, [r2]
 3724 01ec 1268     		ldr	r2, [r2]
 3725 01ee 22F48062 		bic	r2, r2, #1024
 3726 01f2 1A60     		str	r2, [r3]
1815:Drivers/STM32F4xx_HAL_Driver/Src/stm32f4xx_hal_i2c.c **** 
1816:Drivers/STM32F4xx_HAL_Driver/Src/stm32f4xx_hal_i2c.c ****           /* Read data from DR */
1817:Drivers/STM32F4xx_HAL_Driver/Src/stm32f4xx_hal_i2c.c ****           (*pData++) = hi2c->Instance->DR;
 3727              		.loc 1 1817 0
 3728 01f4 BB6A     		ldr	r3, [r7, #40]
 3729 01f6 5A1C     		adds	r2, r3, #1
 3730 01f8 BA62     		str	r2, [r7, #40]
 3731 01fa FA68     		ldr	r2, [r7, #12]
 3732 01fc 1268     		ldr	r2, [r2]
 3733 01fe 1269     		ldr	r2, [r2, #16]
 3734 0200 D2B2     		uxtb	r2, r2
 3735 0202 1A70     		strb	r2, [r3]
1818:Drivers/STM32F4xx_HAL_Driver/Src/stm32f4xx_hal_i2c.c ****           Size--;
 3736              		.loc 1 1818 0
 3737 0204 BB8D     		ldrh	r3, [r7, #44]
 3738 0206 013B     		subs	r3, r3, #1
 3739 0208 BB85     		strh	r3, [r7, #44]	@ movhi
1819:Drivers/STM32F4xx_HAL_Driver/Src/stm32f4xx_hal_i2c.c **** 
1820:Drivers/STM32F4xx_HAL_Driver/Src/stm32f4xx_hal_i2c.c ****           /* Wait until BTF flag is set */
ARM GAS  /tmp/cc5bMm9J.s 			page 98


1821:Drivers/STM32F4xx_HAL_Driver/Src/stm32f4xx_hal_i2c.c ****           if(I2C_WaitOnFlagUntilTimeout(hi2c, I2C_FLAG_BTF, RESET, Timeout) != HAL_OK)
 3740              		.loc 1 1821 0
 3741 020a F868     		ldr	r0, [r7, #12]
 3742 020c 1B49     		ldr	r1, .L222+8
 3743 020e 0022     		movs	r2, #0
 3744 0210 3B6B     		ldr	r3, [r7, #48]
 3745 0212 FFF7FEFF 		bl	I2C_WaitOnFlagUntilTimeout
 3746 0216 0346     		mov	r3, r0
 3747 0218 002B     		cmp	r3, #0
 3748 021a 01D0     		beq	.L219
1822:Drivers/STM32F4xx_HAL_Driver/Src/stm32f4xx_hal_i2c.c ****           {
1823:Drivers/STM32F4xx_HAL_Driver/Src/stm32f4xx_hal_i2c.c ****             return HAL_TIMEOUT;
 3749              		.loc 1 1823 0
 3750 021c 0323     		movs	r3, #3
 3751 021e 5BE0     		b	.L203
 3752              	.L219:
1824:Drivers/STM32F4xx_HAL_Driver/Src/stm32f4xx_hal_i2c.c ****           }
1825:Drivers/STM32F4xx_HAL_Driver/Src/stm32f4xx_hal_i2c.c **** 
1826:Drivers/STM32F4xx_HAL_Driver/Src/stm32f4xx_hal_i2c.c ****           /* Generate Stop */
1827:Drivers/STM32F4xx_HAL_Driver/Src/stm32f4xx_hal_i2c.c ****           hi2c->Instance->CR1 |= I2C_CR1_STOP;
 3753              		.loc 1 1827 0
 3754 0220 FB68     		ldr	r3, [r7, #12]
 3755 0222 1B68     		ldr	r3, [r3]
 3756 0224 FA68     		ldr	r2, [r7, #12]
 3757 0226 1268     		ldr	r2, [r2]
 3758 0228 1268     		ldr	r2, [r2]
 3759 022a 42F40072 		orr	r2, r2, #512
 3760 022e 1A60     		str	r2, [r3]
1828:Drivers/STM32F4xx_HAL_Driver/Src/stm32f4xx_hal_i2c.c **** 
1829:Drivers/STM32F4xx_HAL_Driver/Src/stm32f4xx_hal_i2c.c ****           /* Read data from DR */
1830:Drivers/STM32F4xx_HAL_Driver/Src/stm32f4xx_hal_i2c.c ****           (*pData++) = hi2c->Instance->DR;
 3761              		.loc 1 1830 0
 3762 0230 BB6A     		ldr	r3, [r7, #40]
 3763 0232 5A1C     		adds	r2, r3, #1
 3764 0234 BA62     		str	r2, [r7, #40]
 3765 0236 FA68     		ldr	r2, [r7, #12]
 3766 0238 1268     		ldr	r2, [r2]
 3767 023a 1269     		ldr	r2, [r2, #16]
 3768 023c D2B2     		uxtb	r2, r2
 3769 023e 1A70     		strb	r2, [r3]
1831:Drivers/STM32F4xx_HAL_Driver/Src/stm32f4xx_hal_i2c.c ****           Size--;
 3770              		.loc 1 1831 0
 3771 0240 BB8D     		ldrh	r3, [r7, #44]
 3772 0242 013B     		subs	r3, r3, #1
 3773 0244 BB85     		strh	r3, [r7, #44]	@ movhi
1832:Drivers/STM32F4xx_HAL_Driver/Src/stm32f4xx_hal_i2c.c **** 
1833:Drivers/STM32F4xx_HAL_Driver/Src/stm32f4xx_hal_i2c.c ****           /* Read data from DR */
1834:Drivers/STM32F4xx_HAL_Driver/Src/stm32f4xx_hal_i2c.c ****           (*pData++) = hi2c->Instance->DR;
 3774              		.loc 1 1834 0
 3775 0246 BB6A     		ldr	r3, [r7, #40]
 3776 0248 5A1C     		adds	r2, r3, #1
 3777 024a BA62     		str	r2, [r7, #40]
 3778 024c FA68     		ldr	r2, [r7, #12]
 3779 024e 1268     		ldr	r2, [r2]
 3780 0250 1269     		ldr	r2, [r2, #16]
 3781 0252 D2B2     		uxtb	r2, r2
 3782 0254 1A70     		strb	r2, [r3]
ARM GAS  /tmp/cc5bMm9J.s 			page 99


1835:Drivers/STM32F4xx_HAL_Driver/Src/stm32f4xx_hal_i2c.c ****           Size--;
 3783              		.loc 1 1835 0
 3784 0256 BB8D     		ldrh	r3, [r7, #44]
 3785 0258 013B     		subs	r3, r3, #1
 3786 025a BB85     		strh	r3, [r7, #44]	@ movhi
 3787 025c 2DE0     		b	.L211
 3788              	.L212:
1836:Drivers/STM32F4xx_HAL_Driver/Src/stm32f4xx_hal_i2c.c ****         }
1837:Drivers/STM32F4xx_HAL_Driver/Src/stm32f4xx_hal_i2c.c ****       }
1838:Drivers/STM32F4xx_HAL_Driver/Src/stm32f4xx_hal_i2c.c ****       else
1839:Drivers/STM32F4xx_HAL_Driver/Src/stm32f4xx_hal_i2c.c ****       {
1840:Drivers/STM32F4xx_HAL_Driver/Src/stm32f4xx_hal_i2c.c ****         /* Wait until RXNE flag is set */
1841:Drivers/STM32F4xx_HAL_Driver/Src/stm32f4xx_hal_i2c.c ****         if(I2C_WaitOnFlagUntilTimeout(hi2c, I2C_FLAG_RXNE, RESET, Timeout) != HAL_OK)
 3789              		.loc 1 1841 0
 3790 025e F868     		ldr	r0, [r7, #12]
 3791 0260 0549     		ldr	r1, .L222+4
 3792 0262 0022     		movs	r2, #0
 3793 0264 3B6B     		ldr	r3, [r7, #48]
 3794 0266 FFF7FEFF 		bl	I2C_WaitOnFlagUntilTimeout
 3795 026a 0346     		mov	r3, r0
 3796 026c 002B     		cmp	r3, #0
 3797 026e 07D0     		beq	.L220
1842:Drivers/STM32F4xx_HAL_Driver/Src/stm32f4xx_hal_i2c.c ****         {
1843:Drivers/STM32F4xx_HAL_Driver/Src/stm32f4xx_hal_i2c.c ****           return HAL_TIMEOUT;
 3798              		.loc 1 1843 0
 3799 0270 0323     		movs	r3, #3
 3800 0272 31E0     		b	.L203
 3801              	.L223:
 3802              		.align	2
 3803              	.L222:
 3804 0274 02001000 		.word	1048578
 3805 0278 40000100 		.word	65600
 3806 027c 04000100 		.word	65540
 3807              	.L220:
1844:Drivers/STM32F4xx_HAL_Driver/Src/stm32f4xx_hal_i2c.c ****         }
1845:Drivers/STM32F4xx_HAL_Driver/Src/stm32f4xx_hal_i2c.c **** 
1846:Drivers/STM32F4xx_HAL_Driver/Src/stm32f4xx_hal_i2c.c ****         /* Read data from DR */
1847:Drivers/STM32F4xx_HAL_Driver/Src/stm32f4xx_hal_i2c.c ****         (*pData++) = hi2c->Instance->DR;
 3808              		.loc 1 1847 0
 3809 0280 BB6A     		ldr	r3, [r7, #40]
 3810 0282 5A1C     		adds	r2, r3, #1
 3811 0284 BA62     		str	r2, [r7, #40]
 3812 0286 FA68     		ldr	r2, [r7, #12]
 3813 0288 1268     		ldr	r2, [r2]
 3814 028a 1269     		ldr	r2, [r2, #16]
 3815 028c D2B2     		uxtb	r2, r2
 3816 028e 1A70     		strb	r2, [r3]
1848:Drivers/STM32F4xx_HAL_Driver/Src/stm32f4xx_hal_i2c.c ****         Size--;
 3817              		.loc 1 1848 0
 3818 0290 BB8D     		ldrh	r3, [r7, #44]
 3819 0292 013B     		subs	r3, r3, #1
 3820 0294 BB85     		strh	r3, [r7, #44]	@ movhi
1849:Drivers/STM32F4xx_HAL_Driver/Src/stm32f4xx_hal_i2c.c **** 
1850:Drivers/STM32F4xx_HAL_Driver/Src/stm32f4xx_hal_i2c.c ****         if(__HAL_I2C_GET_FLAG(hi2c, I2C_FLAG_BTF) == SET)
 3821              		.loc 1 1850 0
 3822 0296 FB68     		ldr	r3, [r7, #12]
 3823 0298 1B68     		ldr	r3, [r3]
ARM GAS  /tmp/cc5bMm9J.s 			page 100


 3824 029a 5B69     		ldr	r3, [r3, #20]
 3825 029c 03F00403 		and	r3, r3, #4
 3826 02a0 002B     		cmp	r3, #0
 3827 02a2 0AD0     		beq	.L211
1851:Drivers/STM32F4xx_HAL_Driver/Src/stm32f4xx_hal_i2c.c ****         {
1852:Drivers/STM32F4xx_HAL_Driver/Src/stm32f4xx_hal_i2c.c ****           /* Read data from DR */
1853:Drivers/STM32F4xx_HAL_Driver/Src/stm32f4xx_hal_i2c.c ****           (*pData++) = hi2c->Instance->DR;
 3828              		.loc 1 1853 0
 3829 02a4 BB6A     		ldr	r3, [r7, #40]
 3830 02a6 5A1C     		adds	r2, r3, #1
 3831 02a8 BA62     		str	r2, [r7, #40]
 3832 02aa FA68     		ldr	r2, [r7, #12]
 3833 02ac 1268     		ldr	r2, [r2]
 3834 02ae 1269     		ldr	r2, [r2, #16]
 3835 02b0 D2B2     		uxtb	r2, r2
 3836 02b2 1A70     		strb	r2, [r3]
1854:Drivers/STM32F4xx_HAL_Driver/Src/stm32f4xx_hal_i2c.c ****           Size--;
 3837              		.loc 1 1854 0
 3838 02b4 BB8D     		ldrh	r3, [r7, #44]
 3839 02b6 013B     		subs	r3, r3, #1
 3840 02b8 BB85     		strh	r3, [r7, #44]	@ movhi
 3841              	.L211:
1767:Drivers/STM32F4xx_HAL_Driver/Src/stm32f4xx_hal_i2c.c ****     {
 3842              		.loc 1 1767 0 discriminator 1
 3843 02ba BB8D     		ldrh	r3, [r7, #44]
 3844 02bc 002B     		cmp	r3, #0
 3845 02be 7FF43BAF 		bne	.L221
1855:Drivers/STM32F4xx_HAL_Driver/Src/stm32f4xx_hal_i2c.c ****         }
1856:Drivers/STM32F4xx_HAL_Driver/Src/stm32f4xx_hal_i2c.c ****       }
1857:Drivers/STM32F4xx_HAL_Driver/Src/stm32f4xx_hal_i2c.c ****     }
1858:Drivers/STM32F4xx_HAL_Driver/Src/stm32f4xx_hal_i2c.c **** 
1859:Drivers/STM32F4xx_HAL_Driver/Src/stm32f4xx_hal_i2c.c ****     hi2c->State = HAL_I2C_STATE_READY;
 3846              		.loc 1 1859 0
 3847 02c2 FB68     		ldr	r3, [r7, #12]
 3848 02c4 0122     		movs	r2, #1
 3849 02c6 83F83520 		strb	r2, [r3, #53]
1860:Drivers/STM32F4xx_HAL_Driver/Src/stm32f4xx_hal_i2c.c **** 
1861:Drivers/STM32F4xx_HAL_Driver/Src/stm32f4xx_hal_i2c.c ****     /* Process Unlocked */
1862:Drivers/STM32F4xx_HAL_Driver/Src/stm32f4xx_hal_i2c.c ****     __HAL_UNLOCK(hi2c);
 3850              		.loc 1 1862 0
 3851 02ca FB68     		ldr	r3, [r7, #12]
 3852 02cc 0022     		movs	r2, #0
 3853 02ce 83F83420 		strb	r2, [r3, #52]
1863:Drivers/STM32F4xx_HAL_Driver/Src/stm32f4xx_hal_i2c.c **** 
1864:Drivers/STM32F4xx_HAL_Driver/Src/stm32f4xx_hal_i2c.c ****     return HAL_OK;
 3854              		.loc 1 1864 0
 3855 02d2 0023     		movs	r3, #0
 3856 02d4 00E0     		b	.L203
 3857              	.L200:
1865:Drivers/STM32F4xx_HAL_Driver/Src/stm32f4xx_hal_i2c.c ****   }
1866:Drivers/STM32F4xx_HAL_Driver/Src/stm32f4xx_hal_i2c.c ****   else
1867:Drivers/STM32F4xx_HAL_Driver/Src/stm32f4xx_hal_i2c.c ****   {
1868:Drivers/STM32F4xx_HAL_Driver/Src/stm32f4xx_hal_i2c.c ****     return HAL_BUSY;
 3858              		.loc 1 1868 0
 3859 02d6 0223     		movs	r3, #2
 3860              	.L203:
1869:Drivers/STM32F4xx_HAL_Driver/Src/stm32f4xx_hal_i2c.c ****   }
ARM GAS  /tmp/cc5bMm9J.s 			page 101


1870:Drivers/STM32F4xx_HAL_Driver/Src/stm32f4xx_hal_i2c.c **** }
 3861              		.loc 1 1870 0
 3862 02d8 1846     		mov	r0, r3
 3863 02da 2037     		adds	r7, r7, #32
 3864 02dc BD46     		mov	sp, r7
 3865              		@ sp needed
 3866 02de 80BD     		pop	{r7, pc}
 3867              		.cfi_endproc
 3868              	.LFE142:
 3870              		.section	.text.HAL_I2C_Mem_Write_IT,"ax",%progbits
 3871              		.align	2
 3872              		.global	HAL_I2C_Mem_Write_IT
 3873              		.thumb
 3874              		.thumb_func
 3876              	HAL_I2C_Mem_Write_IT:
 3877              	.LFB143:
1871:Drivers/STM32F4xx_HAL_Driver/Src/stm32f4xx_hal_i2c.c **** /**
1872:Drivers/STM32F4xx_HAL_Driver/Src/stm32f4xx_hal_i2c.c ****   * @brief  Write an amount of data in no-blocking mode with Interrupt to a specific memory address
1873:Drivers/STM32F4xx_HAL_Driver/Src/stm32f4xx_hal_i2c.c ****   * @param  hi2c: pointer to a I2C_HandleTypeDef structure that contains
1874:Drivers/STM32F4xx_HAL_Driver/Src/stm32f4xx_hal_i2c.c ****   *         the configuration information for I2C module
1875:Drivers/STM32F4xx_HAL_Driver/Src/stm32f4xx_hal_i2c.c ****   * @param  DevAddress: Target device address
1876:Drivers/STM32F4xx_HAL_Driver/Src/stm32f4xx_hal_i2c.c ****   * @param  MemAddress: Internal memory address
1877:Drivers/STM32F4xx_HAL_Driver/Src/stm32f4xx_hal_i2c.c ****   * @param  MemAddSize: Size of internal memory address
1878:Drivers/STM32F4xx_HAL_Driver/Src/stm32f4xx_hal_i2c.c ****   * @param  pData: Pointer to data buffer
1879:Drivers/STM32F4xx_HAL_Driver/Src/stm32f4xx_hal_i2c.c ****   * @param  Size: Amount of data to be sent
1880:Drivers/STM32F4xx_HAL_Driver/Src/stm32f4xx_hal_i2c.c ****   * @retval HAL status
1881:Drivers/STM32F4xx_HAL_Driver/Src/stm32f4xx_hal_i2c.c ****   */
1882:Drivers/STM32F4xx_HAL_Driver/Src/stm32f4xx_hal_i2c.c **** HAL_StatusTypeDef HAL_I2C_Mem_Write_IT(I2C_HandleTypeDef *hi2c, uint16_t DevAddress, uint16_t MemAd
1883:Drivers/STM32F4xx_HAL_Driver/Src/stm32f4xx_hal_i2c.c **** {
 3878              		.loc 1 1883 0
 3879              		.cfi_startproc
 3880              		@ args = 8, pretend = 0, frame = 16
 3881              		@ frame_needed = 1, uses_anonymous_args = 0
 3882 0000 80B5     		push	{r7, lr}
 3883              	.LCFI54:
 3884              		.cfi_def_cfa_offset 8
 3885              		.cfi_offset 7, -8
 3886              		.cfi_offset 14, -4
 3887 0002 86B0     		sub	sp, sp, #24
 3888              	.LCFI55:
 3889              		.cfi_def_cfa_offset 32
 3890 0004 02AF     		add	r7, sp, #8
 3891              	.LCFI56:
 3892              		.cfi_def_cfa 7, 24
 3893 0006 F860     		str	r0, [r7, #12]
 3894 0008 7981     		strh	r1, [r7, #10]	@ movhi
 3895 000a 3A81     		strh	r2, [r7, #8]	@ movhi
 3896 000c FB80     		strh	r3, [r7, #6]	@ movhi
1884:Drivers/STM32F4xx_HAL_Driver/Src/stm32f4xx_hal_i2c.c ****   /* Check the parameters */
1885:Drivers/STM32F4xx_HAL_Driver/Src/stm32f4xx_hal_i2c.c ****   assert_param(IS_I2C_MEMADD_SIZE(MemAddSize));
1886:Drivers/STM32F4xx_HAL_Driver/Src/stm32f4xx_hal_i2c.c **** 
1887:Drivers/STM32F4xx_HAL_Driver/Src/stm32f4xx_hal_i2c.c ****   if(hi2c->State == HAL_I2C_STATE_READY)
 3897              		.loc 1 1887 0
 3898 000e FB68     		ldr	r3, [r7, #12]
 3899 0010 93F83530 		ldrb	r3, [r3, #53]
 3900 0014 DBB2     		uxtb	r3, r3
 3901 0016 012B     		cmp	r3, #1
ARM GAS  /tmp/cc5bMm9J.s 			page 102


 3902 0018 5FD1     		bne	.L225
1888:Drivers/STM32F4xx_HAL_Driver/Src/stm32f4xx_hal_i2c.c ****   {
1889:Drivers/STM32F4xx_HAL_Driver/Src/stm32f4xx_hal_i2c.c ****     if((pData == NULL) || (Size == 0))
 3903              		.loc 1 1889 0
 3904 001a BB69     		ldr	r3, [r7, #24]
 3905 001c 002B     		cmp	r3, #0
 3906 001e 02D0     		beq	.L226
 3907              		.loc 1 1889 0 is_stmt 0 discriminator 1
 3908 0020 BB8B     		ldrh	r3, [r7, #28]
 3909 0022 002B     		cmp	r3, #0
 3910 0024 01D1     		bne	.L227
 3911              	.L226:
1890:Drivers/STM32F4xx_HAL_Driver/Src/stm32f4xx_hal_i2c.c ****     {
1891:Drivers/STM32F4xx_HAL_Driver/Src/stm32f4xx_hal_i2c.c ****       return  HAL_ERROR;
 3912              		.loc 1 1891 0 is_stmt 1
 3913 0026 0123     		movs	r3, #1
 3914 0028 58E0     		b	.L228
 3915              	.L227:
1892:Drivers/STM32F4xx_HAL_Driver/Src/stm32f4xx_hal_i2c.c ****     }
1893:Drivers/STM32F4xx_HAL_Driver/Src/stm32f4xx_hal_i2c.c **** 
1894:Drivers/STM32F4xx_HAL_Driver/Src/stm32f4xx_hal_i2c.c ****     /* Wait until BUSY flag is reset */
1895:Drivers/STM32F4xx_HAL_Driver/Src/stm32f4xx_hal_i2c.c ****     if(I2C_WaitOnFlagUntilTimeout(hi2c, I2C_FLAG_BUSY, SET, I2C_TIMEOUT_BUSY_FLAG) != HAL_OK)
 3916              		.loc 1 1895 0
 3917 002a F868     		ldr	r0, [r7, #12]
 3918 002c 2D49     		ldr	r1, .L233
 3919 002e 0122     		movs	r2, #1
 3920 0030 42F21073 		movw	r3, #10000
 3921 0034 FFF7FEFF 		bl	I2C_WaitOnFlagUntilTimeout
 3922 0038 0346     		mov	r3, r0
 3923 003a 002B     		cmp	r3, #0
 3924 003c 01D0     		beq	.L229
1896:Drivers/STM32F4xx_HAL_Driver/Src/stm32f4xx_hal_i2c.c ****     {
1897:Drivers/STM32F4xx_HAL_Driver/Src/stm32f4xx_hal_i2c.c ****       return HAL_BUSY;
 3925              		.loc 1 1897 0
 3926 003e 0223     		movs	r3, #2
 3927 0040 4CE0     		b	.L228
 3928              	.L229:
1898:Drivers/STM32F4xx_HAL_Driver/Src/stm32f4xx_hal_i2c.c ****     }
1899:Drivers/STM32F4xx_HAL_Driver/Src/stm32f4xx_hal_i2c.c **** 
1900:Drivers/STM32F4xx_HAL_Driver/Src/stm32f4xx_hal_i2c.c ****     /* Process Locked */
1901:Drivers/STM32F4xx_HAL_Driver/Src/stm32f4xx_hal_i2c.c ****     __HAL_LOCK(hi2c);
 3929              		.loc 1 1901 0
 3930 0042 FB68     		ldr	r3, [r7, #12]
 3931 0044 93F83430 		ldrb	r3, [r3, #52]	@ zero_extendqisi2
 3932 0048 012B     		cmp	r3, #1
 3933 004a 01D1     		bne	.L230
 3934              		.loc 1 1901 0 is_stmt 0 discriminator 1
 3935 004c 0223     		movs	r3, #2
 3936 004e 45E0     		b	.L228
 3937              	.L230:
 3938              		.loc 1 1901 0 discriminator 2
 3939 0050 FB68     		ldr	r3, [r7, #12]
 3940 0052 0122     		movs	r2, #1
 3941 0054 83F83420 		strb	r2, [r3, #52]
1902:Drivers/STM32F4xx_HAL_Driver/Src/stm32f4xx_hal_i2c.c ****     
1903:Drivers/STM32F4xx_HAL_Driver/Src/stm32f4xx_hal_i2c.c ****     /* Disable Pos */
1904:Drivers/STM32F4xx_HAL_Driver/Src/stm32f4xx_hal_i2c.c ****     hi2c->Instance->CR1 &= ~I2C_CR1_POS;
ARM GAS  /tmp/cc5bMm9J.s 			page 103


 3942              		.loc 1 1904 0 is_stmt 1 discriminator 2
 3943 0058 FB68     		ldr	r3, [r7, #12]
 3944 005a 1B68     		ldr	r3, [r3]
 3945 005c FA68     		ldr	r2, [r7, #12]
 3946 005e 1268     		ldr	r2, [r2]
 3947 0060 1268     		ldr	r2, [r2]
 3948 0062 22F40062 		bic	r2, r2, #2048
 3949 0066 1A60     		str	r2, [r3]
1905:Drivers/STM32F4xx_HAL_Driver/Src/stm32f4xx_hal_i2c.c **** 
1906:Drivers/STM32F4xx_HAL_Driver/Src/stm32f4xx_hal_i2c.c ****     hi2c->State = HAL_I2C_STATE_MEM_BUSY_TX;
 3950              		.loc 1 1906 0 discriminator 2
 3951 0068 FB68     		ldr	r3, [r7, #12]
 3952 006a 3222     		movs	r2, #50
 3953 006c 83F83520 		strb	r2, [r3, #53]
1907:Drivers/STM32F4xx_HAL_Driver/Src/stm32f4xx_hal_i2c.c ****     hi2c->ErrorCode = HAL_I2C_ERROR_NONE;
 3954              		.loc 1 1907 0 discriminator 2
 3955 0070 FB68     		ldr	r3, [r7, #12]
 3956 0072 0022     		movs	r2, #0
 3957 0074 9A63     		str	r2, [r3, #56]
1908:Drivers/STM32F4xx_HAL_Driver/Src/stm32f4xx_hal_i2c.c **** 
1909:Drivers/STM32F4xx_HAL_Driver/Src/stm32f4xx_hal_i2c.c ****     hi2c->pBuffPtr = pData;
 3958              		.loc 1 1909 0 discriminator 2
 3959 0076 FB68     		ldr	r3, [r7, #12]
 3960 0078 BA69     		ldr	r2, [r7, #24]
 3961 007a 5A62     		str	r2, [r3, #36]
1910:Drivers/STM32F4xx_HAL_Driver/Src/stm32f4xx_hal_i2c.c ****     hi2c->XferSize = Size;
 3962              		.loc 1 1910 0 discriminator 2
 3963 007c FB68     		ldr	r3, [r7, #12]
 3964 007e BA8B     		ldrh	r2, [r7, #28]	@ movhi
 3965 0080 1A85     		strh	r2, [r3, #40]	@ movhi
1911:Drivers/STM32F4xx_HAL_Driver/Src/stm32f4xx_hal_i2c.c ****     hi2c->XferCount = Size;
 3966              		.loc 1 1911 0 discriminator 2
 3967 0082 FB68     		ldr	r3, [r7, #12]
 3968 0084 BA8B     		ldrh	r2, [r7, #28]	@ movhi
 3969 0086 5A85     		strh	r2, [r3, #42]	@ movhi
1912:Drivers/STM32F4xx_HAL_Driver/Src/stm32f4xx_hal_i2c.c **** 
1913:Drivers/STM32F4xx_HAL_Driver/Src/stm32f4xx_hal_i2c.c ****     /* Send Slave Address and Memory Address */
1914:Drivers/STM32F4xx_HAL_Driver/Src/stm32f4xx_hal_i2c.c ****     if(I2C_RequestMemoryWrite(hi2c, DevAddress, MemAddress, MemAddSize, I2C_TIMEOUT_FLAG) != HAL_OK
 3970              		.loc 1 1914 0 discriminator 2
 3971 0088 7989     		ldrh	r1, [r7, #10]
 3972 008a 3A89     		ldrh	r2, [r7, #8]
 3973 008c FB88     		ldrh	r3, [r7, #6]
 3974 008e 2320     		movs	r0, #35
 3975 0090 0090     		str	r0, [sp]
 3976 0092 F868     		ldr	r0, [r7, #12]
 3977 0094 FFF7FEFF 		bl	I2C_RequestMemoryWrite
 3978 0098 0346     		mov	r3, r0
 3979 009a 002B     		cmp	r3, #0
 3980 009c 0FD0     		beq	.L231
1915:Drivers/STM32F4xx_HAL_Driver/Src/stm32f4xx_hal_i2c.c ****     {
1916:Drivers/STM32F4xx_HAL_Driver/Src/stm32f4xx_hal_i2c.c ****       if(hi2c->ErrorCode == HAL_I2C_ERROR_AF)
 3981              		.loc 1 1916 0
 3982 009e FB68     		ldr	r3, [r7, #12]
 3983 00a0 9B6B     		ldr	r3, [r3, #56]
 3984 00a2 042B     		cmp	r3, #4
 3985 00a4 05D1     		bne	.L232
1917:Drivers/STM32F4xx_HAL_Driver/Src/stm32f4xx_hal_i2c.c ****       {
ARM GAS  /tmp/cc5bMm9J.s 			page 104


1918:Drivers/STM32F4xx_HAL_Driver/Src/stm32f4xx_hal_i2c.c ****         /* Process Unlocked */
1919:Drivers/STM32F4xx_HAL_Driver/Src/stm32f4xx_hal_i2c.c ****         __HAL_UNLOCK(hi2c);
 3986              		.loc 1 1919 0
 3987 00a6 FB68     		ldr	r3, [r7, #12]
 3988 00a8 0022     		movs	r2, #0
 3989 00aa 83F83420 		strb	r2, [r3, #52]
1920:Drivers/STM32F4xx_HAL_Driver/Src/stm32f4xx_hal_i2c.c ****         return HAL_ERROR;
 3990              		.loc 1 1920 0
 3991 00ae 0123     		movs	r3, #1
 3992 00b0 14E0     		b	.L228
 3993              	.L232:
1921:Drivers/STM32F4xx_HAL_Driver/Src/stm32f4xx_hal_i2c.c ****       }
1922:Drivers/STM32F4xx_HAL_Driver/Src/stm32f4xx_hal_i2c.c ****       else
1923:Drivers/STM32F4xx_HAL_Driver/Src/stm32f4xx_hal_i2c.c ****       {
1924:Drivers/STM32F4xx_HAL_Driver/Src/stm32f4xx_hal_i2c.c ****         /* Process Unlocked */
1925:Drivers/STM32F4xx_HAL_Driver/Src/stm32f4xx_hal_i2c.c ****         __HAL_UNLOCK(hi2c);
 3994              		.loc 1 1925 0
 3995 00b2 FB68     		ldr	r3, [r7, #12]
 3996 00b4 0022     		movs	r2, #0
 3997 00b6 83F83420 		strb	r2, [r3, #52]
1926:Drivers/STM32F4xx_HAL_Driver/Src/stm32f4xx_hal_i2c.c ****         return HAL_TIMEOUT;
 3998              		.loc 1 1926 0
 3999 00ba 0323     		movs	r3, #3
 4000 00bc 0EE0     		b	.L228
 4001              	.L231:
1927:Drivers/STM32F4xx_HAL_Driver/Src/stm32f4xx_hal_i2c.c ****       }
1928:Drivers/STM32F4xx_HAL_Driver/Src/stm32f4xx_hal_i2c.c ****     }
1929:Drivers/STM32F4xx_HAL_Driver/Src/stm32f4xx_hal_i2c.c **** 
1930:Drivers/STM32F4xx_HAL_Driver/Src/stm32f4xx_hal_i2c.c ****     /* Process Unlocked */
1931:Drivers/STM32F4xx_HAL_Driver/Src/stm32f4xx_hal_i2c.c ****     __HAL_UNLOCK(hi2c);
 4002              		.loc 1 1931 0
 4003 00be FB68     		ldr	r3, [r7, #12]
 4004 00c0 0022     		movs	r2, #0
 4005 00c2 83F83420 		strb	r2, [r3, #52]
1932:Drivers/STM32F4xx_HAL_Driver/Src/stm32f4xx_hal_i2c.c **** 
1933:Drivers/STM32F4xx_HAL_Driver/Src/stm32f4xx_hal_i2c.c ****     /* Note : The I2C interrupts must be enabled after unlocking current process
1934:Drivers/STM32F4xx_HAL_Driver/Src/stm32f4xx_hal_i2c.c ****               to avoid the risk of I2C interrupt handle execution before current
1935:Drivers/STM32F4xx_HAL_Driver/Src/stm32f4xx_hal_i2c.c ****               process unlock */
1936:Drivers/STM32F4xx_HAL_Driver/Src/stm32f4xx_hal_i2c.c **** 
1937:Drivers/STM32F4xx_HAL_Driver/Src/stm32f4xx_hal_i2c.c ****     /* Enable EVT, BUF and ERR interrupt */
1938:Drivers/STM32F4xx_HAL_Driver/Src/stm32f4xx_hal_i2c.c ****     __HAL_I2C_ENABLE_IT(hi2c, I2C_IT_EVT | I2C_IT_BUF | I2C_IT_ERR);
 4006              		.loc 1 1938 0
 4007 00c6 FB68     		ldr	r3, [r7, #12]
 4008 00c8 1B68     		ldr	r3, [r3]
 4009 00ca FA68     		ldr	r2, [r7, #12]
 4010 00cc 1268     		ldr	r2, [r2]
 4011 00ce 5268     		ldr	r2, [r2, #4]
 4012 00d0 42F4E062 		orr	r2, r2, #1792
 4013 00d4 5A60     		str	r2, [r3, #4]
1939:Drivers/STM32F4xx_HAL_Driver/Src/stm32f4xx_hal_i2c.c **** 
1940:Drivers/STM32F4xx_HAL_Driver/Src/stm32f4xx_hal_i2c.c ****     return HAL_OK;
 4014              		.loc 1 1940 0
 4015 00d6 0023     		movs	r3, #0
 4016 00d8 00E0     		b	.L228
 4017              	.L225:
1941:Drivers/STM32F4xx_HAL_Driver/Src/stm32f4xx_hal_i2c.c ****   }
1942:Drivers/STM32F4xx_HAL_Driver/Src/stm32f4xx_hal_i2c.c ****   else
ARM GAS  /tmp/cc5bMm9J.s 			page 105


1943:Drivers/STM32F4xx_HAL_Driver/Src/stm32f4xx_hal_i2c.c ****   {
1944:Drivers/STM32F4xx_HAL_Driver/Src/stm32f4xx_hal_i2c.c ****     return HAL_BUSY;
 4018              		.loc 1 1944 0
 4019 00da 0223     		movs	r3, #2
 4020              	.L228:
1945:Drivers/STM32F4xx_HAL_Driver/Src/stm32f4xx_hal_i2c.c ****   }
1946:Drivers/STM32F4xx_HAL_Driver/Src/stm32f4xx_hal_i2c.c **** }
 4021              		.loc 1 1946 0
 4022 00dc 1846     		mov	r0, r3
 4023 00de 1037     		adds	r7, r7, #16
 4024 00e0 BD46     		mov	sp, r7
 4025              		@ sp needed
 4026 00e2 80BD     		pop	{r7, pc}
 4027              	.L234:
 4028              		.align	2
 4029              	.L233:
 4030 00e4 02001000 		.word	1048578
 4031              		.cfi_endproc
 4032              	.LFE143:
 4034              		.section	.text.HAL_I2C_Mem_Read_IT,"ax",%progbits
 4035              		.align	2
 4036              		.global	HAL_I2C_Mem_Read_IT
 4037              		.thumb
 4038              		.thumb_func
 4040              	HAL_I2C_Mem_Read_IT:
 4041              	.LFB144:
1947:Drivers/STM32F4xx_HAL_Driver/Src/stm32f4xx_hal_i2c.c **** 
1948:Drivers/STM32F4xx_HAL_Driver/Src/stm32f4xx_hal_i2c.c **** /**
1949:Drivers/STM32F4xx_HAL_Driver/Src/stm32f4xx_hal_i2c.c ****   * @brief  Read an amount of data in no-blocking mode with Interrupt from a specific memory addres
1950:Drivers/STM32F4xx_HAL_Driver/Src/stm32f4xx_hal_i2c.c ****   * @param  hi2c: pointer to a I2C_HandleTypeDef structure that contains
1951:Drivers/STM32F4xx_HAL_Driver/Src/stm32f4xx_hal_i2c.c ****   *         the configuration information for I2C module
1952:Drivers/STM32F4xx_HAL_Driver/Src/stm32f4xx_hal_i2c.c ****   * @param  DevAddress: Target device address
1953:Drivers/STM32F4xx_HAL_Driver/Src/stm32f4xx_hal_i2c.c ****   * @param  MemAddress: Internal memory address
1954:Drivers/STM32F4xx_HAL_Driver/Src/stm32f4xx_hal_i2c.c ****   * @param  MemAddSize: Size of internal memory address
1955:Drivers/STM32F4xx_HAL_Driver/Src/stm32f4xx_hal_i2c.c ****   * @param  pData: Pointer to data buffer
1956:Drivers/STM32F4xx_HAL_Driver/Src/stm32f4xx_hal_i2c.c ****   * @param  Size: Amount of data to be sent
1957:Drivers/STM32F4xx_HAL_Driver/Src/stm32f4xx_hal_i2c.c ****   * @retval HAL status
1958:Drivers/STM32F4xx_HAL_Driver/Src/stm32f4xx_hal_i2c.c ****   */
1959:Drivers/STM32F4xx_HAL_Driver/Src/stm32f4xx_hal_i2c.c **** HAL_StatusTypeDef HAL_I2C_Mem_Read_IT(I2C_HandleTypeDef *hi2c, uint16_t DevAddress, uint16_t MemAdd
1960:Drivers/STM32F4xx_HAL_Driver/Src/stm32f4xx_hal_i2c.c **** {
 4042              		.loc 1 1960 0
 4043              		.cfi_startproc
 4044              		@ args = 8, pretend = 0, frame = 32
 4045              		@ frame_needed = 1, uses_anonymous_args = 0
 4046 0000 80B5     		push	{r7, lr}
 4047              	.LCFI57:
 4048              		.cfi_def_cfa_offset 8
 4049              		.cfi_offset 7, -8
 4050              		.cfi_offset 14, -4
 4051 0002 8AB0     		sub	sp, sp, #40
 4052              	.LCFI58:
 4053              		.cfi_def_cfa_offset 48
 4054 0004 02AF     		add	r7, sp, #8
 4055              	.LCFI59:
 4056              		.cfi_def_cfa 7, 40
 4057 0006 F860     		str	r0, [r7, #12]
 4058 0008 7981     		strh	r1, [r7, #10]	@ movhi
ARM GAS  /tmp/cc5bMm9J.s 			page 106


 4059 000a 3A81     		strh	r2, [r7, #8]	@ movhi
 4060 000c FB80     		strh	r3, [r7, #6]	@ movhi
1961:Drivers/STM32F4xx_HAL_Driver/Src/stm32f4xx_hal_i2c.c ****   /* Check the parameters */
1962:Drivers/STM32F4xx_HAL_Driver/Src/stm32f4xx_hal_i2c.c ****   assert_param(IS_I2C_MEMADD_SIZE(MemAddSize));
1963:Drivers/STM32F4xx_HAL_Driver/Src/stm32f4xx_hal_i2c.c **** 
1964:Drivers/STM32F4xx_HAL_Driver/Src/stm32f4xx_hal_i2c.c ****   if(hi2c->State == HAL_I2C_STATE_READY)
 4061              		.loc 1 1964 0
 4062 000e FB68     		ldr	r3, [r7, #12]
 4063 0010 93F83530 		ldrb	r3, [r3, #53]
 4064 0014 DBB2     		uxtb	r3, r3
 4065 0016 012B     		cmp	r3, #1
 4066 0018 40F0AF80 		bne	.L236
1965:Drivers/STM32F4xx_HAL_Driver/Src/stm32f4xx_hal_i2c.c ****   {
1966:Drivers/STM32F4xx_HAL_Driver/Src/stm32f4xx_hal_i2c.c ****     if((pData == NULL) || (Size == 0))
 4067              		.loc 1 1966 0
 4068 001c BB6A     		ldr	r3, [r7, #40]
 4069 001e 002B     		cmp	r3, #0
 4070 0020 02D0     		beq	.L237
 4071              		.loc 1 1966 0 is_stmt 0 discriminator 1
 4072 0022 BB8D     		ldrh	r3, [r7, #44]
 4073 0024 002B     		cmp	r3, #0
 4074 0026 01D1     		bne	.L238
 4075              	.L237:
1967:Drivers/STM32F4xx_HAL_Driver/Src/stm32f4xx_hal_i2c.c ****     {
1968:Drivers/STM32F4xx_HAL_Driver/Src/stm32f4xx_hal_i2c.c ****       return  HAL_ERROR;
 4076              		.loc 1 1968 0 is_stmt 1
 4077 0028 0123     		movs	r3, #1
 4078 002a A7E0     		b	.L239
 4079              	.L238:
1969:Drivers/STM32F4xx_HAL_Driver/Src/stm32f4xx_hal_i2c.c ****     }
1970:Drivers/STM32F4xx_HAL_Driver/Src/stm32f4xx_hal_i2c.c **** 
1971:Drivers/STM32F4xx_HAL_Driver/Src/stm32f4xx_hal_i2c.c ****     /* Wait until BUSY flag is reset */
1972:Drivers/STM32F4xx_HAL_Driver/Src/stm32f4xx_hal_i2c.c ****     if(I2C_WaitOnFlagUntilTimeout(hi2c, I2C_FLAG_BUSY, SET, I2C_TIMEOUT_BUSY_FLAG) != HAL_OK)
 4080              		.loc 1 1972 0
 4081 002c F868     		ldr	r0, [r7, #12]
 4082 002e 5549     		ldr	r1, .L247
 4083 0030 0122     		movs	r2, #1
 4084 0032 42F21073 		movw	r3, #10000
 4085 0036 FFF7FEFF 		bl	I2C_WaitOnFlagUntilTimeout
 4086 003a 0346     		mov	r3, r0
 4087 003c 002B     		cmp	r3, #0
 4088 003e 01D0     		beq	.L240
1973:Drivers/STM32F4xx_HAL_Driver/Src/stm32f4xx_hal_i2c.c ****     {
1974:Drivers/STM32F4xx_HAL_Driver/Src/stm32f4xx_hal_i2c.c ****       return HAL_BUSY;
 4089              		.loc 1 1974 0
 4090 0040 0223     		movs	r3, #2
 4091 0042 9BE0     		b	.L239
 4092              	.L240:
1975:Drivers/STM32F4xx_HAL_Driver/Src/stm32f4xx_hal_i2c.c ****     }
1976:Drivers/STM32F4xx_HAL_Driver/Src/stm32f4xx_hal_i2c.c **** 
1977:Drivers/STM32F4xx_HAL_Driver/Src/stm32f4xx_hal_i2c.c ****     /* Process Locked */
1978:Drivers/STM32F4xx_HAL_Driver/Src/stm32f4xx_hal_i2c.c ****     __HAL_LOCK(hi2c);
 4093              		.loc 1 1978 0
 4094 0044 FB68     		ldr	r3, [r7, #12]
 4095 0046 93F83430 		ldrb	r3, [r3, #52]	@ zero_extendqisi2
 4096 004a 012B     		cmp	r3, #1
 4097 004c 01D1     		bne	.L241
ARM GAS  /tmp/cc5bMm9J.s 			page 107


 4098              		.loc 1 1978 0 is_stmt 0 discriminator 1
 4099 004e 0223     		movs	r3, #2
 4100 0050 94E0     		b	.L239
 4101              	.L241:
 4102              		.loc 1 1978 0 discriminator 2
 4103 0052 FB68     		ldr	r3, [r7, #12]
 4104 0054 0122     		movs	r2, #1
 4105 0056 83F83420 		strb	r2, [r3, #52]
1979:Drivers/STM32F4xx_HAL_Driver/Src/stm32f4xx_hal_i2c.c ****     
1980:Drivers/STM32F4xx_HAL_Driver/Src/stm32f4xx_hal_i2c.c ****     /* Disable Pos */
1981:Drivers/STM32F4xx_HAL_Driver/Src/stm32f4xx_hal_i2c.c ****     hi2c->Instance->CR1 &= ~I2C_CR1_POS;
 4106              		.loc 1 1981 0 is_stmt 1 discriminator 2
 4107 005a FB68     		ldr	r3, [r7, #12]
 4108 005c 1B68     		ldr	r3, [r3]
 4109 005e FA68     		ldr	r2, [r7, #12]
 4110 0060 1268     		ldr	r2, [r2]
 4111 0062 1268     		ldr	r2, [r2]
 4112 0064 22F40062 		bic	r2, r2, #2048
 4113 0068 1A60     		str	r2, [r3]
1982:Drivers/STM32F4xx_HAL_Driver/Src/stm32f4xx_hal_i2c.c **** 
1983:Drivers/STM32F4xx_HAL_Driver/Src/stm32f4xx_hal_i2c.c ****     hi2c->State = HAL_I2C_STATE_MEM_BUSY_RX;
 4114              		.loc 1 1983 0 discriminator 2
 4115 006a FB68     		ldr	r3, [r7, #12]
 4116 006c 4222     		movs	r2, #66
 4117 006e 83F83520 		strb	r2, [r3, #53]
1984:Drivers/STM32F4xx_HAL_Driver/Src/stm32f4xx_hal_i2c.c ****     hi2c->ErrorCode = HAL_I2C_ERROR_NONE;
 4118              		.loc 1 1984 0 discriminator 2
 4119 0072 FB68     		ldr	r3, [r7, #12]
 4120 0074 0022     		movs	r2, #0
 4121 0076 9A63     		str	r2, [r3, #56]
1985:Drivers/STM32F4xx_HAL_Driver/Src/stm32f4xx_hal_i2c.c **** 
1986:Drivers/STM32F4xx_HAL_Driver/Src/stm32f4xx_hal_i2c.c ****     hi2c->pBuffPtr = pData;
 4122              		.loc 1 1986 0 discriminator 2
 4123 0078 FB68     		ldr	r3, [r7, #12]
 4124 007a BA6A     		ldr	r2, [r7, #40]
 4125 007c 5A62     		str	r2, [r3, #36]
1987:Drivers/STM32F4xx_HAL_Driver/Src/stm32f4xx_hal_i2c.c ****     hi2c->XferSize = Size;
 4126              		.loc 1 1987 0 discriminator 2
 4127 007e FB68     		ldr	r3, [r7, #12]
 4128 0080 BA8D     		ldrh	r2, [r7, #44]	@ movhi
 4129 0082 1A85     		strh	r2, [r3, #40]	@ movhi
1988:Drivers/STM32F4xx_HAL_Driver/Src/stm32f4xx_hal_i2c.c ****     hi2c->XferCount = Size;
 4130              		.loc 1 1988 0 discriminator 2
 4131 0084 FB68     		ldr	r3, [r7, #12]
 4132 0086 BA8D     		ldrh	r2, [r7, #44]	@ movhi
 4133 0088 5A85     		strh	r2, [r3, #42]	@ movhi
1989:Drivers/STM32F4xx_HAL_Driver/Src/stm32f4xx_hal_i2c.c **** 
1990:Drivers/STM32F4xx_HAL_Driver/Src/stm32f4xx_hal_i2c.c ****     /* Send Slave Address and Memory Address */
1991:Drivers/STM32F4xx_HAL_Driver/Src/stm32f4xx_hal_i2c.c ****     if(I2C_RequestMemoryRead(hi2c, DevAddress, MemAddress, MemAddSize, I2C_TIMEOUT_FLAG) != HAL_OK)
 4134              		.loc 1 1991 0 discriminator 2
 4135 008a 7989     		ldrh	r1, [r7, #10]
 4136 008c 3A89     		ldrh	r2, [r7, #8]
 4137 008e FB88     		ldrh	r3, [r7, #6]
 4138 0090 2320     		movs	r0, #35
 4139 0092 0090     		str	r0, [sp]
 4140 0094 F868     		ldr	r0, [r7, #12]
 4141 0096 FFF7FEFF 		bl	I2C_RequestMemoryRead
ARM GAS  /tmp/cc5bMm9J.s 			page 108


 4142 009a 0346     		mov	r3, r0
 4143 009c 002B     		cmp	r3, #0
 4144 009e 0FD0     		beq	.L242
1992:Drivers/STM32F4xx_HAL_Driver/Src/stm32f4xx_hal_i2c.c ****     {
1993:Drivers/STM32F4xx_HAL_Driver/Src/stm32f4xx_hal_i2c.c ****       if(hi2c->ErrorCode == HAL_I2C_ERROR_AF)
 4145              		.loc 1 1993 0
 4146 00a0 FB68     		ldr	r3, [r7, #12]
 4147 00a2 9B6B     		ldr	r3, [r3, #56]
 4148 00a4 042B     		cmp	r3, #4
 4149 00a6 05D1     		bne	.L243
1994:Drivers/STM32F4xx_HAL_Driver/Src/stm32f4xx_hal_i2c.c ****       {
1995:Drivers/STM32F4xx_HAL_Driver/Src/stm32f4xx_hal_i2c.c ****         /* Process Unlocked */
1996:Drivers/STM32F4xx_HAL_Driver/Src/stm32f4xx_hal_i2c.c ****         __HAL_UNLOCK(hi2c);
 4150              		.loc 1 1996 0
 4151 00a8 FB68     		ldr	r3, [r7, #12]
 4152 00aa 0022     		movs	r2, #0
 4153 00ac 83F83420 		strb	r2, [r3, #52]
1997:Drivers/STM32F4xx_HAL_Driver/Src/stm32f4xx_hal_i2c.c ****         return HAL_ERROR;
 4154              		.loc 1 1997 0
 4155 00b0 0123     		movs	r3, #1
 4156 00b2 63E0     		b	.L239
 4157              	.L243:
1998:Drivers/STM32F4xx_HAL_Driver/Src/stm32f4xx_hal_i2c.c ****       }
1999:Drivers/STM32F4xx_HAL_Driver/Src/stm32f4xx_hal_i2c.c ****       else
2000:Drivers/STM32F4xx_HAL_Driver/Src/stm32f4xx_hal_i2c.c ****       {
2001:Drivers/STM32F4xx_HAL_Driver/Src/stm32f4xx_hal_i2c.c ****         /* Process Unlocked */
2002:Drivers/STM32F4xx_HAL_Driver/Src/stm32f4xx_hal_i2c.c ****         __HAL_UNLOCK(hi2c);
 4158              		.loc 1 2002 0
 4159 00b4 FB68     		ldr	r3, [r7, #12]
 4160 00b6 0022     		movs	r2, #0
 4161 00b8 83F83420 		strb	r2, [r3, #52]
2003:Drivers/STM32F4xx_HAL_Driver/Src/stm32f4xx_hal_i2c.c ****         return HAL_TIMEOUT;
 4162              		.loc 1 2003 0
 4163 00bc 0323     		movs	r3, #3
 4164 00be 5DE0     		b	.L239
 4165              	.L242:
2004:Drivers/STM32F4xx_HAL_Driver/Src/stm32f4xx_hal_i2c.c ****       }
2005:Drivers/STM32F4xx_HAL_Driver/Src/stm32f4xx_hal_i2c.c ****     }
2006:Drivers/STM32F4xx_HAL_Driver/Src/stm32f4xx_hal_i2c.c **** 
2007:Drivers/STM32F4xx_HAL_Driver/Src/stm32f4xx_hal_i2c.c ****     if(hi2c->XferCount == 1)
 4166              		.loc 1 2007 0
 4167 00c0 FB68     		ldr	r3, [r7, #12]
 4168 00c2 5B8D     		ldrh	r3, [r3, #42]	@ movhi
 4169 00c4 9BB2     		uxth	r3, r3
 4170 00c6 012B     		cmp	r3, #1
 4171 00c8 19D1     		bne	.L244
2008:Drivers/STM32F4xx_HAL_Driver/Src/stm32f4xx_hal_i2c.c ****     {
2009:Drivers/STM32F4xx_HAL_Driver/Src/stm32f4xx_hal_i2c.c ****       /* Disable Acknowledge */
2010:Drivers/STM32F4xx_HAL_Driver/Src/stm32f4xx_hal_i2c.c ****       hi2c->Instance->CR1 &= ~I2C_CR1_ACK;
 4172              		.loc 1 2010 0
 4173 00ca FB68     		ldr	r3, [r7, #12]
 4174 00cc 1B68     		ldr	r3, [r3]
 4175 00ce FA68     		ldr	r2, [r7, #12]
 4176 00d0 1268     		ldr	r2, [r2]
 4177 00d2 1268     		ldr	r2, [r2]
 4178 00d4 22F48062 		bic	r2, r2, #1024
 4179 00d8 1A60     		str	r2, [r3]
ARM GAS  /tmp/cc5bMm9J.s 			page 109


 4180              	.LBB23:
2011:Drivers/STM32F4xx_HAL_Driver/Src/stm32f4xx_hal_i2c.c **** 
2012:Drivers/STM32F4xx_HAL_Driver/Src/stm32f4xx_hal_i2c.c ****       /* Clear ADDR flag */
2013:Drivers/STM32F4xx_HAL_Driver/Src/stm32f4xx_hal_i2c.c ****       __HAL_I2C_CLEAR_ADDRFLAG(hi2c);
 4181              		.loc 1 2013 0
 4182 00da FB68     		ldr	r3, [r7, #12]
 4183 00dc 1B68     		ldr	r3, [r3]
 4184 00de 5B69     		ldr	r3, [r3, #20]
 4185 00e0 FB61     		str	r3, [r7, #28]
 4186 00e2 FB68     		ldr	r3, [r7, #12]
 4187 00e4 1B68     		ldr	r3, [r3]
 4188 00e6 9B69     		ldr	r3, [r3, #24]
 4189 00e8 FB61     		str	r3, [r7, #28]
 4190 00ea FB69     		ldr	r3, [r7, #28]
 4191              	.LBE23:
2014:Drivers/STM32F4xx_HAL_Driver/Src/stm32f4xx_hal_i2c.c **** 
2015:Drivers/STM32F4xx_HAL_Driver/Src/stm32f4xx_hal_i2c.c ****       /* Generate Stop */
2016:Drivers/STM32F4xx_HAL_Driver/Src/stm32f4xx_hal_i2c.c ****       hi2c->Instance->CR1 |= I2C_CR1_STOP;
 4192              		.loc 1 2016 0
 4193 00ec FB68     		ldr	r3, [r7, #12]
 4194 00ee 1B68     		ldr	r3, [r3]
 4195 00f0 FA68     		ldr	r2, [r7, #12]
 4196 00f2 1268     		ldr	r2, [r2]
 4197 00f4 1268     		ldr	r2, [r2]
 4198 00f6 42F40072 		orr	r2, r2, #512
 4199 00fa 1A60     		str	r2, [r3]
 4200 00fc 2FE0     		b	.L245
 4201              	.L244:
2017:Drivers/STM32F4xx_HAL_Driver/Src/stm32f4xx_hal_i2c.c ****     }
2018:Drivers/STM32F4xx_HAL_Driver/Src/stm32f4xx_hal_i2c.c ****     else if(hi2c->XferCount == 2)
 4202              		.loc 1 2018 0
 4203 00fe FB68     		ldr	r3, [r7, #12]
 4204 0100 5B8D     		ldrh	r3, [r3, #42]	@ movhi
 4205 0102 9BB2     		uxth	r3, r3
 4206 0104 022B     		cmp	r3, #2
 4207 0106 19D1     		bne	.L246
2019:Drivers/STM32F4xx_HAL_Driver/Src/stm32f4xx_hal_i2c.c ****     {
2020:Drivers/STM32F4xx_HAL_Driver/Src/stm32f4xx_hal_i2c.c ****       /* Disable Acknowledge */
2021:Drivers/STM32F4xx_HAL_Driver/Src/stm32f4xx_hal_i2c.c ****       hi2c->Instance->CR1 &= ~I2C_CR1_ACK;
 4208              		.loc 1 2021 0
 4209 0108 FB68     		ldr	r3, [r7, #12]
 4210 010a 1B68     		ldr	r3, [r3]
 4211 010c FA68     		ldr	r2, [r7, #12]
 4212 010e 1268     		ldr	r2, [r2]
 4213 0110 1268     		ldr	r2, [r2]
 4214 0112 22F48062 		bic	r2, r2, #1024
 4215 0116 1A60     		str	r2, [r3]
2022:Drivers/STM32F4xx_HAL_Driver/Src/stm32f4xx_hal_i2c.c **** 
2023:Drivers/STM32F4xx_HAL_Driver/Src/stm32f4xx_hal_i2c.c ****       /* Enable Pos */
2024:Drivers/STM32F4xx_HAL_Driver/Src/stm32f4xx_hal_i2c.c ****       hi2c->Instance->CR1 |= I2C_CR1_POS;
 4216              		.loc 1 2024 0
 4217 0118 FB68     		ldr	r3, [r7, #12]
 4218 011a 1B68     		ldr	r3, [r3]
 4219 011c FA68     		ldr	r2, [r7, #12]
 4220 011e 1268     		ldr	r2, [r2]
 4221 0120 1268     		ldr	r2, [r2]
 4222 0122 42F40062 		orr	r2, r2, #2048
ARM GAS  /tmp/cc5bMm9J.s 			page 110


 4223 0126 1A60     		str	r2, [r3]
 4224              	.LBB24:
2025:Drivers/STM32F4xx_HAL_Driver/Src/stm32f4xx_hal_i2c.c **** 
2026:Drivers/STM32F4xx_HAL_Driver/Src/stm32f4xx_hal_i2c.c ****       /* Clear ADDR flag */
2027:Drivers/STM32F4xx_HAL_Driver/Src/stm32f4xx_hal_i2c.c ****       __HAL_I2C_CLEAR_ADDRFLAG(hi2c);
 4225              		.loc 1 2027 0
 4226 0128 FB68     		ldr	r3, [r7, #12]
 4227 012a 1B68     		ldr	r3, [r3]
 4228 012c 5B69     		ldr	r3, [r3, #20]
 4229 012e BB61     		str	r3, [r7, #24]
 4230 0130 FB68     		ldr	r3, [r7, #12]
 4231 0132 1B68     		ldr	r3, [r3]
 4232 0134 9B69     		ldr	r3, [r3, #24]
 4233 0136 BB61     		str	r3, [r7, #24]
 4234 0138 BB69     		ldr	r3, [r7, #24]
 4235              	.LBE24:
 4236 013a 10E0     		b	.L245
 4237              	.L246:
2028:Drivers/STM32F4xx_HAL_Driver/Src/stm32f4xx_hal_i2c.c ****     }
2029:Drivers/STM32F4xx_HAL_Driver/Src/stm32f4xx_hal_i2c.c ****     else
2030:Drivers/STM32F4xx_HAL_Driver/Src/stm32f4xx_hal_i2c.c ****     {
2031:Drivers/STM32F4xx_HAL_Driver/Src/stm32f4xx_hal_i2c.c ****       /* Enable Acknowledge */
2032:Drivers/STM32F4xx_HAL_Driver/Src/stm32f4xx_hal_i2c.c ****       hi2c->Instance->CR1 |= I2C_CR1_ACK;
 4238              		.loc 1 2032 0
 4239 013c FB68     		ldr	r3, [r7, #12]
 4240 013e 1B68     		ldr	r3, [r3]
 4241 0140 FA68     		ldr	r2, [r7, #12]
 4242 0142 1268     		ldr	r2, [r2]
 4243 0144 1268     		ldr	r2, [r2]
 4244 0146 42F48062 		orr	r2, r2, #1024
 4245 014a 1A60     		str	r2, [r3]
 4246              	.LBB25:
2033:Drivers/STM32F4xx_HAL_Driver/Src/stm32f4xx_hal_i2c.c **** 
2034:Drivers/STM32F4xx_HAL_Driver/Src/stm32f4xx_hal_i2c.c ****       /* Clear ADDR flag */
2035:Drivers/STM32F4xx_HAL_Driver/Src/stm32f4xx_hal_i2c.c ****       __HAL_I2C_CLEAR_ADDRFLAG(hi2c);
 4247              		.loc 1 2035 0
 4248 014c FB68     		ldr	r3, [r7, #12]
 4249 014e 1B68     		ldr	r3, [r3]
 4250 0150 5B69     		ldr	r3, [r3, #20]
 4251 0152 7B61     		str	r3, [r7, #20]
 4252 0154 FB68     		ldr	r3, [r7, #12]
 4253 0156 1B68     		ldr	r3, [r3]
 4254 0158 9B69     		ldr	r3, [r3, #24]
 4255 015a 7B61     		str	r3, [r7, #20]
 4256 015c 7B69     		ldr	r3, [r7, #20]
 4257              	.L245:
 4258              	.LBE25:
2036:Drivers/STM32F4xx_HAL_Driver/Src/stm32f4xx_hal_i2c.c ****     }
2037:Drivers/STM32F4xx_HAL_Driver/Src/stm32f4xx_hal_i2c.c **** 
2038:Drivers/STM32F4xx_HAL_Driver/Src/stm32f4xx_hal_i2c.c ****     /* Process Unlocked */
2039:Drivers/STM32F4xx_HAL_Driver/Src/stm32f4xx_hal_i2c.c ****     __HAL_UNLOCK(hi2c);
 4259              		.loc 1 2039 0
 4260 015e FB68     		ldr	r3, [r7, #12]
 4261 0160 0022     		movs	r2, #0
 4262 0162 83F83420 		strb	r2, [r3, #52]
2040:Drivers/STM32F4xx_HAL_Driver/Src/stm32f4xx_hal_i2c.c **** 
2041:Drivers/STM32F4xx_HAL_Driver/Src/stm32f4xx_hal_i2c.c ****     /* Note : The I2C interrupts must be enabled after unlocking current process
ARM GAS  /tmp/cc5bMm9J.s 			page 111


2042:Drivers/STM32F4xx_HAL_Driver/Src/stm32f4xx_hal_i2c.c ****               to avoid the risk of I2C interrupt handle execution before current
2043:Drivers/STM32F4xx_HAL_Driver/Src/stm32f4xx_hal_i2c.c ****               process unlock */
2044:Drivers/STM32F4xx_HAL_Driver/Src/stm32f4xx_hal_i2c.c **** 
2045:Drivers/STM32F4xx_HAL_Driver/Src/stm32f4xx_hal_i2c.c ****     /* Enable EVT, BUF and ERR interrupt */
2046:Drivers/STM32F4xx_HAL_Driver/Src/stm32f4xx_hal_i2c.c ****     __HAL_I2C_ENABLE_IT(hi2c, I2C_IT_EVT | I2C_IT_BUF | I2C_IT_ERR);
 4263              		.loc 1 2046 0
 4264 0166 FB68     		ldr	r3, [r7, #12]
 4265 0168 1B68     		ldr	r3, [r3]
 4266 016a FA68     		ldr	r2, [r7, #12]
 4267 016c 1268     		ldr	r2, [r2]
 4268 016e 5268     		ldr	r2, [r2, #4]
 4269 0170 42F4E062 		orr	r2, r2, #1792
 4270 0174 5A60     		str	r2, [r3, #4]
2047:Drivers/STM32F4xx_HAL_Driver/Src/stm32f4xx_hal_i2c.c **** 
2048:Drivers/STM32F4xx_HAL_Driver/Src/stm32f4xx_hal_i2c.c ****     return HAL_OK;
 4271              		.loc 1 2048 0
 4272 0176 0023     		movs	r3, #0
 4273 0178 00E0     		b	.L239
 4274              	.L236:
2049:Drivers/STM32F4xx_HAL_Driver/Src/stm32f4xx_hal_i2c.c ****   }
2050:Drivers/STM32F4xx_HAL_Driver/Src/stm32f4xx_hal_i2c.c ****   else
2051:Drivers/STM32F4xx_HAL_Driver/Src/stm32f4xx_hal_i2c.c ****   {
2052:Drivers/STM32F4xx_HAL_Driver/Src/stm32f4xx_hal_i2c.c ****     return HAL_BUSY;
 4275              		.loc 1 2052 0
 4276 017a 0223     		movs	r3, #2
 4277              	.L239:
2053:Drivers/STM32F4xx_HAL_Driver/Src/stm32f4xx_hal_i2c.c ****   }
2054:Drivers/STM32F4xx_HAL_Driver/Src/stm32f4xx_hal_i2c.c **** }
 4278              		.loc 1 2054 0
 4279 017c 1846     		mov	r0, r3
 4280 017e 2037     		adds	r7, r7, #32
 4281 0180 BD46     		mov	sp, r7
 4282              		@ sp needed
 4283 0182 80BD     		pop	{r7, pc}
 4284              	.L248:
 4285              		.align	2
 4286              	.L247:
 4287 0184 02001000 		.word	1048578
 4288              		.cfi_endproc
 4289              	.LFE144:
 4291              		.section	.text.HAL_I2C_Mem_Write_DMA,"ax",%progbits
 4292              		.align	2
 4293              		.global	HAL_I2C_Mem_Write_DMA
 4294              		.thumb
 4295              		.thumb_func
 4297              	HAL_I2C_Mem_Write_DMA:
 4298              	.LFB145:
2055:Drivers/STM32F4xx_HAL_Driver/Src/stm32f4xx_hal_i2c.c **** /**
2056:Drivers/STM32F4xx_HAL_Driver/Src/stm32f4xx_hal_i2c.c ****   * @brief  Write an amount of data in no-blocking mode with DMA to a specific memory address
2057:Drivers/STM32F4xx_HAL_Driver/Src/stm32f4xx_hal_i2c.c ****   * @param  hi2c: pointer to a I2C_HandleTypeDef structure that contains
2058:Drivers/STM32F4xx_HAL_Driver/Src/stm32f4xx_hal_i2c.c ****   *         the configuration information for I2C module
2059:Drivers/STM32F4xx_HAL_Driver/Src/stm32f4xx_hal_i2c.c ****   * @param  DevAddress: Target device address
2060:Drivers/STM32F4xx_HAL_Driver/Src/stm32f4xx_hal_i2c.c ****   * @param  MemAddress: Internal memory address
2061:Drivers/STM32F4xx_HAL_Driver/Src/stm32f4xx_hal_i2c.c ****   * @param  MemAddSize: Size of internal memory address
2062:Drivers/STM32F4xx_HAL_Driver/Src/stm32f4xx_hal_i2c.c ****   * @param  pData: Pointer to data buffer
2063:Drivers/STM32F4xx_HAL_Driver/Src/stm32f4xx_hal_i2c.c ****   * @param  Size: Amount of data to be sent
2064:Drivers/STM32F4xx_HAL_Driver/Src/stm32f4xx_hal_i2c.c ****   * @retval HAL status
ARM GAS  /tmp/cc5bMm9J.s 			page 112


2065:Drivers/STM32F4xx_HAL_Driver/Src/stm32f4xx_hal_i2c.c ****   */
2066:Drivers/STM32F4xx_HAL_Driver/Src/stm32f4xx_hal_i2c.c **** HAL_StatusTypeDef HAL_I2C_Mem_Write_DMA(I2C_HandleTypeDef *hi2c, uint16_t DevAddress, uint16_t MemA
2067:Drivers/STM32F4xx_HAL_Driver/Src/stm32f4xx_hal_i2c.c **** {
 4299              		.loc 1 2067 0
 4300              		.cfi_startproc
 4301              		@ args = 8, pretend = 0, frame = 16
 4302              		@ frame_needed = 1, uses_anonymous_args = 0
 4303 0000 80B5     		push	{r7, lr}
 4304              	.LCFI60:
 4305              		.cfi_def_cfa_offset 8
 4306              		.cfi_offset 7, -8
 4307              		.cfi_offset 14, -4
 4308 0002 86B0     		sub	sp, sp, #24
 4309              	.LCFI61:
 4310              		.cfi_def_cfa_offset 32
 4311 0004 02AF     		add	r7, sp, #8
 4312              	.LCFI62:
 4313              		.cfi_def_cfa 7, 24
 4314 0006 F860     		str	r0, [r7, #12]
 4315 0008 7981     		strh	r1, [r7, #10]	@ movhi
 4316 000a 3A81     		strh	r2, [r7, #8]	@ movhi
 4317 000c FB80     		strh	r3, [r7, #6]	@ movhi
2068:Drivers/STM32F4xx_HAL_Driver/Src/stm32f4xx_hal_i2c.c ****   /* Check the parameters */
2069:Drivers/STM32F4xx_HAL_Driver/Src/stm32f4xx_hal_i2c.c ****   assert_param(IS_I2C_MEMADD_SIZE(MemAddSize));
2070:Drivers/STM32F4xx_HAL_Driver/Src/stm32f4xx_hal_i2c.c **** 
2071:Drivers/STM32F4xx_HAL_Driver/Src/stm32f4xx_hal_i2c.c ****   if(hi2c->State == HAL_I2C_STATE_READY)
 4318              		.loc 1 2071 0
 4319 000e FB68     		ldr	r3, [r7, #12]
 4320 0010 93F83530 		ldrb	r3, [r3, #53]
 4321 0014 DBB2     		uxtb	r3, r3
 4322 0016 012B     		cmp	r3, #1
 4323 0018 71D1     		bne	.L250
2072:Drivers/STM32F4xx_HAL_Driver/Src/stm32f4xx_hal_i2c.c ****   {
2073:Drivers/STM32F4xx_HAL_Driver/Src/stm32f4xx_hal_i2c.c ****     if((pData == NULL) || (Size == 0))
 4324              		.loc 1 2073 0
 4325 001a BB69     		ldr	r3, [r7, #24]
 4326 001c 002B     		cmp	r3, #0
 4327 001e 02D0     		beq	.L251
 4328              		.loc 1 2073 0 is_stmt 0 discriminator 1
 4329 0020 BB8B     		ldrh	r3, [r7, #28]
 4330 0022 002B     		cmp	r3, #0
 4331 0024 01D1     		bne	.L252
 4332              	.L251:
2074:Drivers/STM32F4xx_HAL_Driver/Src/stm32f4xx_hal_i2c.c ****     {
2075:Drivers/STM32F4xx_HAL_Driver/Src/stm32f4xx_hal_i2c.c ****       return  HAL_ERROR;
 4333              		.loc 1 2075 0 is_stmt 1
 4334 0026 0123     		movs	r3, #1
 4335 0028 6AE0     		b	.L253
 4336              	.L252:
2076:Drivers/STM32F4xx_HAL_Driver/Src/stm32f4xx_hal_i2c.c ****     }
2077:Drivers/STM32F4xx_HAL_Driver/Src/stm32f4xx_hal_i2c.c **** 
2078:Drivers/STM32F4xx_HAL_Driver/Src/stm32f4xx_hal_i2c.c ****     /* Wait until BUSY flag is reset */
2079:Drivers/STM32F4xx_HAL_Driver/Src/stm32f4xx_hal_i2c.c ****     if(I2C_WaitOnFlagUntilTimeout(hi2c, I2C_FLAG_BUSY, SET, I2C_TIMEOUT_BUSY_FLAG) != HAL_OK)
 4337              		.loc 1 2079 0
 4338 002a F868     		ldr	r0, [r7, #12]
 4339 002c 3649     		ldr	r1, .L258
 4340 002e 0122     		movs	r2, #1
ARM GAS  /tmp/cc5bMm9J.s 			page 113


 4341 0030 42F21073 		movw	r3, #10000
 4342 0034 FFF7FEFF 		bl	I2C_WaitOnFlagUntilTimeout
 4343 0038 0346     		mov	r3, r0
 4344 003a 002B     		cmp	r3, #0
 4345 003c 01D0     		beq	.L254
2080:Drivers/STM32F4xx_HAL_Driver/Src/stm32f4xx_hal_i2c.c ****     {
2081:Drivers/STM32F4xx_HAL_Driver/Src/stm32f4xx_hal_i2c.c ****       return HAL_BUSY;
 4346              		.loc 1 2081 0
 4347 003e 0223     		movs	r3, #2
 4348 0040 5EE0     		b	.L253
 4349              	.L254:
2082:Drivers/STM32F4xx_HAL_Driver/Src/stm32f4xx_hal_i2c.c ****     }
2083:Drivers/STM32F4xx_HAL_Driver/Src/stm32f4xx_hal_i2c.c **** 
2084:Drivers/STM32F4xx_HAL_Driver/Src/stm32f4xx_hal_i2c.c ****     /* Process Locked */
2085:Drivers/STM32F4xx_HAL_Driver/Src/stm32f4xx_hal_i2c.c ****     __HAL_LOCK(hi2c);
 4350              		.loc 1 2085 0
 4351 0042 FB68     		ldr	r3, [r7, #12]
 4352 0044 93F83430 		ldrb	r3, [r3, #52]	@ zero_extendqisi2
 4353 0048 012B     		cmp	r3, #1
 4354 004a 01D1     		bne	.L255
 4355              		.loc 1 2085 0 is_stmt 0 discriminator 1
 4356 004c 0223     		movs	r3, #2
 4357 004e 57E0     		b	.L253
 4358              	.L255:
 4359              		.loc 1 2085 0 discriminator 2
 4360 0050 FB68     		ldr	r3, [r7, #12]
 4361 0052 0122     		movs	r2, #1
 4362 0054 83F83420 		strb	r2, [r3, #52]
2086:Drivers/STM32F4xx_HAL_Driver/Src/stm32f4xx_hal_i2c.c ****     
2087:Drivers/STM32F4xx_HAL_Driver/Src/stm32f4xx_hal_i2c.c ****     /* Disable Pos */
2088:Drivers/STM32F4xx_HAL_Driver/Src/stm32f4xx_hal_i2c.c ****     hi2c->Instance->CR1 &= ~I2C_CR1_POS;
 4363              		.loc 1 2088 0 is_stmt 1 discriminator 2
 4364 0058 FB68     		ldr	r3, [r7, #12]
 4365 005a 1B68     		ldr	r3, [r3]
 4366 005c FA68     		ldr	r2, [r7, #12]
 4367 005e 1268     		ldr	r2, [r2]
 4368 0060 1268     		ldr	r2, [r2]
 4369 0062 22F40062 		bic	r2, r2, #2048
 4370 0066 1A60     		str	r2, [r3]
2089:Drivers/STM32F4xx_HAL_Driver/Src/stm32f4xx_hal_i2c.c **** 
2090:Drivers/STM32F4xx_HAL_Driver/Src/stm32f4xx_hal_i2c.c ****     hi2c->State = HAL_I2C_STATE_MEM_BUSY_TX;
 4371              		.loc 1 2090 0 discriminator 2
 4372 0068 FB68     		ldr	r3, [r7, #12]
 4373 006a 3222     		movs	r2, #50
 4374 006c 83F83520 		strb	r2, [r3, #53]
2091:Drivers/STM32F4xx_HAL_Driver/Src/stm32f4xx_hal_i2c.c ****     hi2c->ErrorCode = HAL_I2C_ERROR_NONE;
 4375              		.loc 1 2091 0 discriminator 2
 4376 0070 FB68     		ldr	r3, [r7, #12]
 4377 0072 0022     		movs	r2, #0
 4378 0074 9A63     		str	r2, [r3, #56]
2092:Drivers/STM32F4xx_HAL_Driver/Src/stm32f4xx_hal_i2c.c **** 
2093:Drivers/STM32F4xx_HAL_Driver/Src/stm32f4xx_hal_i2c.c ****     hi2c->pBuffPtr = pData;
 4379              		.loc 1 2093 0 discriminator 2
 4380 0076 FB68     		ldr	r3, [r7, #12]
 4381 0078 BA69     		ldr	r2, [r7, #24]
 4382 007a 5A62     		str	r2, [r3, #36]
2094:Drivers/STM32F4xx_HAL_Driver/Src/stm32f4xx_hal_i2c.c ****     hi2c->XferSize = Size;
ARM GAS  /tmp/cc5bMm9J.s 			page 114


 4383              		.loc 1 2094 0 discriminator 2
 4384 007c FB68     		ldr	r3, [r7, #12]
 4385 007e BA8B     		ldrh	r2, [r7, #28]	@ movhi
 4386 0080 1A85     		strh	r2, [r3, #40]	@ movhi
2095:Drivers/STM32F4xx_HAL_Driver/Src/stm32f4xx_hal_i2c.c ****     hi2c->XferCount = Size;
 4387              		.loc 1 2095 0 discriminator 2
 4388 0082 FB68     		ldr	r3, [r7, #12]
 4389 0084 BA8B     		ldrh	r2, [r7, #28]	@ movhi
 4390 0086 5A85     		strh	r2, [r3, #42]	@ movhi
2096:Drivers/STM32F4xx_HAL_Driver/Src/stm32f4xx_hal_i2c.c **** 
2097:Drivers/STM32F4xx_HAL_Driver/Src/stm32f4xx_hal_i2c.c ****     /* Set the I2C DMA transfer complete callback */
2098:Drivers/STM32F4xx_HAL_Driver/Src/stm32f4xx_hal_i2c.c ****     hi2c->hdmatx->XferCpltCallback = I2C_DMAMemTransmitCplt;
 4391              		.loc 1 2098 0 discriminator 2
 4392 0088 FB68     		ldr	r3, [r7, #12]
 4393 008a DB6A     		ldr	r3, [r3, #44]
 4394 008c 1F4A     		ldr	r2, .L258+4
 4395 008e DA63     		str	r2, [r3, #60]
2099:Drivers/STM32F4xx_HAL_Driver/Src/stm32f4xx_hal_i2c.c **** 
2100:Drivers/STM32F4xx_HAL_Driver/Src/stm32f4xx_hal_i2c.c ****     /* Set the DMA error callback */
2101:Drivers/STM32F4xx_HAL_Driver/Src/stm32f4xx_hal_i2c.c ****     hi2c->hdmatx->XferErrorCallback = I2C_DMAError;
 4396              		.loc 1 2101 0 discriminator 2
 4397 0090 FB68     		ldr	r3, [r7, #12]
 4398 0092 DB6A     		ldr	r3, [r3, #44]
 4399 0094 1E4A     		ldr	r2, .L258+8
 4400 0096 9A64     		str	r2, [r3, #72]
2102:Drivers/STM32F4xx_HAL_Driver/Src/stm32f4xx_hal_i2c.c **** 
2103:Drivers/STM32F4xx_HAL_Driver/Src/stm32f4xx_hal_i2c.c ****     /* Enable the DMA Stream */
2104:Drivers/STM32F4xx_HAL_Driver/Src/stm32f4xx_hal_i2c.c ****     HAL_DMA_Start_IT(hi2c->hdmatx, (uint32_t)pData, (uint32_t)&hi2c->Instance->DR, Size);
 4401              		.loc 1 2104 0 discriminator 2
 4402 0098 FB68     		ldr	r3, [r7, #12]
 4403 009a D86A     		ldr	r0, [r3, #44]
 4404 009c B969     		ldr	r1, [r7, #24]
 4405 009e FB68     		ldr	r3, [r7, #12]
 4406 00a0 1B68     		ldr	r3, [r3]
 4407 00a2 1033     		adds	r3, r3, #16
 4408 00a4 1A46     		mov	r2, r3
 4409 00a6 BB8B     		ldrh	r3, [r7, #28]
 4410 00a8 FFF7FEFF 		bl	HAL_DMA_Start_IT
2105:Drivers/STM32F4xx_HAL_Driver/Src/stm32f4xx_hal_i2c.c **** 
2106:Drivers/STM32F4xx_HAL_Driver/Src/stm32f4xx_hal_i2c.c ****     /* Send Slave Address and Memory Address */
2107:Drivers/STM32F4xx_HAL_Driver/Src/stm32f4xx_hal_i2c.c ****     if(I2C_RequestMemoryWrite(hi2c, DevAddress, MemAddress, MemAddSize, I2C_TIMEOUT_FLAG) != HAL_OK
 4411              		.loc 1 2107 0 discriminator 2
 4412 00ac 7989     		ldrh	r1, [r7, #10]
 4413 00ae 3A89     		ldrh	r2, [r7, #8]
 4414 00b0 FB88     		ldrh	r3, [r7, #6]
 4415 00b2 2320     		movs	r0, #35
 4416 00b4 0090     		str	r0, [sp]
 4417 00b6 F868     		ldr	r0, [r7, #12]
 4418 00b8 FFF7FEFF 		bl	I2C_RequestMemoryWrite
 4419 00bc 0346     		mov	r3, r0
 4420 00be 002B     		cmp	r3, #0
 4421 00c0 0FD0     		beq	.L256
2108:Drivers/STM32F4xx_HAL_Driver/Src/stm32f4xx_hal_i2c.c ****     {
2109:Drivers/STM32F4xx_HAL_Driver/Src/stm32f4xx_hal_i2c.c ****       if(hi2c->ErrorCode == HAL_I2C_ERROR_AF)
 4422              		.loc 1 2109 0
 4423 00c2 FB68     		ldr	r3, [r7, #12]
 4424 00c4 9B6B     		ldr	r3, [r3, #56]
ARM GAS  /tmp/cc5bMm9J.s 			page 115


 4425 00c6 042B     		cmp	r3, #4
 4426 00c8 05D1     		bne	.L257
2110:Drivers/STM32F4xx_HAL_Driver/Src/stm32f4xx_hal_i2c.c ****       {
2111:Drivers/STM32F4xx_HAL_Driver/Src/stm32f4xx_hal_i2c.c ****         /* Process Unlocked */
2112:Drivers/STM32F4xx_HAL_Driver/Src/stm32f4xx_hal_i2c.c ****         __HAL_UNLOCK(hi2c);
 4427              		.loc 1 2112 0
 4428 00ca FB68     		ldr	r3, [r7, #12]
 4429 00cc 0022     		movs	r2, #0
 4430 00ce 83F83420 		strb	r2, [r3, #52]
2113:Drivers/STM32F4xx_HAL_Driver/Src/stm32f4xx_hal_i2c.c ****         return HAL_ERROR;
 4431              		.loc 1 2113 0
 4432 00d2 0123     		movs	r3, #1
 4433 00d4 14E0     		b	.L253
 4434              	.L257:
2114:Drivers/STM32F4xx_HAL_Driver/Src/stm32f4xx_hal_i2c.c ****       }
2115:Drivers/STM32F4xx_HAL_Driver/Src/stm32f4xx_hal_i2c.c ****       else
2116:Drivers/STM32F4xx_HAL_Driver/Src/stm32f4xx_hal_i2c.c ****       {
2117:Drivers/STM32F4xx_HAL_Driver/Src/stm32f4xx_hal_i2c.c ****         /* Process Unlocked */
2118:Drivers/STM32F4xx_HAL_Driver/Src/stm32f4xx_hal_i2c.c ****         __HAL_UNLOCK(hi2c);
 4435              		.loc 1 2118 0
 4436 00d6 FB68     		ldr	r3, [r7, #12]
 4437 00d8 0022     		movs	r2, #0
 4438 00da 83F83420 		strb	r2, [r3, #52]
2119:Drivers/STM32F4xx_HAL_Driver/Src/stm32f4xx_hal_i2c.c ****         return HAL_TIMEOUT;
 4439              		.loc 1 2119 0
 4440 00de 0323     		movs	r3, #3
 4441 00e0 0EE0     		b	.L253
 4442              	.L256:
2120:Drivers/STM32F4xx_HAL_Driver/Src/stm32f4xx_hal_i2c.c ****       }
2121:Drivers/STM32F4xx_HAL_Driver/Src/stm32f4xx_hal_i2c.c ****     }
2122:Drivers/STM32F4xx_HAL_Driver/Src/stm32f4xx_hal_i2c.c **** 
2123:Drivers/STM32F4xx_HAL_Driver/Src/stm32f4xx_hal_i2c.c ****     /* Enable DMA Request */
2124:Drivers/STM32F4xx_HAL_Driver/Src/stm32f4xx_hal_i2c.c ****     hi2c->Instance->CR2 |= I2C_CR2_DMAEN;
 4443              		.loc 1 2124 0
 4444 00e2 FB68     		ldr	r3, [r7, #12]
 4445 00e4 1B68     		ldr	r3, [r3]
 4446 00e6 FA68     		ldr	r2, [r7, #12]
 4447 00e8 1268     		ldr	r2, [r2]
 4448 00ea 5268     		ldr	r2, [r2, #4]
 4449 00ec 42F40062 		orr	r2, r2, #2048
 4450 00f0 5A60     		str	r2, [r3, #4]
2125:Drivers/STM32F4xx_HAL_Driver/Src/stm32f4xx_hal_i2c.c **** 
2126:Drivers/STM32F4xx_HAL_Driver/Src/stm32f4xx_hal_i2c.c ****     /* Process Unlocked */
2127:Drivers/STM32F4xx_HAL_Driver/Src/stm32f4xx_hal_i2c.c ****     __HAL_UNLOCK(hi2c);
 4451              		.loc 1 2127 0
 4452 00f2 FB68     		ldr	r3, [r7, #12]
 4453 00f4 0022     		movs	r2, #0
 4454 00f6 83F83420 		strb	r2, [r3, #52]
2128:Drivers/STM32F4xx_HAL_Driver/Src/stm32f4xx_hal_i2c.c **** 
2129:Drivers/STM32F4xx_HAL_Driver/Src/stm32f4xx_hal_i2c.c ****     return HAL_OK;
 4455              		.loc 1 2129 0
 4456 00fa 0023     		movs	r3, #0
 4457 00fc 00E0     		b	.L253
 4458              	.L250:
2130:Drivers/STM32F4xx_HAL_Driver/Src/stm32f4xx_hal_i2c.c ****   }
2131:Drivers/STM32F4xx_HAL_Driver/Src/stm32f4xx_hal_i2c.c ****   else
2132:Drivers/STM32F4xx_HAL_Driver/Src/stm32f4xx_hal_i2c.c ****   {
ARM GAS  /tmp/cc5bMm9J.s 			page 116


2133:Drivers/STM32F4xx_HAL_Driver/Src/stm32f4xx_hal_i2c.c ****     return HAL_BUSY;
 4459              		.loc 1 2133 0
 4460 00fe 0223     		movs	r3, #2
 4461              	.L253:
2134:Drivers/STM32F4xx_HAL_Driver/Src/stm32f4xx_hal_i2c.c ****   }
2135:Drivers/STM32F4xx_HAL_Driver/Src/stm32f4xx_hal_i2c.c **** }
 4462              		.loc 1 2135 0
 4463 0100 1846     		mov	r0, r3
 4464 0102 1037     		adds	r7, r7, #16
 4465 0104 BD46     		mov	sp, r7
 4466              		@ sp needed
 4467 0106 80BD     		pop	{r7, pc}
 4468              	.L259:
 4469              		.align	2
 4470              	.L258:
 4471 0108 02001000 		.word	1048578
 4472 010c 00000000 		.word	I2C_DMAMemTransmitCplt
 4473 0110 00000000 		.word	I2C_DMAError
 4474              		.cfi_endproc
 4475              	.LFE145:
 4477              		.section	.text.HAL_I2C_Mem_Read_DMA,"ax",%progbits
 4478              		.align	2
 4479              		.global	HAL_I2C_Mem_Read_DMA
 4480              		.thumb
 4481              		.thumb_func
 4483              	HAL_I2C_Mem_Read_DMA:
 4484              	.LFB146:
2136:Drivers/STM32F4xx_HAL_Driver/Src/stm32f4xx_hal_i2c.c **** 
2137:Drivers/STM32F4xx_HAL_Driver/Src/stm32f4xx_hal_i2c.c **** /**
2138:Drivers/STM32F4xx_HAL_Driver/Src/stm32f4xx_hal_i2c.c ****   * @brief  Reads an amount of data in no-blocking mode with DMA from a specific memory address.
2139:Drivers/STM32F4xx_HAL_Driver/Src/stm32f4xx_hal_i2c.c ****   * @param  hi2c: pointer to a I2C_HandleTypeDef structure that contains
2140:Drivers/STM32F4xx_HAL_Driver/Src/stm32f4xx_hal_i2c.c ****   *         the configuration information for I2C module
2141:Drivers/STM32F4xx_HAL_Driver/Src/stm32f4xx_hal_i2c.c ****   * @param  DevAddress: Target device address
2142:Drivers/STM32F4xx_HAL_Driver/Src/stm32f4xx_hal_i2c.c ****   * @param  MemAddress: Internal memory address
2143:Drivers/STM32F4xx_HAL_Driver/Src/stm32f4xx_hal_i2c.c ****   * @param  MemAddSize: Size of internal memory address
2144:Drivers/STM32F4xx_HAL_Driver/Src/stm32f4xx_hal_i2c.c ****   * @param  pData: Pointer to data buffer
2145:Drivers/STM32F4xx_HAL_Driver/Src/stm32f4xx_hal_i2c.c ****   * @param  Size: Amount of data to be read
2146:Drivers/STM32F4xx_HAL_Driver/Src/stm32f4xx_hal_i2c.c ****   * @retval HAL status
2147:Drivers/STM32F4xx_HAL_Driver/Src/stm32f4xx_hal_i2c.c ****   */
2148:Drivers/STM32F4xx_HAL_Driver/Src/stm32f4xx_hal_i2c.c **** HAL_StatusTypeDef HAL_I2C_Mem_Read_DMA(I2C_HandleTypeDef *hi2c, uint16_t DevAddress, uint16_t MemAd
2149:Drivers/STM32F4xx_HAL_Driver/Src/stm32f4xx_hal_i2c.c **** {
 4485              		.loc 1 2149 0
 4486              		.cfi_startproc
 4487              		@ args = 8, pretend = 0, frame = 24
 4488              		@ frame_needed = 1, uses_anonymous_args = 0
 4489 0000 80B5     		push	{r7, lr}
 4490              	.LCFI63:
 4491              		.cfi_def_cfa_offset 8
 4492              		.cfi_offset 7, -8
 4493              		.cfi_offset 14, -4
 4494 0002 88B0     		sub	sp, sp, #32
 4495              	.LCFI64:
 4496              		.cfi_def_cfa_offset 40
 4497 0004 02AF     		add	r7, sp, #8
 4498              	.LCFI65:
 4499              		.cfi_def_cfa 7, 32
 4500 0006 F860     		str	r0, [r7, #12]
ARM GAS  /tmp/cc5bMm9J.s 			page 117


 4501 0008 7981     		strh	r1, [r7, #10]	@ movhi
 4502 000a 3A81     		strh	r2, [r7, #8]	@ movhi
 4503 000c FB80     		strh	r3, [r7, #6]	@ movhi
2150:Drivers/STM32F4xx_HAL_Driver/Src/stm32f4xx_hal_i2c.c ****   /* Check the parameters */
2151:Drivers/STM32F4xx_HAL_Driver/Src/stm32f4xx_hal_i2c.c ****   assert_param(IS_I2C_MEMADD_SIZE(MemAddSize));
2152:Drivers/STM32F4xx_HAL_Driver/Src/stm32f4xx_hal_i2c.c **** 
2153:Drivers/STM32F4xx_HAL_Driver/Src/stm32f4xx_hal_i2c.c ****   if(hi2c->State == HAL_I2C_STATE_READY)
 4504              		.loc 1 2153 0
 4505 000e FB68     		ldr	r3, [r7, #12]
 4506 0010 93F83530 		ldrb	r3, [r3, #53]
 4507 0014 DBB2     		uxtb	r3, r3
 4508 0016 012B     		cmp	r3, #1
 4509 0018 40F08F80 		bne	.L261
2154:Drivers/STM32F4xx_HAL_Driver/Src/stm32f4xx_hal_i2c.c ****   {
2155:Drivers/STM32F4xx_HAL_Driver/Src/stm32f4xx_hal_i2c.c ****     if((pData == NULL) || (Size == 0))
 4510              		.loc 1 2155 0
 4511 001c 3B6A     		ldr	r3, [r7, #32]
 4512 001e 002B     		cmp	r3, #0
 4513 0020 02D0     		beq	.L262
 4514              		.loc 1 2155 0 is_stmt 0 discriminator 1
 4515 0022 BB8C     		ldrh	r3, [r7, #36]
 4516 0024 002B     		cmp	r3, #0
 4517 0026 01D1     		bne	.L263
 4518              	.L262:
2156:Drivers/STM32F4xx_HAL_Driver/Src/stm32f4xx_hal_i2c.c ****     {
2157:Drivers/STM32F4xx_HAL_Driver/Src/stm32f4xx_hal_i2c.c ****       return  HAL_ERROR;
 4519              		.loc 1 2157 0 is_stmt 1
 4520 0028 0123     		movs	r3, #1
 4521 002a 87E0     		b	.L264
 4522              	.L263:
2158:Drivers/STM32F4xx_HAL_Driver/Src/stm32f4xx_hal_i2c.c ****     }
2159:Drivers/STM32F4xx_HAL_Driver/Src/stm32f4xx_hal_i2c.c **** 
2160:Drivers/STM32F4xx_HAL_Driver/Src/stm32f4xx_hal_i2c.c ****     /* Wait until BUSY flag is reset */
2161:Drivers/STM32F4xx_HAL_Driver/Src/stm32f4xx_hal_i2c.c ****     if(I2C_WaitOnFlagUntilTimeout(hi2c, I2C_FLAG_BUSY, SET, I2C_TIMEOUT_BUSY_FLAG) != HAL_OK)
 4523              		.loc 1 2161 0
 4524 002c F868     		ldr	r0, [r7, #12]
 4525 002e 4549     		ldr	r1, .L271
 4526 0030 0122     		movs	r2, #1
 4527 0032 42F21073 		movw	r3, #10000
 4528 0036 FFF7FEFF 		bl	I2C_WaitOnFlagUntilTimeout
 4529 003a 0346     		mov	r3, r0
 4530 003c 002B     		cmp	r3, #0
 4531 003e 01D0     		beq	.L265
2162:Drivers/STM32F4xx_HAL_Driver/Src/stm32f4xx_hal_i2c.c ****     {
2163:Drivers/STM32F4xx_HAL_Driver/Src/stm32f4xx_hal_i2c.c ****       return HAL_BUSY;
 4532              		.loc 1 2163 0
 4533 0040 0223     		movs	r3, #2
 4534 0042 7BE0     		b	.L264
 4535              	.L265:
2164:Drivers/STM32F4xx_HAL_Driver/Src/stm32f4xx_hal_i2c.c ****     }
2165:Drivers/STM32F4xx_HAL_Driver/Src/stm32f4xx_hal_i2c.c **** 
2166:Drivers/STM32F4xx_HAL_Driver/Src/stm32f4xx_hal_i2c.c ****     /* Process Locked */
2167:Drivers/STM32F4xx_HAL_Driver/Src/stm32f4xx_hal_i2c.c ****     __HAL_LOCK(hi2c);
 4536              		.loc 1 2167 0
 4537 0044 FB68     		ldr	r3, [r7, #12]
 4538 0046 93F83430 		ldrb	r3, [r3, #52]	@ zero_extendqisi2
 4539 004a 012B     		cmp	r3, #1
ARM GAS  /tmp/cc5bMm9J.s 			page 118


 4540 004c 01D1     		bne	.L266
 4541              		.loc 1 2167 0 is_stmt 0 discriminator 1
 4542 004e 0223     		movs	r3, #2
 4543 0050 74E0     		b	.L264
 4544              	.L266:
 4545              		.loc 1 2167 0 discriminator 2
 4546 0052 FB68     		ldr	r3, [r7, #12]
 4547 0054 0122     		movs	r2, #1
 4548 0056 83F83420 		strb	r2, [r3, #52]
2168:Drivers/STM32F4xx_HAL_Driver/Src/stm32f4xx_hal_i2c.c ****     
2169:Drivers/STM32F4xx_HAL_Driver/Src/stm32f4xx_hal_i2c.c ****     /* Disable Pos */
2170:Drivers/STM32F4xx_HAL_Driver/Src/stm32f4xx_hal_i2c.c ****     hi2c->Instance->CR1 &= ~I2C_CR1_POS;
 4549              		.loc 1 2170 0 is_stmt 1 discriminator 2
 4550 005a FB68     		ldr	r3, [r7, #12]
 4551 005c 1B68     		ldr	r3, [r3]
 4552 005e FA68     		ldr	r2, [r7, #12]
 4553 0060 1268     		ldr	r2, [r2]
 4554 0062 1268     		ldr	r2, [r2]
 4555 0064 22F40062 		bic	r2, r2, #2048
 4556 0068 1A60     		str	r2, [r3]
2171:Drivers/STM32F4xx_HAL_Driver/Src/stm32f4xx_hal_i2c.c **** 
2172:Drivers/STM32F4xx_HAL_Driver/Src/stm32f4xx_hal_i2c.c ****     hi2c->State = HAL_I2C_STATE_MEM_BUSY_RX;
 4557              		.loc 1 2172 0 discriminator 2
 4558 006a FB68     		ldr	r3, [r7, #12]
 4559 006c 4222     		movs	r2, #66
 4560 006e 83F83520 		strb	r2, [r3, #53]
2173:Drivers/STM32F4xx_HAL_Driver/Src/stm32f4xx_hal_i2c.c ****     hi2c->ErrorCode = HAL_I2C_ERROR_NONE;
 4561              		.loc 1 2173 0 discriminator 2
 4562 0072 FB68     		ldr	r3, [r7, #12]
 4563 0074 0022     		movs	r2, #0
 4564 0076 9A63     		str	r2, [r3, #56]
2174:Drivers/STM32F4xx_HAL_Driver/Src/stm32f4xx_hal_i2c.c **** 
2175:Drivers/STM32F4xx_HAL_Driver/Src/stm32f4xx_hal_i2c.c ****     hi2c->pBuffPtr = pData;
 4565              		.loc 1 2175 0 discriminator 2
 4566 0078 FB68     		ldr	r3, [r7, #12]
 4567 007a 3A6A     		ldr	r2, [r7, #32]
 4568 007c 5A62     		str	r2, [r3, #36]
2176:Drivers/STM32F4xx_HAL_Driver/Src/stm32f4xx_hal_i2c.c ****     hi2c->XferSize = Size;
 4569              		.loc 1 2176 0 discriminator 2
 4570 007e FB68     		ldr	r3, [r7, #12]
 4571 0080 BA8C     		ldrh	r2, [r7, #36]	@ movhi
 4572 0082 1A85     		strh	r2, [r3, #40]	@ movhi
2177:Drivers/STM32F4xx_HAL_Driver/Src/stm32f4xx_hal_i2c.c ****     hi2c->XferCount = Size;
 4573              		.loc 1 2177 0 discriminator 2
 4574 0084 FB68     		ldr	r3, [r7, #12]
 4575 0086 BA8C     		ldrh	r2, [r7, #36]	@ movhi
 4576 0088 5A85     		strh	r2, [r3, #42]	@ movhi
2178:Drivers/STM32F4xx_HAL_Driver/Src/stm32f4xx_hal_i2c.c **** 
2179:Drivers/STM32F4xx_HAL_Driver/Src/stm32f4xx_hal_i2c.c ****     /* Set the I2C DMA transfer complete callback */
2180:Drivers/STM32F4xx_HAL_Driver/Src/stm32f4xx_hal_i2c.c ****     hi2c->hdmarx->XferCpltCallback = I2C_DMAMemReceiveCplt;
 4577              		.loc 1 2180 0 discriminator 2
 4578 008a FB68     		ldr	r3, [r7, #12]
 4579 008c 1B6B     		ldr	r3, [r3, #48]
 4580 008e 2E4A     		ldr	r2, .L271+4
 4581 0090 DA63     		str	r2, [r3, #60]
2181:Drivers/STM32F4xx_HAL_Driver/Src/stm32f4xx_hal_i2c.c **** 
2182:Drivers/STM32F4xx_HAL_Driver/Src/stm32f4xx_hal_i2c.c ****     /* Set the DMA error callback */
ARM GAS  /tmp/cc5bMm9J.s 			page 119


2183:Drivers/STM32F4xx_HAL_Driver/Src/stm32f4xx_hal_i2c.c ****     hi2c->hdmarx->XferErrorCallback = I2C_DMAError;
 4582              		.loc 1 2183 0 discriminator 2
 4583 0092 FB68     		ldr	r3, [r7, #12]
 4584 0094 1B6B     		ldr	r3, [r3, #48]
 4585 0096 2D4A     		ldr	r2, .L271+8
 4586 0098 9A64     		str	r2, [r3, #72]
2184:Drivers/STM32F4xx_HAL_Driver/Src/stm32f4xx_hal_i2c.c **** 
2185:Drivers/STM32F4xx_HAL_Driver/Src/stm32f4xx_hal_i2c.c ****     /* Enable the DMA Stream */
2186:Drivers/STM32F4xx_HAL_Driver/Src/stm32f4xx_hal_i2c.c ****     HAL_DMA_Start_IT(hi2c->hdmarx, (uint32_t)&hi2c->Instance->DR, (uint32_t)pData, Size);
 4587              		.loc 1 2186 0 discriminator 2
 4588 009a FB68     		ldr	r3, [r7, #12]
 4589 009c 186B     		ldr	r0, [r3, #48]
 4590 009e FB68     		ldr	r3, [r7, #12]
 4591 00a0 1B68     		ldr	r3, [r3]
 4592 00a2 1033     		adds	r3, r3, #16
 4593 00a4 1946     		mov	r1, r3
 4594 00a6 3A6A     		ldr	r2, [r7, #32]
 4595 00a8 BB8C     		ldrh	r3, [r7, #36]
 4596 00aa FFF7FEFF 		bl	HAL_DMA_Start_IT
2187:Drivers/STM32F4xx_HAL_Driver/Src/stm32f4xx_hal_i2c.c **** 
2188:Drivers/STM32F4xx_HAL_Driver/Src/stm32f4xx_hal_i2c.c ****     /* Send Slave Address and Memory Address */
2189:Drivers/STM32F4xx_HAL_Driver/Src/stm32f4xx_hal_i2c.c ****     if(I2C_RequestMemoryRead(hi2c, DevAddress, MemAddress, MemAddSize, I2C_TIMEOUT_FLAG) != HAL_OK)
 4597              		.loc 1 2189 0 discriminator 2
 4598 00ae 7989     		ldrh	r1, [r7, #10]
 4599 00b0 3A89     		ldrh	r2, [r7, #8]
 4600 00b2 FB88     		ldrh	r3, [r7, #6]
 4601 00b4 2320     		movs	r0, #35
 4602 00b6 0090     		str	r0, [sp]
 4603 00b8 F868     		ldr	r0, [r7, #12]
 4604 00ba FFF7FEFF 		bl	I2C_RequestMemoryRead
 4605 00be 0346     		mov	r3, r0
 4606 00c0 002B     		cmp	r3, #0
 4607 00c2 0FD0     		beq	.L267
2190:Drivers/STM32F4xx_HAL_Driver/Src/stm32f4xx_hal_i2c.c ****     {
2191:Drivers/STM32F4xx_HAL_Driver/Src/stm32f4xx_hal_i2c.c ****       if(hi2c->ErrorCode == HAL_I2C_ERROR_AF)
 4608              		.loc 1 2191 0
 4609 00c4 FB68     		ldr	r3, [r7, #12]
 4610 00c6 9B6B     		ldr	r3, [r3, #56]
 4611 00c8 042B     		cmp	r3, #4
 4612 00ca 05D1     		bne	.L268
2192:Drivers/STM32F4xx_HAL_Driver/Src/stm32f4xx_hal_i2c.c ****       {
2193:Drivers/STM32F4xx_HAL_Driver/Src/stm32f4xx_hal_i2c.c ****         /* Process Unlocked */
2194:Drivers/STM32F4xx_HAL_Driver/Src/stm32f4xx_hal_i2c.c ****         __HAL_UNLOCK(hi2c);
 4613              		.loc 1 2194 0
 4614 00cc FB68     		ldr	r3, [r7, #12]
 4615 00ce 0022     		movs	r2, #0
 4616 00d0 83F83420 		strb	r2, [r3, #52]
2195:Drivers/STM32F4xx_HAL_Driver/Src/stm32f4xx_hal_i2c.c ****         return HAL_ERROR;
 4617              		.loc 1 2195 0
 4618 00d4 0123     		movs	r3, #1
 4619 00d6 31E0     		b	.L264
 4620              	.L268:
2196:Drivers/STM32F4xx_HAL_Driver/Src/stm32f4xx_hal_i2c.c ****       }
2197:Drivers/STM32F4xx_HAL_Driver/Src/stm32f4xx_hal_i2c.c ****       else
2198:Drivers/STM32F4xx_HAL_Driver/Src/stm32f4xx_hal_i2c.c ****       {
2199:Drivers/STM32F4xx_HAL_Driver/Src/stm32f4xx_hal_i2c.c ****         /* Process Unlocked */
2200:Drivers/STM32F4xx_HAL_Driver/Src/stm32f4xx_hal_i2c.c ****         __HAL_UNLOCK(hi2c);
ARM GAS  /tmp/cc5bMm9J.s 			page 120


 4621              		.loc 1 2200 0
 4622 00d8 FB68     		ldr	r3, [r7, #12]
 4623 00da 0022     		movs	r2, #0
 4624 00dc 83F83420 		strb	r2, [r3, #52]
2201:Drivers/STM32F4xx_HAL_Driver/Src/stm32f4xx_hal_i2c.c ****         return HAL_TIMEOUT;
 4625              		.loc 1 2201 0
 4626 00e0 0323     		movs	r3, #3
 4627 00e2 2BE0     		b	.L264
 4628              	.L267:
2202:Drivers/STM32F4xx_HAL_Driver/Src/stm32f4xx_hal_i2c.c ****       }
2203:Drivers/STM32F4xx_HAL_Driver/Src/stm32f4xx_hal_i2c.c ****     }
2204:Drivers/STM32F4xx_HAL_Driver/Src/stm32f4xx_hal_i2c.c **** 
2205:Drivers/STM32F4xx_HAL_Driver/Src/stm32f4xx_hal_i2c.c ****     if(Size == 1)
 4629              		.loc 1 2205 0
 4630 00e4 BB8C     		ldrh	r3, [r7, #36]
 4631 00e6 012B     		cmp	r3, #1
 4632 00e8 08D1     		bne	.L269
2206:Drivers/STM32F4xx_HAL_Driver/Src/stm32f4xx_hal_i2c.c ****     {
2207:Drivers/STM32F4xx_HAL_Driver/Src/stm32f4xx_hal_i2c.c ****       /* Disable Acknowledge */
2208:Drivers/STM32F4xx_HAL_Driver/Src/stm32f4xx_hal_i2c.c ****       hi2c->Instance->CR1 &= ~I2C_CR1_ACK;
 4633              		.loc 1 2208 0
 4634 00ea FB68     		ldr	r3, [r7, #12]
 4635 00ec 1B68     		ldr	r3, [r3]
 4636 00ee FA68     		ldr	r2, [r7, #12]
 4637 00f0 1268     		ldr	r2, [r2]
 4638 00f2 1268     		ldr	r2, [r2]
 4639 00f4 22F48062 		bic	r2, r2, #1024
 4640 00f8 1A60     		str	r2, [r3]
 4641 00fa 07E0     		b	.L270
 4642              	.L269:
2209:Drivers/STM32F4xx_HAL_Driver/Src/stm32f4xx_hal_i2c.c ****     }
2210:Drivers/STM32F4xx_HAL_Driver/Src/stm32f4xx_hal_i2c.c ****     else
2211:Drivers/STM32F4xx_HAL_Driver/Src/stm32f4xx_hal_i2c.c ****     {
2212:Drivers/STM32F4xx_HAL_Driver/Src/stm32f4xx_hal_i2c.c ****       /* Enable Last DMA bit */
2213:Drivers/STM32F4xx_HAL_Driver/Src/stm32f4xx_hal_i2c.c ****       hi2c->Instance->CR2 |= I2C_CR2_LAST;
 4643              		.loc 1 2213 0
 4644 00fc FB68     		ldr	r3, [r7, #12]
 4645 00fe 1B68     		ldr	r3, [r3]
 4646 0100 FA68     		ldr	r2, [r7, #12]
 4647 0102 1268     		ldr	r2, [r2]
 4648 0104 5268     		ldr	r2, [r2, #4]
 4649 0106 42F48052 		orr	r2, r2, #4096
 4650 010a 5A60     		str	r2, [r3, #4]
 4651              	.L270:
2214:Drivers/STM32F4xx_HAL_Driver/Src/stm32f4xx_hal_i2c.c ****     }
2215:Drivers/STM32F4xx_HAL_Driver/Src/stm32f4xx_hal_i2c.c **** 
2216:Drivers/STM32F4xx_HAL_Driver/Src/stm32f4xx_hal_i2c.c ****     /* Enable DMA Request */
2217:Drivers/STM32F4xx_HAL_Driver/Src/stm32f4xx_hal_i2c.c ****     hi2c->Instance->CR2 |= I2C_CR2_DMAEN;
 4652              		.loc 1 2217 0
 4653 010c FB68     		ldr	r3, [r7, #12]
 4654 010e 1B68     		ldr	r3, [r3]
 4655 0110 FA68     		ldr	r2, [r7, #12]
 4656 0112 1268     		ldr	r2, [r2]
 4657 0114 5268     		ldr	r2, [r2, #4]
 4658 0116 42F40062 		orr	r2, r2, #2048
 4659 011a 5A60     		str	r2, [r3, #4]
 4660              	.LBB26:
ARM GAS  /tmp/cc5bMm9J.s 			page 121


2218:Drivers/STM32F4xx_HAL_Driver/Src/stm32f4xx_hal_i2c.c **** 
2219:Drivers/STM32F4xx_HAL_Driver/Src/stm32f4xx_hal_i2c.c ****     /* Clear ADDR flag */
2220:Drivers/STM32F4xx_HAL_Driver/Src/stm32f4xx_hal_i2c.c ****     __HAL_I2C_CLEAR_ADDRFLAG(hi2c);
 4661              		.loc 1 2220 0
 4662 011c FB68     		ldr	r3, [r7, #12]
 4663 011e 1B68     		ldr	r3, [r3]
 4664 0120 5B69     		ldr	r3, [r3, #20]
 4665 0122 7B61     		str	r3, [r7, #20]
 4666 0124 FB68     		ldr	r3, [r7, #12]
 4667 0126 1B68     		ldr	r3, [r3]
 4668 0128 9B69     		ldr	r3, [r3, #24]
 4669 012a 7B61     		str	r3, [r7, #20]
 4670 012c 7B69     		ldr	r3, [r7, #20]
 4671              	.LBE26:
2221:Drivers/STM32F4xx_HAL_Driver/Src/stm32f4xx_hal_i2c.c **** 
2222:Drivers/STM32F4xx_HAL_Driver/Src/stm32f4xx_hal_i2c.c ****     /* Process Unlocked */
2223:Drivers/STM32F4xx_HAL_Driver/Src/stm32f4xx_hal_i2c.c ****     __HAL_UNLOCK(hi2c);
 4672              		.loc 1 2223 0
 4673 012e FB68     		ldr	r3, [r7, #12]
 4674 0130 0022     		movs	r2, #0
 4675 0132 83F83420 		strb	r2, [r3, #52]
2224:Drivers/STM32F4xx_HAL_Driver/Src/stm32f4xx_hal_i2c.c **** 
2225:Drivers/STM32F4xx_HAL_Driver/Src/stm32f4xx_hal_i2c.c ****     return HAL_OK;
 4676              		.loc 1 2225 0
 4677 0136 0023     		movs	r3, #0
 4678 0138 00E0     		b	.L264
 4679              	.L261:
2226:Drivers/STM32F4xx_HAL_Driver/Src/stm32f4xx_hal_i2c.c ****   }
2227:Drivers/STM32F4xx_HAL_Driver/Src/stm32f4xx_hal_i2c.c ****   else
2228:Drivers/STM32F4xx_HAL_Driver/Src/stm32f4xx_hal_i2c.c ****   {
2229:Drivers/STM32F4xx_HAL_Driver/Src/stm32f4xx_hal_i2c.c ****     return HAL_BUSY;
 4680              		.loc 1 2229 0
 4681 013a 0223     		movs	r3, #2
 4682              	.L264:
2230:Drivers/STM32F4xx_HAL_Driver/Src/stm32f4xx_hal_i2c.c ****   }
2231:Drivers/STM32F4xx_HAL_Driver/Src/stm32f4xx_hal_i2c.c **** }
 4683              		.loc 1 2231 0
 4684 013c 1846     		mov	r0, r3
 4685 013e 1837     		adds	r7, r7, #24
 4686 0140 BD46     		mov	sp, r7
 4687              		@ sp needed
 4688 0142 80BD     		pop	{r7, pc}
 4689              	.L272:
 4690              		.align	2
 4691              	.L271:
 4692 0144 02001000 		.word	1048578
 4693 0148 00000000 		.word	I2C_DMAMemReceiveCplt
 4694 014c 00000000 		.word	I2C_DMAError
 4695              		.cfi_endproc
 4696              	.LFE146:
 4698              		.section	.text.HAL_I2C_IsDeviceReady,"ax",%progbits
 4699              		.align	2
 4700              		.global	HAL_I2C_IsDeviceReady
 4701              		.thumb
 4702              		.thumb_func
 4704              	HAL_I2C_IsDeviceReady:
 4705              	.LFB147:
ARM GAS  /tmp/cc5bMm9J.s 			page 122


2232:Drivers/STM32F4xx_HAL_Driver/Src/stm32f4xx_hal_i2c.c **** 
2233:Drivers/STM32F4xx_HAL_Driver/Src/stm32f4xx_hal_i2c.c **** /**
2234:Drivers/STM32F4xx_HAL_Driver/Src/stm32f4xx_hal_i2c.c ****   * @brief  Checks if target device is ready for communication.
2235:Drivers/STM32F4xx_HAL_Driver/Src/stm32f4xx_hal_i2c.c ****   * @note   This function is used with Memory devices
2236:Drivers/STM32F4xx_HAL_Driver/Src/stm32f4xx_hal_i2c.c ****   * @param  hi2c: pointer to a I2C_HandleTypeDef structure that contains
2237:Drivers/STM32F4xx_HAL_Driver/Src/stm32f4xx_hal_i2c.c ****   *         the configuration information for I2C module
2238:Drivers/STM32F4xx_HAL_Driver/Src/stm32f4xx_hal_i2c.c ****   * @param  DevAddress: Target device address
2239:Drivers/STM32F4xx_HAL_Driver/Src/stm32f4xx_hal_i2c.c ****   * @param  Trials: Number of trials
2240:Drivers/STM32F4xx_HAL_Driver/Src/stm32f4xx_hal_i2c.c ****   * @param  Timeout: Timeout duration
2241:Drivers/STM32F4xx_HAL_Driver/Src/stm32f4xx_hal_i2c.c ****   * @retval HAL status
2242:Drivers/STM32F4xx_HAL_Driver/Src/stm32f4xx_hal_i2c.c ****   */
2243:Drivers/STM32F4xx_HAL_Driver/Src/stm32f4xx_hal_i2c.c **** HAL_StatusTypeDef HAL_I2C_IsDeviceReady(I2C_HandleTypeDef *hi2c, uint16_t DevAddress, uint32_t Tria
2244:Drivers/STM32F4xx_HAL_Driver/Src/stm32f4xx_hal_i2c.c **** {
 4706              		.loc 1 2244 0
 4707              		.cfi_startproc
 4708              		@ args = 0, pretend = 0, frame = 40
 4709              		@ frame_needed = 1, uses_anonymous_args = 0
 4710 0000 80B5     		push	{r7, lr}
 4711              	.LCFI66:
 4712              		.cfi_def_cfa_offset 8
 4713              		.cfi_offset 7, -8
 4714              		.cfi_offset 14, -4
 4715 0002 8AB0     		sub	sp, sp, #40
 4716              	.LCFI67:
 4717              		.cfi_def_cfa_offset 48
 4718 0004 00AF     		add	r7, sp, #0
 4719              	.LCFI68:
 4720              		.cfi_def_cfa_register 7
 4721 0006 F860     		str	r0, [r7, #12]
 4722 0008 7A60     		str	r2, [r7, #4]
 4723 000a 3B60     		str	r3, [r7]
 4724 000c 0B46     		mov	r3, r1	@ movhi
 4725 000e 7B81     		strh	r3, [r7, #10]	@ movhi
2245:Drivers/STM32F4xx_HAL_Driver/Src/stm32f4xx_hal_i2c.c ****   uint32_t tickstart = 0, tmp1 = 0, tmp2 = 0, tmp3 = 0, I2C_Trials = 1;
 4726              		.loc 1 2245 0
 4727 0010 0023     		movs	r3, #0
 4728 0012 7B61     		str	r3, [r7, #20]
 4729 0014 0023     		movs	r3, #0
 4730 0016 7B62     		str	r3, [r7, #36]
 4731 0018 0023     		movs	r3, #0
 4732 001a 3B62     		str	r3, [r7, #32]
 4733 001c 0023     		movs	r3, #0
 4734 001e FB61     		str	r3, [r7, #28]
 4735 0020 0123     		movs	r3, #1
 4736 0022 BB61     		str	r3, [r7, #24]
2246:Drivers/STM32F4xx_HAL_Driver/Src/stm32f4xx_hal_i2c.c **** 
2247:Drivers/STM32F4xx_HAL_Driver/Src/stm32f4xx_hal_i2c.c ****   if(hi2c->State == HAL_I2C_STATE_READY)
 4737              		.loc 1 2247 0
 4738 0024 FB68     		ldr	r3, [r7, #12]
 4739 0026 93F83530 		ldrb	r3, [r3, #53]
 4740 002a DBB2     		uxtb	r3, r3
 4741 002c 012B     		cmp	r3, #1
 4742 002e 40F0EF80 		bne	.L274
2248:Drivers/STM32F4xx_HAL_Driver/Src/stm32f4xx_hal_i2c.c ****   {
2249:Drivers/STM32F4xx_HAL_Driver/Src/stm32f4xx_hal_i2c.c ****     /* Wait until BUSY flag is reset */
2250:Drivers/STM32F4xx_HAL_Driver/Src/stm32f4xx_hal_i2c.c ****     if(I2C_WaitOnFlagUntilTimeout(hi2c, I2C_FLAG_BUSY, SET, I2C_TIMEOUT_BUSY_FLAG) != HAL_OK)
 4743              		.loc 1 2250 0
ARM GAS  /tmp/cc5bMm9J.s 			page 123


 4744 0032 F868     		ldr	r0, [r7, #12]
 4745 0034 7949     		ldr	r1, .L288
 4746 0036 0122     		movs	r2, #1
 4747 0038 42F21073 		movw	r3, #10000
 4748 003c FFF7FEFF 		bl	I2C_WaitOnFlagUntilTimeout
 4749 0040 0346     		mov	r3, r0
 4750 0042 002B     		cmp	r3, #0
 4751 0044 01D0     		beq	.L275
2251:Drivers/STM32F4xx_HAL_Driver/Src/stm32f4xx_hal_i2c.c ****     {
2252:Drivers/STM32F4xx_HAL_Driver/Src/stm32f4xx_hal_i2c.c ****       return HAL_BUSY;
 4752              		.loc 1 2252 0
 4753 0046 0223     		movs	r3, #2
 4754 0048 E3E0     		b	.L276
 4755              	.L275:
2253:Drivers/STM32F4xx_HAL_Driver/Src/stm32f4xx_hal_i2c.c ****     }
2254:Drivers/STM32F4xx_HAL_Driver/Src/stm32f4xx_hal_i2c.c **** 
2255:Drivers/STM32F4xx_HAL_Driver/Src/stm32f4xx_hal_i2c.c ****     /* Process Locked */
2256:Drivers/STM32F4xx_HAL_Driver/Src/stm32f4xx_hal_i2c.c ****     __HAL_LOCK(hi2c);
 4756              		.loc 1 2256 0
 4757 004a FB68     		ldr	r3, [r7, #12]
 4758 004c 93F83430 		ldrb	r3, [r3, #52]	@ zero_extendqisi2
 4759 0050 012B     		cmp	r3, #1
 4760 0052 01D1     		bne	.L277
 4761              		.loc 1 2256 0 is_stmt 0 discriminator 1
 4762 0054 0223     		movs	r3, #2
 4763 0056 DCE0     		b	.L276
 4764              	.L277:
 4765              		.loc 1 2256 0 discriminator 2
 4766 0058 FB68     		ldr	r3, [r7, #12]
 4767 005a 0122     		movs	r2, #1
 4768 005c 83F83420 		strb	r2, [r3, #52]
2257:Drivers/STM32F4xx_HAL_Driver/Src/stm32f4xx_hal_i2c.c ****     
2258:Drivers/STM32F4xx_HAL_Driver/Src/stm32f4xx_hal_i2c.c ****     /* Disable Pos */
2259:Drivers/STM32F4xx_HAL_Driver/Src/stm32f4xx_hal_i2c.c ****     hi2c->Instance->CR1 &= ~I2C_CR1_POS;
 4769              		.loc 1 2259 0 is_stmt 1 discriminator 2
 4770 0060 FB68     		ldr	r3, [r7, #12]
 4771 0062 1B68     		ldr	r3, [r3]
 4772 0064 FA68     		ldr	r2, [r7, #12]
 4773 0066 1268     		ldr	r2, [r2]
 4774 0068 1268     		ldr	r2, [r2]
 4775 006a 22F40062 		bic	r2, r2, #2048
 4776 006e 1A60     		str	r2, [r3]
2260:Drivers/STM32F4xx_HAL_Driver/Src/stm32f4xx_hal_i2c.c **** 
2261:Drivers/STM32F4xx_HAL_Driver/Src/stm32f4xx_hal_i2c.c ****     hi2c->State = HAL_I2C_STATE_BUSY;
 4777              		.loc 1 2261 0 discriminator 2
 4778 0070 FB68     		ldr	r3, [r7, #12]
 4779 0072 0222     		movs	r2, #2
 4780 0074 83F83520 		strb	r2, [r3, #53]
2262:Drivers/STM32F4xx_HAL_Driver/Src/stm32f4xx_hal_i2c.c ****     hi2c->ErrorCode = HAL_I2C_ERROR_NONE;
 4781              		.loc 1 2262 0 discriminator 2
 4782 0078 FB68     		ldr	r3, [r7, #12]
 4783 007a 0022     		movs	r2, #0
 4784 007c 9A63     		str	r2, [r3, #56]
 4785              	.L287:
2263:Drivers/STM32F4xx_HAL_Driver/Src/stm32f4xx_hal_i2c.c **** 
2264:Drivers/STM32F4xx_HAL_Driver/Src/stm32f4xx_hal_i2c.c ****     do
2265:Drivers/STM32F4xx_HAL_Driver/Src/stm32f4xx_hal_i2c.c ****     {
ARM GAS  /tmp/cc5bMm9J.s 			page 124


2266:Drivers/STM32F4xx_HAL_Driver/Src/stm32f4xx_hal_i2c.c ****       /* Generate Start */
2267:Drivers/STM32F4xx_HAL_Driver/Src/stm32f4xx_hal_i2c.c ****       hi2c->Instance->CR1 |= I2C_CR1_START;
 4786              		.loc 1 2267 0
 4787 007e FB68     		ldr	r3, [r7, #12]
 4788 0080 1B68     		ldr	r3, [r3]
 4789 0082 FA68     		ldr	r2, [r7, #12]
 4790 0084 1268     		ldr	r2, [r2]
 4791 0086 1268     		ldr	r2, [r2]
 4792 0088 42F48072 		orr	r2, r2, #256
 4793 008c 1A60     		str	r2, [r3]
2268:Drivers/STM32F4xx_HAL_Driver/Src/stm32f4xx_hal_i2c.c **** 
2269:Drivers/STM32F4xx_HAL_Driver/Src/stm32f4xx_hal_i2c.c ****       /* Wait until SB flag is set */
2270:Drivers/STM32F4xx_HAL_Driver/Src/stm32f4xx_hal_i2c.c ****       if(I2C_WaitOnFlagUntilTimeout(hi2c, I2C_FLAG_SB, RESET, Timeout) != HAL_OK)
 4794              		.loc 1 2270 0
 4795 008e F868     		ldr	r0, [r7, #12]
 4796 0090 4FF00111 		mov	r1, #65537
 4797 0094 0022     		movs	r2, #0
 4798 0096 3B68     		ldr	r3, [r7]
 4799 0098 FFF7FEFF 		bl	I2C_WaitOnFlagUntilTimeout
 4800 009c 0346     		mov	r3, r0
 4801 009e 002B     		cmp	r3, #0
 4802 00a0 01D0     		beq	.L278
2271:Drivers/STM32F4xx_HAL_Driver/Src/stm32f4xx_hal_i2c.c ****       {
2272:Drivers/STM32F4xx_HAL_Driver/Src/stm32f4xx_hal_i2c.c ****         return HAL_TIMEOUT;
 4803              		.loc 1 2272 0
 4804 00a2 0323     		movs	r3, #3
 4805 00a4 B5E0     		b	.L276
 4806              	.L278:
2273:Drivers/STM32F4xx_HAL_Driver/Src/stm32f4xx_hal_i2c.c ****       }
2274:Drivers/STM32F4xx_HAL_Driver/Src/stm32f4xx_hal_i2c.c **** 
2275:Drivers/STM32F4xx_HAL_Driver/Src/stm32f4xx_hal_i2c.c ****       /* Send slave address */
2276:Drivers/STM32F4xx_HAL_Driver/Src/stm32f4xx_hal_i2c.c ****       hi2c->Instance->DR = I2C_7BIT_ADD_WRITE(DevAddress);
 4807              		.loc 1 2276 0
 4808 00a6 FB68     		ldr	r3, [r7, #12]
 4809 00a8 1B68     		ldr	r3, [r3]
 4810 00aa 7A89     		ldrh	r2, [r7, #10]	@ movhi
 4811 00ac D2B2     		uxtb	r2, r2
 4812 00ae 02F0FE02 		and	r2, r2, #254
 4813 00b2 1A61     		str	r2, [r3, #16]
2277:Drivers/STM32F4xx_HAL_Driver/Src/stm32f4xx_hal_i2c.c **** 
2278:Drivers/STM32F4xx_HAL_Driver/Src/stm32f4xx_hal_i2c.c ****       /* Wait until ADDR or AF flag are set */
2279:Drivers/STM32F4xx_HAL_Driver/Src/stm32f4xx_hal_i2c.c ****       /* Get tick */
2280:Drivers/STM32F4xx_HAL_Driver/Src/stm32f4xx_hal_i2c.c ****       tickstart = HAL_GetTick();
 4814              		.loc 1 2280 0
 4815 00b4 FFF7FEFF 		bl	HAL_GetTick
 4816 00b8 7861     		str	r0, [r7, #20]
2281:Drivers/STM32F4xx_HAL_Driver/Src/stm32f4xx_hal_i2c.c **** 
2282:Drivers/STM32F4xx_HAL_Driver/Src/stm32f4xx_hal_i2c.c ****       tmp1 = __HAL_I2C_GET_FLAG(hi2c, I2C_FLAG_ADDR);
 4817              		.loc 1 2282 0
 4818 00ba FB68     		ldr	r3, [r7, #12]
 4819 00bc 1B68     		ldr	r3, [r3]
 4820 00be 5B69     		ldr	r3, [r3, #20]
 4821 00c0 03F00203 		and	r3, r3, #2
 4822 00c4 002B     		cmp	r3, #0
 4823 00c6 0CBF     		ite	eq
 4824 00c8 0023     		moveq	r3, #0
 4825 00ca 0123     		movne	r3, #1
ARM GAS  /tmp/cc5bMm9J.s 			page 125


 4826 00cc DBB2     		uxtb	r3, r3
 4827 00ce 7B62     		str	r3, [r7, #36]
2283:Drivers/STM32F4xx_HAL_Driver/Src/stm32f4xx_hal_i2c.c ****       tmp2 = __HAL_I2C_GET_FLAG(hi2c, I2C_FLAG_AF);
 4828              		.loc 1 2283 0
 4829 00d0 FB68     		ldr	r3, [r7, #12]
 4830 00d2 1B68     		ldr	r3, [r3]
 4831 00d4 5B69     		ldr	r3, [r3, #20]
 4832 00d6 03F48063 		and	r3, r3, #1024
 4833 00da 002B     		cmp	r3, #0
 4834 00dc 0CBF     		ite	eq
 4835 00de 0023     		moveq	r3, #0
 4836 00e0 0123     		movne	r3, #1
 4837 00e2 DBB2     		uxtb	r3, r3
 4838 00e4 3B62     		str	r3, [r7, #32]
2284:Drivers/STM32F4xx_HAL_Driver/Src/stm32f4xx_hal_i2c.c ****       tmp3 = hi2c->State;
 4839              		.loc 1 2284 0
 4840 00e6 FB68     		ldr	r3, [r7, #12]
 4841 00e8 93F83530 		ldrb	r3, [r3, #53]
 4842 00ec DBB2     		uxtb	r3, r3
 4843 00ee FB61     		str	r3, [r7, #28]
2285:Drivers/STM32F4xx_HAL_Driver/Src/stm32f4xx_hal_i2c.c ****       while((tmp1 == RESET) && (tmp2 == RESET) && (tmp3 != HAL_I2C_STATE_TIMEOUT))
 4844              		.loc 1 2285 0
 4845 00f0 29E0     		b	.L279
 4846              	.L283:
2286:Drivers/STM32F4xx_HAL_Driver/Src/stm32f4xx_hal_i2c.c ****       {
2287:Drivers/STM32F4xx_HAL_Driver/Src/stm32f4xx_hal_i2c.c ****         if((Timeout == 0)||((HAL_GetTick() - tickstart ) > Timeout))
 4847              		.loc 1 2287 0
 4848 00f2 3B68     		ldr	r3, [r7]
 4849 00f4 002B     		cmp	r3, #0
 4850 00f6 07D0     		beq	.L280
 4851              		.loc 1 2287 0 is_stmt 0 discriminator 1
 4852 00f8 FFF7FEFF 		bl	HAL_GetTick
 4853 00fc 0246     		mov	r2, r0
 4854 00fe 7B69     		ldr	r3, [r7, #20]
 4855 0100 D21A     		subs	r2, r2, r3
 4856 0102 3B68     		ldr	r3, [r7]
 4857 0104 9A42     		cmp	r2, r3
 4858 0106 03D9     		bls	.L281
 4859              	.L280:
2288:Drivers/STM32F4xx_HAL_Driver/Src/stm32f4xx_hal_i2c.c ****         {
2289:Drivers/STM32F4xx_HAL_Driver/Src/stm32f4xx_hal_i2c.c ****           hi2c->State = HAL_I2C_STATE_TIMEOUT;
 4860              		.loc 1 2289 0 is_stmt 1
 4861 0108 FB68     		ldr	r3, [r7, #12]
 4862 010a 0322     		movs	r2, #3
 4863 010c 83F83520 		strb	r2, [r3, #53]
 4864              	.L281:
2290:Drivers/STM32F4xx_HAL_Driver/Src/stm32f4xx_hal_i2c.c ****         }
2291:Drivers/STM32F4xx_HAL_Driver/Src/stm32f4xx_hal_i2c.c ****         tmp1 = __HAL_I2C_GET_FLAG(hi2c, I2C_FLAG_ADDR);
 4865              		.loc 1 2291 0
 4866 0110 FB68     		ldr	r3, [r7, #12]
 4867 0112 1B68     		ldr	r3, [r3]
 4868 0114 5B69     		ldr	r3, [r3, #20]
 4869 0116 03F00203 		and	r3, r3, #2
 4870 011a 002B     		cmp	r3, #0
 4871 011c 0CBF     		ite	eq
 4872 011e 0023     		moveq	r3, #0
 4873 0120 0123     		movne	r3, #1
ARM GAS  /tmp/cc5bMm9J.s 			page 126


 4874 0122 DBB2     		uxtb	r3, r3
 4875 0124 7B62     		str	r3, [r7, #36]
2292:Drivers/STM32F4xx_HAL_Driver/Src/stm32f4xx_hal_i2c.c ****         tmp2 = __HAL_I2C_GET_FLAG(hi2c, I2C_FLAG_AF);
 4876              		.loc 1 2292 0
 4877 0126 FB68     		ldr	r3, [r7, #12]
 4878 0128 1B68     		ldr	r3, [r3]
 4879 012a 5B69     		ldr	r3, [r3, #20]
 4880 012c 03F48063 		and	r3, r3, #1024
 4881 0130 002B     		cmp	r3, #0
 4882 0132 0CBF     		ite	eq
 4883 0134 0023     		moveq	r3, #0
 4884 0136 0123     		movne	r3, #1
 4885 0138 DBB2     		uxtb	r3, r3
 4886 013a 3B62     		str	r3, [r7, #32]
2293:Drivers/STM32F4xx_HAL_Driver/Src/stm32f4xx_hal_i2c.c ****         tmp3 = hi2c->State;
 4887              		.loc 1 2293 0
 4888 013c FB68     		ldr	r3, [r7, #12]
 4889 013e 93F83530 		ldrb	r3, [r3, #53]
 4890 0142 DBB2     		uxtb	r3, r3
 4891 0144 FB61     		str	r3, [r7, #28]
 4892              	.L279:
2285:Drivers/STM32F4xx_HAL_Driver/Src/stm32f4xx_hal_i2c.c ****       {
 4893              		.loc 1 2285 0 discriminator 1
 4894 0146 7B6A     		ldr	r3, [r7, #36]
 4895 0148 002B     		cmp	r3, #0
 4896 014a 05D1     		bne	.L282
2285:Drivers/STM32F4xx_HAL_Driver/Src/stm32f4xx_hal_i2c.c ****       {
 4897              		.loc 1 2285 0 is_stmt 0 discriminator 2
 4898 014c 3B6A     		ldr	r3, [r7, #32]
 4899 014e 002B     		cmp	r3, #0
 4900 0150 02D1     		bne	.L282
2285:Drivers/STM32F4xx_HAL_Driver/Src/stm32f4xx_hal_i2c.c ****       {
 4901              		.loc 1 2285 0 discriminator 1
 4902 0152 FB69     		ldr	r3, [r7, #28]
 4903 0154 032B     		cmp	r3, #3
 4904 0156 CCD1     		bne	.L283
 4905              	.L282:
2294:Drivers/STM32F4xx_HAL_Driver/Src/stm32f4xx_hal_i2c.c ****       }
2295:Drivers/STM32F4xx_HAL_Driver/Src/stm32f4xx_hal_i2c.c **** 
2296:Drivers/STM32F4xx_HAL_Driver/Src/stm32f4xx_hal_i2c.c ****       hi2c->State = HAL_I2C_STATE_READY;
 4906              		.loc 1 2296 0 is_stmt 1
 4907 0158 FB68     		ldr	r3, [r7, #12]
 4908 015a 0122     		movs	r2, #1
 4909 015c 83F83520 		strb	r2, [r3, #53]
2297:Drivers/STM32F4xx_HAL_Driver/Src/stm32f4xx_hal_i2c.c **** 
2298:Drivers/STM32F4xx_HAL_Driver/Src/stm32f4xx_hal_i2c.c ****       /* Check if the ADDR flag has been set */
2299:Drivers/STM32F4xx_HAL_Driver/Src/stm32f4xx_hal_i2c.c ****       if(__HAL_I2C_GET_FLAG(hi2c, I2C_FLAG_ADDR) == SET)
 4910              		.loc 1 2299 0
 4911 0160 FB68     		ldr	r3, [r7, #12]
 4912 0162 1B68     		ldr	r3, [r3]
 4913 0164 5B69     		ldr	r3, [r3, #20]
 4914 0166 03F00203 		and	r3, r3, #2
 4915 016a 002B     		cmp	r3, #0
 4916 016c 26D0     		beq	.L284
2300:Drivers/STM32F4xx_HAL_Driver/Src/stm32f4xx_hal_i2c.c ****       {
2301:Drivers/STM32F4xx_HAL_Driver/Src/stm32f4xx_hal_i2c.c ****         /* Generate Stop */
2302:Drivers/STM32F4xx_HAL_Driver/Src/stm32f4xx_hal_i2c.c ****         hi2c->Instance->CR1 |= I2C_CR1_STOP;
ARM GAS  /tmp/cc5bMm9J.s 			page 127


 4917              		.loc 1 2302 0
 4918 016e FB68     		ldr	r3, [r7, #12]
 4919 0170 1B68     		ldr	r3, [r3]
 4920 0172 FA68     		ldr	r2, [r7, #12]
 4921 0174 1268     		ldr	r2, [r2]
 4922 0176 1268     		ldr	r2, [r2]
 4923 0178 42F40072 		orr	r2, r2, #512
 4924 017c 1A60     		str	r2, [r3]
 4925              	.LBB27:
2303:Drivers/STM32F4xx_HAL_Driver/Src/stm32f4xx_hal_i2c.c **** 
2304:Drivers/STM32F4xx_HAL_Driver/Src/stm32f4xx_hal_i2c.c ****         /* Clear ADDR Flag */
2305:Drivers/STM32F4xx_HAL_Driver/Src/stm32f4xx_hal_i2c.c ****         __HAL_I2C_CLEAR_ADDRFLAG(hi2c);
 4926              		.loc 1 2305 0
 4927 017e FB68     		ldr	r3, [r7, #12]
 4928 0180 1B68     		ldr	r3, [r3]
 4929 0182 5B69     		ldr	r3, [r3, #20]
 4930 0184 3B61     		str	r3, [r7, #16]
 4931 0186 FB68     		ldr	r3, [r7, #12]
 4932 0188 1B68     		ldr	r3, [r3]
 4933 018a 9B69     		ldr	r3, [r3, #24]
 4934 018c 3B61     		str	r3, [r7, #16]
 4935 018e 3B69     		ldr	r3, [r7, #16]
 4936              	.LBE27:
2306:Drivers/STM32F4xx_HAL_Driver/Src/stm32f4xx_hal_i2c.c **** 
2307:Drivers/STM32F4xx_HAL_Driver/Src/stm32f4xx_hal_i2c.c ****         /* Wait until BUSY flag is reset */
2308:Drivers/STM32F4xx_HAL_Driver/Src/stm32f4xx_hal_i2c.c ****         if(I2C_WaitOnFlagUntilTimeout(hi2c, I2C_FLAG_BUSY, SET, I2C_TIMEOUT_BUSY_FLAG) != HAL_OK)
 4937              		.loc 1 2308 0
 4938 0190 F868     		ldr	r0, [r7, #12]
 4939 0192 2249     		ldr	r1, .L288
 4940 0194 0122     		movs	r2, #1
 4941 0196 42F21073 		movw	r3, #10000
 4942 019a FFF7FEFF 		bl	I2C_WaitOnFlagUntilTimeout
 4943 019e 0346     		mov	r3, r0
 4944 01a0 002B     		cmp	r3, #0
 4945 01a2 01D0     		beq	.L285
2309:Drivers/STM32F4xx_HAL_Driver/Src/stm32f4xx_hal_i2c.c ****         {
2310:Drivers/STM32F4xx_HAL_Driver/Src/stm32f4xx_hal_i2c.c ****           return HAL_TIMEOUT;
 4946              		.loc 1 2310 0
 4947 01a4 0323     		movs	r3, #3
 4948 01a6 34E0     		b	.L276
 4949              	.L285:
2311:Drivers/STM32F4xx_HAL_Driver/Src/stm32f4xx_hal_i2c.c ****         }
2312:Drivers/STM32F4xx_HAL_Driver/Src/stm32f4xx_hal_i2c.c **** 
2313:Drivers/STM32F4xx_HAL_Driver/Src/stm32f4xx_hal_i2c.c ****         hi2c->State = HAL_I2C_STATE_READY;
 4950              		.loc 1 2313 0
 4951 01a8 FB68     		ldr	r3, [r7, #12]
 4952 01aa 0122     		movs	r2, #1
 4953 01ac 83F83520 		strb	r2, [r3, #53]
2314:Drivers/STM32F4xx_HAL_Driver/Src/stm32f4xx_hal_i2c.c **** 
2315:Drivers/STM32F4xx_HAL_Driver/Src/stm32f4xx_hal_i2c.c ****         /* Process Unlocked */
2316:Drivers/STM32F4xx_HAL_Driver/Src/stm32f4xx_hal_i2c.c ****         __HAL_UNLOCK(hi2c);
 4954              		.loc 1 2316 0
 4955 01b0 FB68     		ldr	r3, [r7, #12]
 4956 01b2 0022     		movs	r2, #0
 4957 01b4 83F83420 		strb	r2, [r3, #52]
2317:Drivers/STM32F4xx_HAL_Driver/Src/stm32f4xx_hal_i2c.c **** 
2318:Drivers/STM32F4xx_HAL_Driver/Src/stm32f4xx_hal_i2c.c ****         return HAL_OK;
ARM GAS  /tmp/cc5bMm9J.s 			page 128


 4958              		.loc 1 2318 0
 4959 01b8 0023     		movs	r3, #0
 4960 01ba 2AE0     		b	.L276
 4961              	.L284:
2319:Drivers/STM32F4xx_HAL_Driver/Src/stm32f4xx_hal_i2c.c ****       }
2320:Drivers/STM32F4xx_HAL_Driver/Src/stm32f4xx_hal_i2c.c ****       else
2321:Drivers/STM32F4xx_HAL_Driver/Src/stm32f4xx_hal_i2c.c ****       {
2322:Drivers/STM32F4xx_HAL_Driver/Src/stm32f4xx_hal_i2c.c ****         /* Generate Stop */
2323:Drivers/STM32F4xx_HAL_Driver/Src/stm32f4xx_hal_i2c.c ****         hi2c->Instance->CR1 |= I2C_CR1_STOP;
 4962              		.loc 1 2323 0
 4963 01bc FB68     		ldr	r3, [r7, #12]
 4964 01be 1B68     		ldr	r3, [r3]
 4965 01c0 FA68     		ldr	r2, [r7, #12]
 4966 01c2 1268     		ldr	r2, [r2]
 4967 01c4 1268     		ldr	r2, [r2]
 4968 01c6 42F40072 		orr	r2, r2, #512
 4969 01ca 1A60     		str	r2, [r3]
2324:Drivers/STM32F4xx_HAL_Driver/Src/stm32f4xx_hal_i2c.c **** 
2325:Drivers/STM32F4xx_HAL_Driver/Src/stm32f4xx_hal_i2c.c ****         /* Clear AF Flag */
2326:Drivers/STM32F4xx_HAL_Driver/Src/stm32f4xx_hal_i2c.c ****         __HAL_I2C_CLEAR_FLAG(hi2c, I2C_FLAG_AF);
 4970              		.loc 1 2326 0
 4971 01cc FB68     		ldr	r3, [r7, #12]
 4972 01ce 1B68     		ldr	r3, [r3]
 4973 01d0 6FF48062 		mvn	r2, #1024
 4974 01d4 5A61     		str	r2, [r3, #20]
2327:Drivers/STM32F4xx_HAL_Driver/Src/stm32f4xx_hal_i2c.c **** 
2328:Drivers/STM32F4xx_HAL_Driver/Src/stm32f4xx_hal_i2c.c ****         /* Wait until BUSY flag is reset */
2329:Drivers/STM32F4xx_HAL_Driver/Src/stm32f4xx_hal_i2c.c ****         if(I2C_WaitOnFlagUntilTimeout(hi2c, I2C_FLAG_BUSY, SET, I2C_TIMEOUT_BUSY_FLAG) != HAL_OK)
 4975              		.loc 1 2329 0
 4976 01d6 F868     		ldr	r0, [r7, #12]
 4977 01d8 1049     		ldr	r1, .L288
 4978 01da 0122     		movs	r2, #1
 4979 01dc 42F21073 		movw	r3, #10000
 4980 01e0 FFF7FEFF 		bl	I2C_WaitOnFlagUntilTimeout
 4981 01e4 0346     		mov	r3, r0
 4982 01e6 002B     		cmp	r3, #0
 4983 01e8 01D0     		beq	.L286
2330:Drivers/STM32F4xx_HAL_Driver/Src/stm32f4xx_hal_i2c.c ****         {
2331:Drivers/STM32F4xx_HAL_Driver/Src/stm32f4xx_hal_i2c.c ****           return HAL_TIMEOUT;
 4984              		.loc 1 2331 0
 4985 01ea 0323     		movs	r3, #3
 4986 01ec 11E0     		b	.L276
 4987              	.L286:
2332:Drivers/STM32F4xx_HAL_Driver/Src/stm32f4xx_hal_i2c.c ****         }
2333:Drivers/STM32F4xx_HAL_Driver/Src/stm32f4xx_hal_i2c.c **** 
2334:Drivers/STM32F4xx_HAL_Driver/Src/stm32f4xx_hal_i2c.c ****       }
2335:Drivers/STM32F4xx_HAL_Driver/Src/stm32f4xx_hal_i2c.c ****     }while(I2C_Trials++ < Trials);
 4988              		.loc 1 2335 0
 4989 01ee BB69     		ldr	r3, [r7, #24]
 4990 01f0 5A1C     		adds	r2, r3, #1
 4991 01f2 BA61     		str	r2, [r7, #24]
 4992 01f4 7A68     		ldr	r2, [r7, #4]
 4993 01f6 9342     		cmp	r3, r2
 4994 01f8 FFF441AF 		bcc	.L287
2336:Drivers/STM32F4xx_HAL_Driver/Src/stm32f4xx_hal_i2c.c **** 
2337:Drivers/STM32F4xx_HAL_Driver/Src/stm32f4xx_hal_i2c.c ****     hi2c->State = HAL_I2C_STATE_READY;
 4995              		.loc 1 2337 0
ARM GAS  /tmp/cc5bMm9J.s 			page 129


 4996 01fc FB68     		ldr	r3, [r7, #12]
 4997 01fe 0122     		movs	r2, #1
 4998 0200 83F83520 		strb	r2, [r3, #53]
2338:Drivers/STM32F4xx_HAL_Driver/Src/stm32f4xx_hal_i2c.c **** 
2339:Drivers/STM32F4xx_HAL_Driver/Src/stm32f4xx_hal_i2c.c ****     /* Process Unlocked */
2340:Drivers/STM32F4xx_HAL_Driver/Src/stm32f4xx_hal_i2c.c ****     __HAL_UNLOCK(hi2c);
 4999              		.loc 1 2340 0
 5000 0204 FB68     		ldr	r3, [r7, #12]
 5001 0206 0022     		movs	r2, #0
 5002 0208 83F83420 		strb	r2, [r3, #52]
2341:Drivers/STM32F4xx_HAL_Driver/Src/stm32f4xx_hal_i2c.c **** 
2342:Drivers/STM32F4xx_HAL_Driver/Src/stm32f4xx_hal_i2c.c ****     return HAL_ERROR;
 5003              		.loc 1 2342 0
 5004 020c 0123     		movs	r3, #1
 5005 020e 00E0     		b	.L276
 5006              	.L274:
2343:Drivers/STM32F4xx_HAL_Driver/Src/stm32f4xx_hal_i2c.c ****   }
2344:Drivers/STM32F4xx_HAL_Driver/Src/stm32f4xx_hal_i2c.c ****   else
2345:Drivers/STM32F4xx_HAL_Driver/Src/stm32f4xx_hal_i2c.c ****   {
2346:Drivers/STM32F4xx_HAL_Driver/Src/stm32f4xx_hal_i2c.c ****     return HAL_BUSY;
 5007              		.loc 1 2346 0
 5008 0210 0223     		movs	r3, #2
 5009              	.L276:
2347:Drivers/STM32F4xx_HAL_Driver/Src/stm32f4xx_hal_i2c.c ****   }
2348:Drivers/STM32F4xx_HAL_Driver/Src/stm32f4xx_hal_i2c.c **** }
 5010              		.loc 1 2348 0
 5011 0212 1846     		mov	r0, r3
 5012 0214 2837     		adds	r7, r7, #40
 5013 0216 BD46     		mov	sp, r7
 5014              		@ sp needed
 5015 0218 80BD     		pop	{r7, pc}
 5016              	.L289:
 5017 021a 00BF     		.align	2
 5018              	.L288:
 5019 021c 02001000 		.word	1048578
 5020              		.cfi_endproc
 5021              	.LFE147:
 5023              		.section	.text.HAL_I2C_EV_IRQHandler,"ax",%progbits
 5024              		.align	2
 5025              		.global	HAL_I2C_EV_IRQHandler
 5026              		.thumb
 5027              		.thumb_func
 5029              	HAL_I2C_EV_IRQHandler:
 5030              	.LFB148:
2349:Drivers/STM32F4xx_HAL_Driver/Src/stm32f4xx_hal_i2c.c **** 
2350:Drivers/STM32F4xx_HAL_Driver/Src/stm32f4xx_hal_i2c.c **** /**
2351:Drivers/STM32F4xx_HAL_Driver/Src/stm32f4xx_hal_i2c.c ****   * @brief  This function handles I2C event interrupt request.
2352:Drivers/STM32F4xx_HAL_Driver/Src/stm32f4xx_hal_i2c.c ****   * @param  hi2c: pointer to a I2C_HandleTypeDef structure that contains
2353:Drivers/STM32F4xx_HAL_Driver/Src/stm32f4xx_hal_i2c.c ****   *         the configuration information for I2C module
2354:Drivers/STM32F4xx_HAL_Driver/Src/stm32f4xx_hal_i2c.c ****   * @retval HAL status
2355:Drivers/STM32F4xx_HAL_Driver/Src/stm32f4xx_hal_i2c.c ****   */
2356:Drivers/STM32F4xx_HAL_Driver/Src/stm32f4xx_hal_i2c.c **** void HAL_I2C_EV_IRQHandler(I2C_HandleTypeDef *hi2c)
2357:Drivers/STM32F4xx_HAL_Driver/Src/stm32f4xx_hal_i2c.c **** {
 5031              		.loc 1 2357 0
 5032              		.cfi_startproc
 5033              		@ args = 0, pretend = 0, frame = 24
 5034              		@ frame_needed = 1, uses_anonymous_args = 0
ARM GAS  /tmp/cc5bMm9J.s 			page 130


 5035 0000 80B5     		push	{r7, lr}
 5036              	.LCFI69:
 5037              		.cfi_def_cfa_offset 8
 5038              		.cfi_offset 7, -8
 5039              		.cfi_offset 14, -4
 5040 0002 86B0     		sub	sp, sp, #24
 5041              	.LCFI70:
 5042              		.cfi_def_cfa_offset 32
 5043 0004 00AF     		add	r7, sp, #0
 5044              	.LCFI71:
 5045              		.cfi_def_cfa_register 7
 5046 0006 7860     		str	r0, [r7, #4]
2358:Drivers/STM32F4xx_HAL_Driver/Src/stm32f4xx_hal_i2c.c ****   uint32_t tmp1 = 0, tmp2 = 0, tmp3 = 0, tmp4 = 0;
 5047              		.loc 1 2358 0
 5048 0008 0023     		movs	r3, #0
 5049 000a 7B61     		str	r3, [r7, #20]
 5050 000c 0023     		movs	r3, #0
 5051 000e 3B61     		str	r3, [r7, #16]
 5052 0010 0023     		movs	r3, #0
 5053 0012 FB60     		str	r3, [r7, #12]
 5054 0014 0023     		movs	r3, #0
 5055 0016 BB60     		str	r3, [r7, #8]
2359:Drivers/STM32F4xx_HAL_Driver/Src/stm32f4xx_hal_i2c.c ****   /* Master mode selected */
2360:Drivers/STM32F4xx_HAL_Driver/Src/stm32f4xx_hal_i2c.c ****   if(__HAL_I2C_GET_FLAG(hi2c, I2C_FLAG_MSL) == SET)
 5056              		.loc 1 2360 0
 5057 0018 7B68     		ldr	r3, [r7, #4]
 5058 001a 1B68     		ldr	r3, [r3]
 5059 001c 9B69     		ldr	r3, [r3, #24]
 5060 001e 03F00103 		and	r3, r3, #1
 5061 0022 002B     		cmp	r3, #0
 5062 0024 00F09180 		beq	.L291
2361:Drivers/STM32F4xx_HAL_Driver/Src/stm32f4xx_hal_i2c.c ****   {
2362:Drivers/STM32F4xx_HAL_Driver/Src/stm32f4xx_hal_i2c.c ****     /* I2C in mode Transmitter -----------------------------------------------*/
2363:Drivers/STM32F4xx_HAL_Driver/Src/stm32f4xx_hal_i2c.c ****     if(__HAL_I2C_GET_FLAG(hi2c, I2C_FLAG_TRA) == SET)
 5063              		.loc 1 2363 0
 5064 0028 7B68     		ldr	r3, [r7, #4]
 5065 002a 1B68     		ldr	r3, [r3]
 5066 002c 9B69     		ldr	r3, [r3, #24]
 5067 002e 03F00403 		and	r3, r3, #4
 5068 0032 002B     		cmp	r3, #0
 5069 0034 44D0     		beq	.L292
2364:Drivers/STM32F4xx_HAL_Driver/Src/stm32f4xx_hal_i2c.c ****     {
2365:Drivers/STM32F4xx_HAL_Driver/Src/stm32f4xx_hal_i2c.c ****       tmp1 = __HAL_I2C_GET_FLAG(hi2c, I2C_FLAG_TXE);
 5070              		.loc 1 2365 0
 5071 0036 7B68     		ldr	r3, [r7, #4]
 5072 0038 1B68     		ldr	r3, [r3]
 5073 003a 5B69     		ldr	r3, [r3, #20]
 5074 003c 03F08003 		and	r3, r3, #128
 5075 0040 002B     		cmp	r3, #0
 5076 0042 0CBF     		ite	eq
 5077 0044 0023     		moveq	r3, #0
 5078 0046 0123     		movne	r3, #1
 5079 0048 DBB2     		uxtb	r3, r3
 5080 004a 7B61     		str	r3, [r7, #20]
2366:Drivers/STM32F4xx_HAL_Driver/Src/stm32f4xx_hal_i2c.c ****       tmp2 = __HAL_I2C_GET_IT_SOURCE(hi2c, I2C_IT_BUF);
 5081              		.loc 1 2366 0
 5082 004c 7B68     		ldr	r3, [r7, #4]
ARM GAS  /tmp/cc5bMm9J.s 			page 131


 5083 004e 1B68     		ldr	r3, [r3]
 5084 0050 5B68     		ldr	r3, [r3, #4]
 5085 0052 03F48063 		and	r3, r3, #1024
 5086 0056 002B     		cmp	r3, #0
 5087 0058 0CBF     		ite	eq
 5088 005a 0023     		moveq	r3, #0
 5089 005c 0123     		movne	r3, #1
 5090 005e DBB2     		uxtb	r3, r3
 5091 0060 3B61     		str	r3, [r7, #16]
2367:Drivers/STM32F4xx_HAL_Driver/Src/stm32f4xx_hal_i2c.c ****       tmp3 = __HAL_I2C_GET_FLAG(hi2c, I2C_FLAG_BTF);
 5092              		.loc 1 2367 0
 5093 0062 7B68     		ldr	r3, [r7, #4]
 5094 0064 1B68     		ldr	r3, [r3]
 5095 0066 5B69     		ldr	r3, [r3, #20]
 5096 0068 03F00403 		and	r3, r3, #4
 5097 006c 002B     		cmp	r3, #0
 5098 006e 0CBF     		ite	eq
 5099 0070 0023     		moveq	r3, #0
 5100 0072 0123     		movne	r3, #1
 5101 0074 DBB2     		uxtb	r3, r3
 5102 0076 FB60     		str	r3, [r7, #12]
2368:Drivers/STM32F4xx_HAL_Driver/Src/stm32f4xx_hal_i2c.c ****       tmp4 = __HAL_I2C_GET_IT_SOURCE(hi2c, I2C_IT_EVT);
 5103              		.loc 1 2368 0
 5104 0078 7B68     		ldr	r3, [r7, #4]
 5105 007a 1B68     		ldr	r3, [r3]
 5106 007c 5B68     		ldr	r3, [r3, #4]
 5107 007e 03F40073 		and	r3, r3, #512
 5108 0082 002B     		cmp	r3, #0
 5109 0084 0CBF     		ite	eq
 5110 0086 0023     		moveq	r3, #0
 5111 0088 0123     		movne	r3, #1
 5112 008a DBB2     		uxtb	r3, r3
 5113 008c BB60     		str	r3, [r7, #8]
2369:Drivers/STM32F4xx_HAL_Driver/Src/stm32f4xx_hal_i2c.c ****       /* TXE set and BTF reset -----------------------------------------------*/
2370:Drivers/STM32F4xx_HAL_Driver/Src/stm32f4xx_hal_i2c.c ****       if((tmp1 == SET) && (tmp2 == SET) && (tmp3 == RESET))
 5114              		.loc 1 2370 0
 5115 008e 7B69     		ldr	r3, [r7, #20]
 5116 0090 012B     		cmp	r3, #1
 5117 0092 09D1     		bne	.L293
 5118              		.loc 1 2370 0 is_stmt 0 discriminator 1
 5119 0094 3B69     		ldr	r3, [r7, #16]
 5120 0096 012B     		cmp	r3, #1
 5121 0098 06D1     		bne	.L293
 5122 009a FB68     		ldr	r3, [r7, #12]
 5123 009c 002B     		cmp	r3, #0
 5124 009e 03D1     		bne	.L293
2371:Drivers/STM32F4xx_HAL_Driver/Src/stm32f4xx_hal_i2c.c ****       {
2372:Drivers/STM32F4xx_HAL_Driver/Src/stm32f4xx_hal_i2c.c ****         I2C_MasterTransmit_TXE(hi2c);
 5125              		.loc 1 2372 0 is_stmt 1
 5126 00a0 7868     		ldr	r0, [r7, #4]
 5127 00a2 FFF7FEFF 		bl	I2C_MasterTransmit_TXE
 5128 00a6 18E1     		b	.L290
 5129              	.L293:
2373:Drivers/STM32F4xx_HAL_Driver/Src/stm32f4xx_hal_i2c.c ****       }
2374:Drivers/STM32F4xx_HAL_Driver/Src/stm32f4xx_hal_i2c.c ****       /* BTF set -------------------------------------------------------------*/
2375:Drivers/STM32F4xx_HAL_Driver/Src/stm32f4xx_hal_i2c.c ****       else if((tmp3 == SET) && (tmp4 == SET))
 5130              		.loc 1 2375 0
ARM GAS  /tmp/cc5bMm9J.s 			page 132


 5131 00a8 FB68     		ldr	r3, [r7, #12]
 5132 00aa 012B     		cmp	r3, #1
 5133 00ac 40F01581 		bne	.L290
 5134              		.loc 1 2375 0 is_stmt 0 discriminator 1
 5135 00b0 BB68     		ldr	r3, [r7, #8]
 5136 00b2 012B     		cmp	r3, #1
 5137 00b4 40F01181 		bne	.L290
2376:Drivers/STM32F4xx_HAL_Driver/Src/stm32f4xx_hal_i2c.c ****       {
2377:Drivers/STM32F4xx_HAL_Driver/Src/stm32f4xx_hal_i2c.c ****         I2C_MasterTransmit_BTF(hi2c);
 5138              		.loc 1 2377 0 is_stmt 1
 5139 00b8 7868     		ldr	r0, [r7, #4]
 5140 00ba FFF7FEFF 		bl	I2C_MasterTransmit_BTF
 5141 00be 0CE1     		b	.L290
 5142              	.L292:
2378:Drivers/STM32F4xx_HAL_Driver/Src/stm32f4xx_hal_i2c.c ****       }
2379:Drivers/STM32F4xx_HAL_Driver/Src/stm32f4xx_hal_i2c.c ****     }
2380:Drivers/STM32F4xx_HAL_Driver/Src/stm32f4xx_hal_i2c.c ****     /* I2C in mode Receiver --------------------------------------------------*/
2381:Drivers/STM32F4xx_HAL_Driver/Src/stm32f4xx_hal_i2c.c ****     else
2382:Drivers/STM32F4xx_HAL_Driver/Src/stm32f4xx_hal_i2c.c ****     {
2383:Drivers/STM32F4xx_HAL_Driver/Src/stm32f4xx_hal_i2c.c ****       tmp1 = __HAL_I2C_GET_FLAG(hi2c, I2C_FLAG_RXNE);
 5143              		.loc 1 2383 0
 5144 00c0 7B68     		ldr	r3, [r7, #4]
 5145 00c2 1B68     		ldr	r3, [r3]
 5146 00c4 5B69     		ldr	r3, [r3, #20]
 5147 00c6 03F04003 		and	r3, r3, #64
 5148 00ca 002B     		cmp	r3, #0
 5149 00cc 0CBF     		ite	eq
 5150 00ce 0023     		moveq	r3, #0
 5151 00d0 0123     		movne	r3, #1
 5152 00d2 DBB2     		uxtb	r3, r3
 5153 00d4 7B61     		str	r3, [r7, #20]
2384:Drivers/STM32F4xx_HAL_Driver/Src/stm32f4xx_hal_i2c.c ****       tmp2 = __HAL_I2C_GET_IT_SOURCE(hi2c, I2C_IT_BUF);
 5154              		.loc 1 2384 0
 5155 00d6 7B68     		ldr	r3, [r7, #4]
 5156 00d8 1B68     		ldr	r3, [r3]
 5157 00da 5B68     		ldr	r3, [r3, #4]
 5158 00dc 03F48063 		and	r3, r3, #1024
 5159 00e0 002B     		cmp	r3, #0
 5160 00e2 0CBF     		ite	eq
 5161 00e4 0023     		moveq	r3, #0
 5162 00e6 0123     		movne	r3, #1
 5163 00e8 DBB2     		uxtb	r3, r3
 5164 00ea 3B61     		str	r3, [r7, #16]
2385:Drivers/STM32F4xx_HAL_Driver/Src/stm32f4xx_hal_i2c.c ****       tmp3 = __HAL_I2C_GET_FLAG(hi2c, I2C_FLAG_BTF);
 5165              		.loc 1 2385 0
 5166 00ec 7B68     		ldr	r3, [r7, #4]
 5167 00ee 1B68     		ldr	r3, [r3]
 5168 00f0 5B69     		ldr	r3, [r3, #20]
 5169 00f2 03F00403 		and	r3, r3, #4
 5170 00f6 002B     		cmp	r3, #0
 5171 00f8 0CBF     		ite	eq
 5172 00fa 0023     		moveq	r3, #0
 5173 00fc 0123     		movne	r3, #1
 5174 00fe DBB2     		uxtb	r3, r3
 5175 0100 FB60     		str	r3, [r7, #12]
2386:Drivers/STM32F4xx_HAL_Driver/Src/stm32f4xx_hal_i2c.c ****       tmp4 = __HAL_I2C_GET_IT_SOURCE(hi2c, I2C_IT_EVT);
 5176              		.loc 1 2386 0
ARM GAS  /tmp/cc5bMm9J.s 			page 133


 5177 0102 7B68     		ldr	r3, [r7, #4]
 5178 0104 1B68     		ldr	r3, [r3]
 5179 0106 5B68     		ldr	r3, [r3, #4]
 5180 0108 03F40073 		and	r3, r3, #512
 5181 010c 002B     		cmp	r3, #0
 5182 010e 0CBF     		ite	eq
 5183 0110 0023     		moveq	r3, #0
 5184 0112 0123     		movne	r3, #1
 5185 0114 DBB2     		uxtb	r3, r3
 5186 0116 BB60     		str	r3, [r7, #8]
2387:Drivers/STM32F4xx_HAL_Driver/Src/stm32f4xx_hal_i2c.c ****       /* RXNE set and BTF reset -----------------------------------------------*/
2388:Drivers/STM32F4xx_HAL_Driver/Src/stm32f4xx_hal_i2c.c ****       if((tmp1 == SET) && (tmp2 == SET) && (tmp3 == RESET))
 5187              		.loc 1 2388 0
 5188 0118 7B69     		ldr	r3, [r7, #20]
 5189 011a 012B     		cmp	r3, #1
 5190 011c 09D1     		bne	.L296
 5191              		.loc 1 2388 0 is_stmt 0 discriminator 1
 5192 011e 3B69     		ldr	r3, [r7, #16]
 5193 0120 012B     		cmp	r3, #1
 5194 0122 06D1     		bne	.L296
 5195 0124 FB68     		ldr	r3, [r7, #12]
 5196 0126 002B     		cmp	r3, #0
 5197 0128 03D1     		bne	.L296
2389:Drivers/STM32F4xx_HAL_Driver/Src/stm32f4xx_hal_i2c.c ****       {
2390:Drivers/STM32F4xx_HAL_Driver/Src/stm32f4xx_hal_i2c.c ****         I2C_MasterReceive_RXNE(hi2c);
 5198              		.loc 1 2390 0 is_stmt 1
 5199 012a 7868     		ldr	r0, [r7, #4]
 5200 012c FFF7FEFF 		bl	I2C_MasterReceive_RXNE
 5201 0130 D3E0     		b	.L290
 5202              	.L296:
2391:Drivers/STM32F4xx_HAL_Driver/Src/stm32f4xx_hal_i2c.c ****       }
2392:Drivers/STM32F4xx_HAL_Driver/Src/stm32f4xx_hal_i2c.c ****       /* BTF set -------------------------------------------------------------*/
2393:Drivers/STM32F4xx_HAL_Driver/Src/stm32f4xx_hal_i2c.c ****       else if((tmp3 == SET) && (tmp4 == SET))
 5203              		.loc 1 2393 0
 5204 0132 FB68     		ldr	r3, [r7, #12]
 5205 0134 012B     		cmp	r3, #1
 5206 0136 40F0D080 		bne	.L290
 5207              		.loc 1 2393 0 is_stmt 0 discriminator 1
 5208 013a BB68     		ldr	r3, [r7, #8]
 5209 013c 012B     		cmp	r3, #1
 5210 013e 40F0CC80 		bne	.L290
2394:Drivers/STM32F4xx_HAL_Driver/Src/stm32f4xx_hal_i2c.c ****       {
2395:Drivers/STM32F4xx_HAL_Driver/Src/stm32f4xx_hal_i2c.c ****         I2C_MasterReceive_BTF(hi2c);
 5211              		.loc 1 2395 0 is_stmt 1
 5212 0142 7868     		ldr	r0, [r7, #4]
 5213 0144 FFF7FEFF 		bl	I2C_MasterReceive_BTF
 5214 0148 C7E0     		b	.L290
 5215              	.L291:
2396:Drivers/STM32F4xx_HAL_Driver/Src/stm32f4xx_hal_i2c.c ****       }
2397:Drivers/STM32F4xx_HAL_Driver/Src/stm32f4xx_hal_i2c.c ****     }
2398:Drivers/STM32F4xx_HAL_Driver/Src/stm32f4xx_hal_i2c.c ****   }
2399:Drivers/STM32F4xx_HAL_Driver/Src/stm32f4xx_hal_i2c.c ****   /* Slave mode selected */
2400:Drivers/STM32F4xx_HAL_Driver/Src/stm32f4xx_hal_i2c.c ****   else
2401:Drivers/STM32F4xx_HAL_Driver/Src/stm32f4xx_hal_i2c.c ****   {
2402:Drivers/STM32F4xx_HAL_Driver/Src/stm32f4xx_hal_i2c.c ****     tmp1 = __HAL_I2C_GET_FLAG(hi2c, I2C_FLAG_ADDR);
 5216              		.loc 1 2402 0
 5217 014a 7B68     		ldr	r3, [r7, #4]
ARM GAS  /tmp/cc5bMm9J.s 			page 134


 5218 014c 1B68     		ldr	r3, [r3]
 5219 014e 5B69     		ldr	r3, [r3, #20]
 5220 0150 03F00203 		and	r3, r3, #2
 5221 0154 002B     		cmp	r3, #0
 5222 0156 0CBF     		ite	eq
 5223 0158 0023     		moveq	r3, #0
 5224 015a 0123     		movne	r3, #1
 5225 015c DBB2     		uxtb	r3, r3
 5226 015e 7B61     		str	r3, [r7, #20]
2403:Drivers/STM32F4xx_HAL_Driver/Src/stm32f4xx_hal_i2c.c ****     tmp2 = __HAL_I2C_GET_IT_SOURCE(hi2c, (I2C_IT_EVT));
 5227              		.loc 1 2403 0
 5228 0160 7B68     		ldr	r3, [r7, #4]
 5229 0162 1B68     		ldr	r3, [r3]
 5230 0164 5B68     		ldr	r3, [r3, #4]
 5231 0166 03F40073 		and	r3, r3, #512
 5232 016a 002B     		cmp	r3, #0
 5233 016c 0CBF     		ite	eq
 5234 016e 0023     		moveq	r3, #0
 5235 0170 0123     		movne	r3, #1
 5236 0172 DBB2     		uxtb	r3, r3
 5237 0174 3B61     		str	r3, [r7, #16]
2404:Drivers/STM32F4xx_HAL_Driver/Src/stm32f4xx_hal_i2c.c ****     tmp3 = __HAL_I2C_GET_FLAG(hi2c, I2C_FLAG_STOPF);
 5238              		.loc 1 2404 0
 5239 0176 7B68     		ldr	r3, [r7, #4]
 5240 0178 1B68     		ldr	r3, [r3]
 5241 017a 5B69     		ldr	r3, [r3, #20]
 5242 017c 03F01003 		and	r3, r3, #16
 5243 0180 002B     		cmp	r3, #0
 5244 0182 0CBF     		ite	eq
 5245 0184 0023     		moveq	r3, #0
 5246 0186 0123     		movne	r3, #1
 5247 0188 DBB2     		uxtb	r3, r3
 5248 018a FB60     		str	r3, [r7, #12]
2405:Drivers/STM32F4xx_HAL_Driver/Src/stm32f4xx_hal_i2c.c ****     tmp4 = __HAL_I2C_GET_FLAG(hi2c, I2C_FLAG_TRA);
 5249              		.loc 1 2405 0
 5250 018c 7B68     		ldr	r3, [r7, #4]
 5251 018e 1B68     		ldr	r3, [r3]
 5252 0190 9B69     		ldr	r3, [r3, #24]
 5253 0192 03F00403 		and	r3, r3, #4
 5254 0196 002B     		cmp	r3, #0
 5255 0198 0CBF     		ite	eq
 5256 019a 0023     		moveq	r3, #0
 5257 019c 0123     		movne	r3, #1
 5258 019e DBB2     		uxtb	r3, r3
 5259 01a0 BB60     		str	r3, [r7, #8]
2406:Drivers/STM32F4xx_HAL_Driver/Src/stm32f4xx_hal_i2c.c ****     /* ADDR set --------------------------------------------------------------*/
2407:Drivers/STM32F4xx_HAL_Driver/Src/stm32f4xx_hal_i2c.c ****     if((tmp1 == SET) && (tmp2 == SET))
 5260              		.loc 1 2407 0
 5261 01a2 7B69     		ldr	r3, [r7, #20]
 5262 01a4 012B     		cmp	r3, #1
 5263 01a6 06D1     		bne	.L298
 5264              		.loc 1 2407 0 is_stmt 0 discriminator 1
 5265 01a8 3B69     		ldr	r3, [r7, #16]
 5266 01aa 012B     		cmp	r3, #1
 5267 01ac 03D1     		bne	.L298
2408:Drivers/STM32F4xx_HAL_Driver/Src/stm32f4xx_hal_i2c.c ****     {
2409:Drivers/STM32F4xx_HAL_Driver/Src/stm32f4xx_hal_i2c.c ****       I2C_Slave_ADDR(hi2c);
ARM GAS  /tmp/cc5bMm9J.s 			page 135


 5268              		.loc 1 2409 0 is_stmt 1
 5269 01ae 7868     		ldr	r0, [r7, #4]
 5270 01b0 FFF7FEFF 		bl	I2C_Slave_ADDR
 5271 01b4 91E0     		b	.L290
 5272              	.L298:
2410:Drivers/STM32F4xx_HAL_Driver/Src/stm32f4xx_hal_i2c.c ****     }
2411:Drivers/STM32F4xx_HAL_Driver/Src/stm32f4xx_hal_i2c.c ****     /* STOPF set --------------------------------------------------------------*/
2412:Drivers/STM32F4xx_HAL_Driver/Src/stm32f4xx_hal_i2c.c ****     else if((tmp3 == SET) && (tmp2 == SET))
 5273              		.loc 1 2412 0
 5274 01b6 FB68     		ldr	r3, [r7, #12]
 5275 01b8 012B     		cmp	r3, #1
 5276 01ba 06D1     		bne	.L299
 5277              		.loc 1 2412 0 is_stmt 0 discriminator 1
 5278 01bc 3B69     		ldr	r3, [r7, #16]
 5279 01be 012B     		cmp	r3, #1
 5280 01c0 03D1     		bne	.L299
2413:Drivers/STM32F4xx_HAL_Driver/Src/stm32f4xx_hal_i2c.c ****     {
2414:Drivers/STM32F4xx_HAL_Driver/Src/stm32f4xx_hal_i2c.c ****       I2C_Slave_STOPF(hi2c);
 5281              		.loc 1 2414 0 is_stmt 1
 5282 01c2 7868     		ldr	r0, [r7, #4]
 5283 01c4 FFF7FEFF 		bl	I2C_Slave_STOPF
 5284 01c8 87E0     		b	.L290
 5285              	.L299:
2415:Drivers/STM32F4xx_HAL_Driver/Src/stm32f4xx_hal_i2c.c ****     }
2416:Drivers/STM32F4xx_HAL_Driver/Src/stm32f4xx_hal_i2c.c ****     /* I2C in mode Transmitter -----------------------------------------------*/
2417:Drivers/STM32F4xx_HAL_Driver/Src/stm32f4xx_hal_i2c.c ****     else if(tmp4 == SET)
 5286              		.loc 1 2417 0
 5287 01ca BB68     		ldr	r3, [r7, #8]
 5288 01cc 012B     		cmp	r3, #1
 5289 01ce 42D1     		bne	.L300
2418:Drivers/STM32F4xx_HAL_Driver/Src/stm32f4xx_hal_i2c.c ****     {
2419:Drivers/STM32F4xx_HAL_Driver/Src/stm32f4xx_hal_i2c.c ****       tmp1 = __HAL_I2C_GET_FLAG(hi2c, I2C_FLAG_TXE);
 5290              		.loc 1 2419 0
 5291 01d0 7B68     		ldr	r3, [r7, #4]
 5292 01d2 1B68     		ldr	r3, [r3]
 5293 01d4 5B69     		ldr	r3, [r3, #20]
 5294 01d6 03F08003 		and	r3, r3, #128
 5295 01da 002B     		cmp	r3, #0
 5296 01dc 0CBF     		ite	eq
 5297 01de 0023     		moveq	r3, #0
 5298 01e0 0123     		movne	r3, #1
 5299 01e2 DBB2     		uxtb	r3, r3
 5300 01e4 7B61     		str	r3, [r7, #20]
2420:Drivers/STM32F4xx_HAL_Driver/Src/stm32f4xx_hal_i2c.c ****       tmp2 = __HAL_I2C_GET_IT_SOURCE(hi2c, I2C_IT_BUF);
 5301              		.loc 1 2420 0
 5302 01e6 7B68     		ldr	r3, [r7, #4]
 5303 01e8 1B68     		ldr	r3, [r3]
 5304 01ea 5B68     		ldr	r3, [r3, #4]
 5305 01ec 03F48063 		and	r3, r3, #1024
 5306 01f0 002B     		cmp	r3, #0
 5307 01f2 0CBF     		ite	eq
 5308 01f4 0023     		moveq	r3, #0
 5309 01f6 0123     		movne	r3, #1
 5310 01f8 DBB2     		uxtb	r3, r3
 5311 01fa 3B61     		str	r3, [r7, #16]
2421:Drivers/STM32F4xx_HAL_Driver/Src/stm32f4xx_hal_i2c.c ****       tmp3 = __HAL_I2C_GET_FLAG(hi2c, I2C_FLAG_BTF);
 5312              		.loc 1 2421 0
ARM GAS  /tmp/cc5bMm9J.s 			page 136


 5313 01fc 7B68     		ldr	r3, [r7, #4]
 5314 01fe 1B68     		ldr	r3, [r3]
 5315 0200 5B69     		ldr	r3, [r3, #20]
 5316 0202 03F00403 		and	r3, r3, #4
 5317 0206 002B     		cmp	r3, #0
 5318 0208 0CBF     		ite	eq
 5319 020a 0023     		moveq	r3, #0
 5320 020c 0123     		movne	r3, #1
 5321 020e DBB2     		uxtb	r3, r3
 5322 0210 FB60     		str	r3, [r7, #12]
2422:Drivers/STM32F4xx_HAL_Driver/Src/stm32f4xx_hal_i2c.c ****       tmp4 = __HAL_I2C_GET_IT_SOURCE(hi2c, I2C_IT_EVT);
 5323              		.loc 1 2422 0
 5324 0212 7B68     		ldr	r3, [r7, #4]
 5325 0214 1B68     		ldr	r3, [r3]
 5326 0216 5B68     		ldr	r3, [r3, #4]
 5327 0218 03F40073 		and	r3, r3, #512
 5328 021c 002B     		cmp	r3, #0
 5329 021e 0CBF     		ite	eq
 5330 0220 0023     		moveq	r3, #0
 5331 0222 0123     		movne	r3, #1
 5332 0224 DBB2     		uxtb	r3, r3
 5333 0226 BB60     		str	r3, [r7, #8]
2423:Drivers/STM32F4xx_HAL_Driver/Src/stm32f4xx_hal_i2c.c ****       /* TXE set and BTF reset -----------------------------------------------*/
2424:Drivers/STM32F4xx_HAL_Driver/Src/stm32f4xx_hal_i2c.c ****       if((tmp1 == SET) && (tmp2 == SET) && (tmp3 == RESET))
 5334              		.loc 1 2424 0
 5335 0228 7B69     		ldr	r3, [r7, #20]
 5336 022a 012B     		cmp	r3, #1
 5337 022c 09D1     		bne	.L301
 5338              		.loc 1 2424 0 is_stmt 0 discriminator 1
 5339 022e 3B69     		ldr	r3, [r7, #16]
 5340 0230 012B     		cmp	r3, #1
 5341 0232 06D1     		bne	.L301
 5342 0234 FB68     		ldr	r3, [r7, #12]
 5343 0236 002B     		cmp	r3, #0
 5344 0238 03D1     		bne	.L301
2425:Drivers/STM32F4xx_HAL_Driver/Src/stm32f4xx_hal_i2c.c ****       {
2426:Drivers/STM32F4xx_HAL_Driver/Src/stm32f4xx_hal_i2c.c ****         I2C_SlaveTransmit_TXE(hi2c);
 5345              		.loc 1 2426 0 is_stmt 1
 5346 023a 7868     		ldr	r0, [r7, #4]
 5347 023c FFF7FEFF 		bl	I2C_SlaveTransmit_TXE
 5348 0240 4BE0     		b	.L290
 5349              	.L301:
2427:Drivers/STM32F4xx_HAL_Driver/Src/stm32f4xx_hal_i2c.c ****       }
2428:Drivers/STM32F4xx_HAL_Driver/Src/stm32f4xx_hal_i2c.c ****       /* BTF set -------------------------------------------------------------*/
2429:Drivers/STM32F4xx_HAL_Driver/Src/stm32f4xx_hal_i2c.c ****       else if((tmp3 == SET) && (tmp4 == SET))
 5350              		.loc 1 2429 0
 5351 0242 FB68     		ldr	r3, [r7, #12]
 5352 0244 012B     		cmp	r3, #1
 5353 0246 48D1     		bne	.L290
 5354              		.loc 1 2429 0 is_stmt 0 discriminator 1
 5355 0248 BB68     		ldr	r3, [r7, #8]
 5356 024a 012B     		cmp	r3, #1
 5357 024c 45D1     		bne	.L290
2430:Drivers/STM32F4xx_HAL_Driver/Src/stm32f4xx_hal_i2c.c ****       {
2431:Drivers/STM32F4xx_HAL_Driver/Src/stm32f4xx_hal_i2c.c ****         I2C_SlaveTransmit_BTF(hi2c);
 5358              		.loc 1 2431 0 is_stmt 1
 5359 024e 7868     		ldr	r0, [r7, #4]
ARM GAS  /tmp/cc5bMm9J.s 			page 137


 5360 0250 FFF7FEFF 		bl	I2C_SlaveTransmit_BTF
 5361 0254 41E0     		b	.L290
 5362              	.L300:
2432:Drivers/STM32F4xx_HAL_Driver/Src/stm32f4xx_hal_i2c.c ****       }
2433:Drivers/STM32F4xx_HAL_Driver/Src/stm32f4xx_hal_i2c.c ****     }
2434:Drivers/STM32F4xx_HAL_Driver/Src/stm32f4xx_hal_i2c.c ****     /* I2C in mode Receiver --------------------------------------------------*/
2435:Drivers/STM32F4xx_HAL_Driver/Src/stm32f4xx_hal_i2c.c ****     else
2436:Drivers/STM32F4xx_HAL_Driver/Src/stm32f4xx_hal_i2c.c ****     {
2437:Drivers/STM32F4xx_HAL_Driver/Src/stm32f4xx_hal_i2c.c ****       tmp1 = __HAL_I2C_GET_FLAG(hi2c, I2C_FLAG_RXNE);
 5363              		.loc 1 2437 0
 5364 0256 7B68     		ldr	r3, [r7, #4]
 5365 0258 1B68     		ldr	r3, [r3]
 5366 025a 5B69     		ldr	r3, [r3, #20]
 5367 025c 03F04003 		and	r3, r3, #64
 5368 0260 002B     		cmp	r3, #0
 5369 0262 0CBF     		ite	eq
 5370 0264 0023     		moveq	r3, #0
 5371 0266 0123     		movne	r3, #1
 5372 0268 DBB2     		uxtb	r3, r3
 5373 026a 7B61     		str	r3, [r7, #20]
2438:Drivers/STM32F4xx_HAL_Driver/Src/stm32f4xx_hal_i2c.c ****       tmp2 = __HAL_I2C_GET_IT_SOURCE(hi2c, I2C_IT_BUF);
 5374              		.loc 1 2438 0
 5375 026c 7B68     		ldr	r3, [r7, #4]
 5376 026e 1B68     		ldr	r3, [r3]
 5377 0270 5B68     		ldr	r3, [r3, #4]
 5378 0272 03F48063 		and	r3, r3, #1024
 5379 0276 002B     		cmp	r3, #0
 5380 0278 0CBF     		ite	eq
 5381 027a 0023     		moveq	r3, #0
 5382 027c 0123     		movne	r3, #1
 5383 027e DBB2     		uxtb	r3, r3
 5384 0280 3B61     		str	r3, [r7, #16]
2439:Drivers/STM32F4xx_HAL_Driver/Src/stm32f4xx_hal_i2c.c ****       tmp3 = __HAL_I2C_GET_FLAG(hi2c, I2C_FLAG_BTF);
 5385              		.loc 1 2439 0
 5386 0282 7B68     		ldr	r3, [r7, #4]
 5387 0284 1B68     		ldr	r3, [r3]
 5388 0286 5B69     		ldr	r3, [r3, #20]
 5389 0288 03F00403 		and	r3, r3, #4
 5390 028c 002B     		cmp	r3, #0
 5391 028e 0CBF     		ite	eq
 5392 0290 0023     		moveq	r3, #0
 5393 0292 0123     		movne	r3, #1
 5394 0294 DBB2     		uxtb	r3, r3
 5395 0296 FB60     		str	r3, [r7, #12]
2440:Drivers/STM32F4xx_HAL_Driver/Src/stm32f4xx_hal_i2c.c ****       tmp4 = __HAL_I2C_GET_IT_SOURCE(hi2c, I2C_IT_EVT);
 5396              		.loc 1 2440 0
 5397 0298 7B68     		ldr	r3, [r7, #4]
 5398 029a 1B68     		ldr	r3, [r3]
 5399 029c 5B68     		ldr	r3, [r3, #4]
 5400 029e 03F40073 		and	r3, r3, #512
 5401 02a2 002B     		cmp	r3, #0
 5402 02a4 0CBF     		ite	eq
 5403 02a6 0023     		moveq	r3, #0
 5404 02a8 0123     		movne	r3, #1
 5405 02aa DBB2     		uxtb	r3, r3
 5406 02ac BB60     		str	r3, [r7, #8]
2441:Drivers/STM32F4xx_HAL_Driver/Src/stm32f4xx_hal_i2c.c ****       /* RXNE set and BTF reset ----------------------------------------------*/
ARM GAS  /tmp/cc5bMm9J.s 			page 138


2442:Drivers/STM32F4xx_HAL_Driver/Src/stm32f4xx_hal_i2c.c ****       if((tmp1 == SET) && (tmp2 == SET) && (tmp3 == RESET))
 5407              		.loc 1 2442 0
 5408 02ae 7B69     		ldr	r3, [r7, #20]
 5409 02b0 012B     		cmp	r3, #1
 5410 02b2 09D1     		bne	.L303
 5411              		.loc 1 2442 0 is_stmt 0 discriminator 1
 5412 02b4 3B69     		ldr	r3, [r7, #16]
 5413 02b6 012B     		cmp	r3, #1
 5414 02b8 06D1     		bne	.L303
 5415 02ba FB68     		ldr	r3, [r7, #12]
 5416 02bc 002B     		cmp	r3, #0
 5417 02be 03D1     		bne	.L303
2443:Drivers/STM32F4xx_HAL_Driver/Src/stm32f4xx_hal_i2c.c ****       {
2444:Drivers/STM32F4xx_HAL_Driver/Src/stm32f4xx_hal_i2c.c ****         I2C_SlaveReceive_RXNE(hi2c);
 5418              		.loc 1 2444 0 is_stmt 1
 5419 02c0 7868     		ldr	r0, [r7, #4]
 5420 02c2 FFF7FEFF 		bl	I2C_SlaveReceive_RXNE
 5421 02c6 08E0     		b	.L290
 5422              	.L303:
2445:Drivers/STM32F4xx_HAL_Driver/Src/stm32f4xx_hal_i2c.c ****       }
2446:Drivers/STM32F4xx_HAL_Driver/Src/stm32f4xx_hal_i2c.c ****       /* BTF set -------------------------------------------------------------*/
2447:Drivers/STM32F4xx_HAL_Driver/Src/stm32f4xx_hal_i2c.c ****       else if((tmp3 == SET) && (tmp4 == SET))
 5423              		.loc 1 2447 0
 5424 02c8 FB68     		ldr	r3, [r7, #12]
 5425 02ca 012B     		cmp	r3, #1
 5426 02cc 05D1     		bne	.L290
 5427              		.loc 1 2447 0 is_stmt 0 discriminator 1
 5428 02ce BB68     		ldr	r3, [r7, #8]
 5429 02d0 012B     		cmp	r3, #1
 5430 02d2 02D1     		bne	.L290
2448:Drivers/STM32F4xx_HAL_Driver/Src/stm32f4xx_hal_i2c.c ****       {
2449:Drivers/STM32F4xx_HAL_Driver/Src/stm32f4xx_hal_i2c.c ****         I2C_SlaveReceive_BTF(hi2c);
 5431              		.loc 1 2449 0 is_stmt 1
 5432 02d4 7868     		ldr	r0, [r7, #4]
 5433 02d6 FFF7FEFF 		bl	I2C_SlaveReceive_BTF
 5434              	.L290:
2450:Drivers/STM32F4xx_HAL_Driver/Src/stm32f4xx_hal_i2c.c ****       }
2451:Drivers/STM32F4xx_HAL_Driver/Src/stm32f4xx_hal_i2c.c ****     }
2452:Drivers/STM32F4xx_HAL_Driver/Src/stm32f4xx_hal_i2c.c ****   }
2453:Drivers/STM32F4xx_HAL_Driver/Src/stm32f4xx_hal_i2c.c **** }
 5435              		.loc 1 2453 0
 5436 02da 1837     		adds	r7, r7, #24
 5437 02dc BD46     		mov	sp, r7
 5438              		@ sp needed
 5439 02de 80BD     		pop	{r7, pc}
 5440              		.cfi_endproc
 5441              	.LFE148:
 5443              		.section	.text.HAL_I2C_ER_IRQHandler,"ax",%progbits
 5444              		.align	2
 5445              		.global	HAL_I2C_ER_IRQHandler
 5446              		.thumb
 5447              		.thumb_func
 5449              	HAL_I2C_ER_IRQHandler:
 5450              	.LFB149:
2454:Drivers/STM32F4xx_HAL_Driver/Src/stm32f4xx_hal_i2c.c **** 
2455:Drivers/STM32F4xx_HAL_Driver/Src/stm32f4xx_hal_i2c.c **** /**
2456:Drivers/STM32F4xx_HAL_Driver/Src/stm32f4xx_hal_i2c.c ****   * @brief  This function handles I2C error interrupt request.
ARM GAS  /tmp/cc5bMm9J.s 			page 139


2457:Drivers/STM32F4xx_HAL_Driver/Src/stm32f4xx_hal_i2c.c ****   * @param  hi2c: pointer to a I2C_HandleTypeDef structure that contains
2458:Drivers/STM32F4xx_HAL_Driver/Src/stm32f4xx_hal_i2c.c ****   *         the configuration information for I2C module
2459:Drivers/STM32F4xx_HAL_Driver/Src/stm32f4xx_hal_i2c.c ****   * @retval HAL status
2460:Drivers/STM32F4xx_HAL_Driver/Src/stm32f4xx_hal_i2c.c ****   */
2461:Drivers/STM32F4xx_HAL_Driver/Src/stm32f4xx_hal_i2c.c **** void HAL_I2C_ER_IRQHandler(I2C_HandleTypeDef *hi2c)
2462:Drivers/STM32F4xx_HAL_Driver/Src/stm32f4xx_hal_i2c.c **** {
 5451              		.loc 1 2462 0
 5452              		.cfi_startproc
 5453              		@ args = 0, pretend = 0, frame = 24
 5454              		@ frame_needed = 1, uses_anonymous_args = 0
 5455 0000 80B5     		push	{r7, lr}
 5456              	.LCFI72:
 5457              		.cfi_def_cfa_offset 8
 5458              		.cfi_offset 7, -8
 5459              		.cfi_offset 14, -4
 5460 0002 86B0     		sub	sp, sp, #24
 5461              	.LCFI73:
 5462              		.cfi_def_cfa_offset 32
 5463 0004 00AF     		add	r7, sp, #0
 5464              	.LCFI74:
 5465              		.cfi_def_cfa_register 7
 5466 0006 7860     		str	r0, [r7, #4]
2463:Drivers/STM32F4xx_HAL_Driver/Src/stm32f4xx_hal_i2c.c ****   uint32_t tmp1 = 0, tmp2 = 0, tmp3 = 0;
 5467              		.loc 1 2463 0
 5468 0008 0023     		movs	r3, #0
 5469 000a 7B61     		str	r3, [r7, #20]
 5470 000c 0023     		movs	r3, #0
 5471 000e 3B61     		str	r3, [r7, #16]
 5472 0010 0023     		movs	r3, #0
 5473 0012 FB60     		str	r3, [r7, #12]
2464:Drivers/STM32F4xx_HAL_Driver/Src/stm32f4xx_hal_i2c.c **** 
2465:Drivers/STM32F4xx_HAL_Driver/Src/stm32f4xx_hal_i2c.c ****   tmp1 = __HAL_I2C_GET_FLAG(hi2c, I2C_FLAG_BERR);
 5474              		.loc 1 2465 0
 5475 0014 7B68     		ldr	r3, [r7, #4]
 5476 0016 1B68     		ldr	r3, [r3]
 5477 0018 5B69     		ldr	r3, [r3, #20]
 5478 001a 03F48073 		and	r3, r3, #256
 5479 001e 002B     		cmp	r3, #0
 5480 0020 0CBF     		ite	eq
 5481 0022 0023     		moveq	r3, #0
 5482 0024 0123     		movne	r3, #1
 5483 0026 DBB2     		uxtb	r3, r3
 5484 0028 7B61     		str	r3, [r7, #20]
2466:Drivers/STM32F4xx_HAL_Driver/Src/stm32f4xx_hal_i2c.c ****   tmp2 = __HAL_I2C_GET_IT_SOURCE(hi2c, I2C_IT_ERR);
 5485              		.loc 1 2466 0
 5486 002a 7B68     		ldr	r3, [r7, #4]
 5487 002c 1B68     		ldr	r3, [r3]
 5488 002e 5B68     		ldr	r3, [r3, #4]
 5489 0030 03F48073 		and	r3, r3, #256
 5490 0034 002B     		cmp	r3, #0
 5491 0036 0CBF     		ite	eq
 5492 0038 0023     		moveq	r3, #0
 5493 003a 0123     		movne	r3, #1
 5494 003c DBB2     		uxtb	r3, r3
 5495 003e 3B61     		str	r3, [r7, #16]
2467:Drivers/STM32F4xx_HAL_Driver/Src/stm32f4xx_hal_i2c.c ****   /* I2C Bus error interrupt occurred ----------------------------------------*/
2468:Drivers/STM32F4xx_HAL_Driver/Src/stm32f4xx_hal_i2c.c ****   if((tmp1 == SET) && (tmp2 == SET))
ARM GAS  /tmp/cc5bMm9J.s 			page 140


 5496              		.loc 1 2468 0
 5497 0040 7B69     		ldr	r3, [r7, #20]
 5498 0042 012B     		cmp	r3, #1
 5499 0044 0DD1     		bne	.L305
 5500              		.loc 1 2468 0 is_stmt 0 discriminator 1
 5501 0046 3B69     		ldr	r3, [r7, #16]
 5502 0048 012B     		cmp	r3, #1
 5503 004a 0AD1     		bne	.L305
2469:Drivers/STM32F4xx_HAL_Driver/Src/stm32f4xx_hal_i2c.c ****   {
2470:Drivers/STM32F4xx_HAL_Driver/Src/stm32f4xx_hal_i2c.c ****     hi2c->ErrorCode |= HAL_I2C_ERROR_BERR;
 5504              		.loc 1 2470 0 is_stmt 1
 5505 004c 7B68     		ldr	r3, [r7, #4]
 5506 004e 9B6B     		ldr	r3, [r3, #56]
 5507 0050 43F00102 		orr	r2, r3, #1
 5508 0054 7B68     		ldr	r3, [r7, #4]
 5509 0056 9A63     		str	r2, [r3, #56]
2471:Drivers/STM32F4xx_HAL_Driver/Src/stm32f4xx_hal_i2c.c **** 
2472:Drivers/STM32F4xx_HAL_Driver/Src/stm32f4xx_hal_i2c.c ****     /* Clear BERR flag */
2473:Drivers/STM32F4xx_HAL_Driver/Src/stm32f4xx_hal_i2c.c ****     __HAL_I2C_CLEAR_FLAG(hi2c, I2C_FLAG_BERR);
 5510              		.loc 1 2473 0
 5511 0058 7B68     		ldr	r3, [r7, #4]
 5512 005a 1B68     		ldr	r3, [r3]
 5513 005c 6FF48072 		mvn	r2, #256
 5514 0060 5A61     		str	r2, [r3, #20]
 5515              	.L305:
2474:Drivers/STM32F4xx_HAL_Driver/Src/stm32f4xx_hal_i2c.c ****   }
2475:Drivers/STM32F4xx_HAL_Driver/Src/stm32f4xx_hal_i2c.c **** 
2476:Drivers/STM32F4xx_HAL_Driver/Src/stm32f4xx_hal_i2c.c ****   tmp1 = __HAL_I2C_GET_FLAG(hi2c, I2C_FLAG_ARLO);
 5516              		.loc 1 2476 0
 5517 0062 7B68     		ldr	r3, [r7, #4]
 5518 0064 1B68     		ldr	r3, [r3]
 5519 0066 5B69     		ldr	r3, [r3, #20]
 5520 0068 03F40073 		and	r3, r3, #512
 5521 006c 002B     		cmp	r3, #0
 5522 006e 0CBF     		ite	eq
 5523 0070 0023     		moveq	r3, #0
 5524 0072 0123     		movne	r3, #1
 5525 0074 DBB2     		uxtb	r3, r3
 5526 0076 7B61     		str	r3, [r7, #20]
2477:Drivers/STM32F4xx_HAL_Driver/Src/stm32f4xx_hal_i2c.c ****   tmp2 = __HAL_I2C_GET_IT_SOURCE(hi2c, I2C_IT_ERR);
 5527              		.loc 1 2477 0
 5528 0078 7B68     		ldr	r3, [r7, #4]
 5529 007a 1B68     		ldr	r3, [r3]
 5530 007c 5B68     		ldr	r3, [r3, #4]
 5531 007e 03F48073 		and	r3, r3, #256
 5532 0082 002B     		cmp	r3, #0
 5533 0084 0CBF     		ite	eq
 5534 0086 0023     		moveq	r3, #0
 5535 0088 0123     		movne	r3, #1
 5536 008a DBB2     		uxtb	r3, r3
 5537 008c 3B61     		str	r3, [r7, #16]
2478:Drivers/STM32F4xx_HAL_Driver/Src/stm32f4xx_hal_i2c.c ****   /* I2C Arbitration Loss error interrupt occurred ---------------------------*/
2479:Drivers/STM32F4xx_HAL_Driver/Src/stm32f4xx_hal_i2c.c ****   if((tmp1 == SET) && (tmp2 == SET))
 5538              		.loc 1 2479 0
 5539 008e 7B69     		ldr	r3, [r7, #20]
 5540 0090 012B     		cmp	r3, #1
 5541 0092 0DD1     		bne	.L306
ARM GAS  /tmp/cc5bMm9J.s 			page 141


 5542              		.loc 1 2479 0 is_stmt 0 discriminator 1
 5543 0094 3B69     		ldr	r3, [r7, #16]
 5544 0096 012B     		cmp	r3, #1
 5545 0098 0AD1     		bne	.L306
2480:Drivers/STM32F4xx_HAL_Driver/Src/stm32f4xx_hal_i2c.c ****   {
2481:Drivers/STM32F4xx_HAL_Driver/Src/stm32f4xx_hal_i2c.c ****     hi2c->ErrorCode |= HAL_I2C_ERROR_ARLO;
 5546              		.loc 1 2481 0 is_stmt 1
 5547 009a 7B68     		ldr	r3, [r7, #4]
 5548 009c 9B6B     		ldr	r3, [r3, #56]
 5549 009e 43F00202 		orr	r2, r3, #2
 5550 00a2 7B68     		ldr	r3, [r7, #4]
 5551 00a4 9A63     		str	r2, [r3, #56]
2482:Drivers/STM32F4xx_HAL_Driver/Src/stm32f4xx_hal_i2c.c **** 
2483:Drivers/STM32F4xx_HAL_Driver/Src/stm32f4xx_hal_i2c.c ****     /* Clear ARLO flag */
2484:Drivers/STM32F4xx_HAL_Driver/Src/stm32f4xx_hal_i2c.c ****     __HAL_I2C_CLEAR_FLAG(hi2c, I2C_FLAG_ARLO);
 5552              		.loc 1 2484 0
 5553 00a6 7B68     		ldr	r3, [r7, #4]
 5554 00a8 1B68     		ldr	r3, [r3]
 5555 00aa 6FF40072 		mvn	r2, #512
 5556 00ae 5A61     		str	r2, [r3, #20]
 5557              	.L306:
2485:Drivers/STM32F4xx_HAL_Driver/Src/stm32f4xx_hal_i2c.c ****   }
2486:Drivers/STM32F4xx_HAL_Driver/Src/stm32f4xx_hal_i2c.c **** 
2487:Drivers/STM32F4xx_HAL_Driver/Src/stm32f4xx_hal_i2c.c ****   tmp1 = __HAL_I2C_GET_FLAG(hi2c, I2C_FLAG_AF);
 5558              		.loc 1 2487 0
 5559 00b0 7B68     		ldr	r3, [r7, #4]
 5560 00b2 1B68     		ldr	r3, [r3]
 5561 00b4 5B69     		ldr	r3, [r3, #20]
 5562 00b6 03F48063 		and	r3, r3, #1024
 5563 00ba 002B     		cmp	r3, #0
 5564 00bc 0CBF     		ite	eq
 5565 00be 0023     		moveq	r3, #0
 5566 00c0 0123     		movne	r3, #1
 5567 00c2 DBB2     		uxtb	r3, r3
 5568 00c4 7B61     		str	r3, [r7, #20]
2488:Drivers/STM32F4xx_HAL_Driver/Src/stm32f4xx_hal_i2c.c ****   tmp2 = __HAL_I2C_GET_IT_SOURCE(hi2c, I2C_IT_ERR);
 5569              		.loc 1 2488 0
 5570 00c6 7B68     		ldr	r3, [r7, #4]
 5571 00c8 1B68     		ldr	r3, [r3]
 5572 00ca 5B68     		ldr	r3, [r3, #4]
 5573 00cc 03F48073 		and	r3, r3, #256
 5574 00d0 002B     		cmp	r3, #0
 5575 00d2 0CBF     		ite	eq
 5576 00d4 0023     		moveq	r3, #0
 5577 00d6 0123     		movne	r3, #1
 5578 00d8 DBB2     		uxtb	r3, r3
 5579 00da 3B61     		str	r3, [r7, #16]
2489:Drivers/STM32F4xx_HAL_Driver/Src/stm32f4xx_hal_i2c.c ****   /* I2C Acknowledge failure error interrupt occurred ------------------------*/
2490:Drivers/STM32F4xx_HAL_Driver/Src/stm32f4xx_hal_i2c.c ****   if((tmp1 == SET) && (tmp2 == SET))
 5580              		.loc 1 2490 0
 5581 00dc 7B69     		ldr	r3, [r7, #20]
 5582 00de 012B     		cmp	r3, #1
 5583 00e0 2ED1     		bne	.L307
 5584              		.loc 1 2490 0 is_stmt 0 discriminator 1
 5585 00e2 3B69     		ldr	r3, [r7, #16]
 5586 00e4 012B     		cmp	r3, #1
 5587 00e6 2BD1     		bne	.L307
ARM GAS  /tmp/cc5bMm9J.s 			page 142


2491:Drivers/STM32F4xx_HAL_Driver/Src/stm32f4xx_hal_i2c.c ****   {
2492:Drivers/STM32F4xx_HAL_Driver/Src/stm32f4xx_hal_i2c.c ****     tmp1 = __HAL_I2C_GET_FLAG(hi2c, I2C_FLAG_MSL);
 5588              		.loc 1 2492 0 is_stmt 1
 5589 00e8 7B68     		ldr	r3, [r7, #4]
 5590 00ea 1B68     		ldr	r3, [r3]
 5591 00ec 9B69     		ldr	r3, [r3, #24]
 5592 00ee 03F00103 		and	r3, r3, #1
 5593 00f2 002B     		cmp	r3, #0
 5594 00f4 0CBF     		ite	eq
 5595 00f6 0023     		moveq	r3, #0
 5596 00f8 0123     		movne	r3, #1
 5597 00fa DBB2     		uxtb	r3, r3
 5598 00fc 7B61     		str	r3, [r7, #20]
2493:Drivers/STM32F4xx_HAL_Driver/Src/stm32f4xx_hal_i2c.c ****     tmp2 = hi2c->XferCount;
 5599              		.loc 1 2493 0
 5600 00fe 7B68     		ldr	r3, [r7, #4]
 5601 0100 5B8D     		ldrh	r3, [r3, #42]	@ movhi
 5602 0102 9BB2     		uxth	r3, r3
 5603 0104 3B61     		str	r3, [r7, #16]
2494:Drivers/STM32F4xx_HAL_Driver/Src/stm32f4xx_hal_i2c.c ****     tmp3 = hi2c->State;
 5604              		.loc 1 2494 0
 5605 0106 7B68     		ldr	r3, [r7, #4]
 5606 0108 93F83530 		ldrb	r3, [r3, #53]
 5607 010c DBB2     		uxtb	r3, r3
 5608 010e FB60     		str	r3, [r7, #12]
2495:Drivers/STM32F4xx_HAL_Driver/Src/stm32f4xx_hal_i2c.c ****     if((tmp1 == RESET) && (tmp2 == 0) && (tmp3 == HAL_I2C_STATE_BUSY_TX))
 5609              		.loc 1 2495 0
 5610 0110 7B69     		ldr	r3, [r7, #20]
 5611 0112 002B     		cmp	r3, #0
 5612 0114 09D1     		bne	.L308
 5613              		.loc 1 2495 0 is_stmt 0 discriminator 1
 5614 0116 3B69     		ldr	r3, [r7, #16]
 5615 0118 002B     		cmp	r3, #0
 5616 011a 06D1     		bne	.L308
 5617 011c FB68     		ldr	r3, [r7, #12]
 5618 011e 122B     		cmp	r3, #18
 5619 0120 03D1     		bne	.L308
2496:Drivers/STM32F4xx_HAL_Driver/Src/stm32f4xx_hal_i2c.c ****     {
2497:Drivers/STM32F4xx_HAL_Driver/Src/stm32f4xx_hal_i2c.c ****       I2C_Slave_AF(hi2c);
 5620              		.loc 1 2497 0 is_stmt 1
 5621 0122 7868     		ldr	r0, [r7, #4]
 5622 0124 FFF7FEFF 		bl	I2C_Slave_AF
 5623 0128 0AE0     		b	.L307
 5624              	.L308:
2498:Drivers/STM32F4xx_HAL_Driver/Src/stm32f4xx_hal_i2c.c ****     }
2499:Drivers/STM32F4xx_HAL_Driver/Src/stm32f4xx_hal_i2c.c ****     else
2500:Drivers/STM32F4xx_HAL_Driver/Src/stm32f4xx_hal_i2c.c ****     {
2501:Drivers/STM32F4xx_HAL_Driver/Src/stm32f4xx_hal_i2c.c ****       hi2c->ErrorCode |= HAL_I2C_ERROR_AF;
 5625              		.loc 1 2501 0
 5626 012a 7B68     		ldr	r3, [r7, #4]
 5627 012c 9B6B     		ldr	r3, [r3, #56]
 5628 012e 43F00402 		orr	r2, r3, #4
 5629 0132 7B68     		ldr	r3, [r7, #4]
 5630 0134 9A63     		str	r2, [r3, #56]
2502:Drivers/STM32F4xx_HAL_Driver/Src/stm32f4xx_hal_i2c.c ****       /* Clear AF flag */
2503:Drivers/STM32F4xx_HAL_Driver/Src/stm32f4xx_hal_i2c.c ****       __HAL_I2C_CLEAR_FLAG(hi2c, I2C_FLAG_AF);
 5631              		.loc 1 2503 0
ARM GAS  /tmp/cc5bMm9J.s 			page 143


 5632 0136 7B68     		ldr	r3, [r7, #4]
 5633 0138 1B68     		ldr	r3, [r3]
 5634 013a 6FF48062 		mvn	r2, #1024
 5635 013e 5A61     		str	r2, [r3, #20]
 5636              	.L307:
2504:Drivers/STM32F4xx_HAL_Driver/Src/stm32f4xx_hal_i2c.c ****     }
2505:Drivers/STM32F4xx_HAL_Driver/Src/stm32f4xx_hal_i2c.c ****   }
2506:Drivers/STM32F4xx_HAL_Driver/Src/stm32f4xx_hal_i2c.c **** 
2507:Drivers/STM32F4xx_HAL_Driver/Src/stm32f4xx_hal_i2c.c ****   tmp1 = __HAL_I2C_GET_FLAG(hi2c, I2C_FLAG_OVR);
 5637              		.loc 1 2507 0
 5638 0140 7B68     		ldr	r3, [r7, #4]
 5639 0142 1B68     		ldr	r3, [r3]
 5640 0144 5B69     		ldr	r3, [r3, #20]
 5641 0146 03F40063 		and	r3, r3, #2048
 5642 014a 002B     		cmp	r3, #0
 5643 014c 0CBF     		ite	eq
 5644 014e 0023     		moveq	r3, #0
 5645 0150 0123     		movne	r3, #1
 5646 0152 DBB2     		uxtb	r3, r3
 5647 0154 7B61     		str	r3, [r7, #20]
2508:Drivers/STM32F4xx_HAL_Driver/Src/stm32f4xx_hal_i2c.c ****   tmp2 = __HAL_I2C_GET_IT_SOURCE(hi2c, I2C_IT_ERR);
 5648              		.loc 1 2508 0
 5649 0156 7B68     		ldr	r3, [r7, #4]
 5650 0158 1B68     		ldr	r3, [r3]
 5651 015a 5B68     		ldr	r3, [r3, #4]
 5652 015c 03F48073 		and	r3, r3, #256
 5653 0160 002B     		cmp	r3, #0
 5654 0162 0CBF     		ite	eq
 5655 0164 0023     		moveq	r3, #0
 5656 0166 0123     		movne	r3, #1
 5657 0168 DBB2     		uxtb	r3, r3
 5658 016a 3B61     		str	r3, [r7, #16]
2509:Drivers/STM32F4xx_HAL_Driver/Src/stm32f4xx_hal_i2c.c ****   /* I2C Over-Run/Under-Run interrupt occurred -------------------------------*/
2510:Drivers/STM32F4xx_HAL_Driver/Src/stm32f4xx_hal_i2c.c ****   if((tmp1 == SET) && (tmp2 == SET))
 5659              		.loc 1 2510 0
 5660 016c 7B69     		ldr	r3, [r7, #20]
 5661 016e 012B     		cmp	r3, #1
 5662 0170 0DD1     		bne	.L309
 5663              		.loc 1 2510 0 is_stmt 0 discriminator 1
 5664 0172 3B69     		ldr	r3, [r7, #16]
 5665 0174 012B     		cmp	r3, #1
 5666 0176 0AD1     		bne	.L309
2511:Drivers/STM32F4xx_HAL_Driver/Src/stm32f4xx_hal_i2c.c ****   {
2512:Drivers/STM32F4xx_HAL_Driver/Src/stm32f4xx_hal_i2c.c ****     hi2c->ErrorCode |= HAL_I2C_ERROR_OVR;
 5667              		.loc 1 2512 0 is_stmt 1
 5668 0178 7B68     		ldr	r3, [r7, #4]
 5669 017a 9B6B     		ldr	r3, [r3, #56]
 5670 017c 43F00802 		orr	r2, r3, #8
 5671 0180 7B68     		ldr	r3, [r7, #4]
 5672 0182 9A63     		str	r2, [r3, #56]
2513:Drivers/STM32F4xx_HAL_Driver/Src/stm32f4xx_hal_i2c.c ****     /* Clear OVR flag */
2514:Drivers/STM32F4xx_HAL_Driver/Src/stm32f4xx_hal_i2c.c ****     __HAL_I2C_CLEAR_FLAG(hi2c, I2C_FLAG_OVR);
 5673              		.loc 1 2514 0
 5674 0184 7B68     		ldr	r3, [r7, #4]
 5675 0186 1B68     		ldr	r3, [r3]
 5676 0188 6FF40062 		mvn	r2, #2048
 5677 018c 5A61     		str	r2, [r3, #20]
ARM GAS  /tmp/cc5bMm9J.s 			page 144


 5678              	.L309:
2515:Drivers/STM32F4xx_HAL_Driver/Src/stm32f4xx_hal_i2c.c ****   }
2516:Drivers/STM32F4xx_HAL_Driver/Src/stm32f4xx_hal_i2c.c **** 
2517:Drivers/STM32F4xx_HAL_Driver/Src/stm32f4xx_hal_i2c.c ****   if(hi2c->ErrorCode != HAL_I2C_ERROR_NONE)
 5679              		.loc 1 2517 0
 5680 018e 7B68     		ldr	r3, [r7, #4]
 5681 0190 9B6B     		ldr	r3, [r3, #56]
 5682 0192 002B     		cmp	r3, #0
 5683 0194 0ED0     		beq	.L304
2518:Drivers/STM32F4xx_HAL_Driver/Src/stm32f4xx_hal_i2c.c ****   {
2519:Drivers/STM32F4xx_HAL_Driver/Src/stm32f4xx_hal_i2c.c ****     hi2c->State = HAL_I2C_STATE_READY;
 5684              		.loc 1 2519 0
 5685 0196 7B68     		ldr	r3, [r7, #4]
 5686 0198 0122     		movs	r2, #1
 5687 019a 83F83520 		strb	r2, [r3, #53]
2520:Drivers/STM32F4xx_HAL_Driver/Src/stm32f4xx_hal_i2c.c ****     
2521:Drivers/STM32F4xx_HAL_Driver/Src/stm32f4xx_hal_i2c.c ****     /* Disable Pos bit in I2C CR1 when error occurred in Master/Mem Receive IT Process */
2522:Drivers/STM32F4xx_HAL_Driver/Src/stm32f4xx_hal_i2c.c ****     hi2c->Instance->CR1 &= ~I2C_CR1_POS;
 5688              		.loc 1 2522 0
 5689 019e 7B68     		ldr	r3, [r7, #4]
 5690 01a0 1B68     		ldr	r3, [r3]
 5691 01a2 7A68     		ldr	r2, [r7, #4]
 5692 01a4 1268     		ldr	r2, [r2]
 5693 01a6 1268     		ldr	r2, [r2]
 5694 01a8 22F40062 		bic	r2, r2, #2048
 5695 01ac 1A60     		str	r2, [r3]
2523:Drivers/STM32F4xx_HAL_Driver/Src/stm32f4xx_hal_i2c.c ****     
2524:Drivers/STM32F4xx_HAL_Driver/Src/stm32f4xx_hal_i2c.c ****     HAL_I2C_ErrorCallback(hi2c);
 5696              		.loc 1 2524 0
 5697 01ae 7868     		ldr	r0, [r7, #4]
 5698 01b0 FFF7FEFF 		bl	HAL_I2C_ErrorCallback
 5699              	.L304:
2525:Drivers/STM32F4xx_HAL_Driver/Src/stm32f4xx_hal_i2c.c ****   }
2526:Drivers/STM32F4xx_HAL_Driver/Src/stm32f4xx_hal_i2c.c **** }
 5700              		.loc 1 2526 0
 5701 01b4 1837     		adds	r7, r7, #24
 5702 01b6 BD46     		mov	sp, r7
 5703              		@ sp needed
 5704 01b8 80BD     		pop	{r7, pc}
 5705              		.cfi_endproc
 5706              	.LFE149:
 5708 01ba 00BF     		.section	.text.HAL_I2C_MasterTxCpltCallback,"ax",%progbits
 5709              		.align	2
 5710              		.weak	HAL_I2C_MasterTxCpltCallback
 5711              		.thumb
 5712              		.thumb_func
 5714              	HAL_I2C_MasterTxCpltCallback:
 5715              	.LFB150:
2527:Drivers/STM32F4xx_HAL_Driver/Src/stm32f4xx_hal_i2c.c **** 
2528:Drivers/STM32F4xx_HAL_Driver/Src/stm32f4xx_hal_i2c.c **** /**
2529:Drivers/STM32F4xx_HAL_Driver/Src/stm32f4xx_hal_i2c.c ****   * @brief  Master Tx Transfer completed callbacks.
2530:Drivers/STM32F4xx_HAL_Driver/Src/stm32f4xx_hal_i2c.c ****   * @param  hi2c: pointer to a I2C_HandleTypeDef structure that contains
2531:Drivers/STM32F4xx_HAL_Driver/Src/stm32f4xx_hal_i2c.c ****   *         the configuration information for I2C module
2532:Drivers/STM32F4xx_HAL_Driver/Src/stm32f4xx_hal_i2c.c ****   * @retval None
2533:Drivers/STM32F4xx_HAL_Driver/Src/stm32f4xx_hal_i2c.c ****   */
2534:Drivers/STM32F4xx_HAL_Driver/Src/stm32f4xx_hal_i2c.c ****  __weak void HAL_I2C_MasterTxCpltCallback(I2C_HandleTypeDef *hi2c)
2535:Drivers/STM32F4xx_HAL_Driver/Src/stm32f4xx_hal_i2c.c **** {
ARM GAS  /tmp/cc5bMm9J.s 			page 145


 5716              		.loc 1 2535 0
 5717              		.cfi_startproc
 5718              		@ args = 0, pretend = 0, frame = 8
 5719              		@ frame_needed = 1, uses_anonymous_args = 0
 5720              		@ link register save eliminated.
 5721 0000 80B4     		push	{r7}
 5722              	.LCFI75:
 5723              		.cfi_def_cfa_offset 4
 5724              		.cfi_offset 7, -4
 5725 0002 83B0     		sub	sp, sp, #12
 5726              	.LCFI76:
 5727              		.cfi_def_cfa_offset 16
 5728 0004 00AF     		add	r7, sp, #0
 5729              	.LCFI77:
 5730              		.cfi_def_cfa_register 7
 5731 0006 7860     		str	r0, [r7, #4]
2536:Drivers/STM32F4xx_HAL_Driver/Src/stm32f4xx_hal_i2c.c ****   /* NOTE : This function Should not be modified, when the callback is needed,
2537:Drivers/STM32F4xx_HAL_Driver/Src/stm32f4xx_hal_i2c.c ****             the HAL_I2C_TxCpltCallback could be implemented in the user file
2538:Drivers/STM32F4xx_HAL_Driver/Src/stm32f4xx_hal_i2c.c ****    */
2539:Drivers/STM32F4xx_HAL_Driver/Src/stm32f4xx_hal_i2c.c **** }
 5732              		.loc 1 2539 0
 5733 0008 0C37     		adds	r7, r7, #12
 5734 000a BD46     		mov	sp, r7
 5735              		@ sp needed
 5736 000c 5DF8047B 		ldr	r7, [sp], #4
 5737 0010 7047     		bx	lr
 5738              		.cfi_endproc
 5739              	.LFE150:
 5741 0012 00BF     		.section	.text.HAL_I2C_MasterRxCpltCallback,"ax",%progbits
 5742              		.align	2
 5743              		.weak	HAL_I2C_MasterRxCpltCallback
 5744              		.thumb
 5745              		.thumb_func
 5747              	HAL_I2C_MasterRxCpltCallback:
 5748              	.LFB151:
2540:Drivers/STM32F4xx_HAL_Driver/Src/stm32f4xx_hal_i2c.c **** 
2541:Drivers/STM32F4xx_HAL_Driver/Src/stm32f4xx_hal_i2c.c **** /**
2542:Drivers/STM32F4xx_HAL_Driver/Src/stm32f4xx_hal_i2c.c ****   * @brief  Master Rx Transfer completed callbacks.
2543:Drivers/STM32F4xx_HAL_Driver/Src/stm32f4xx_hal_i2c.c ****   * @param  hi2c: pointer to a I2C_HandleTypeDef structure that contains
2544:Drivers/STM32F4xx_HAL_Driver/Src/stm32f4xx_hal_i2c.c ****   *         the configuration information for I2C module
2545:Drivers/STM32F4xx_HAL_Driver/Src/stm32f4xx_hal_i2c.c ****   * @retval None
2546:Drivers/STM32F4xx_HAL_Driver/Src/stm32f4xx_hal_i2c.c ****   */
2547:Drivers/STM32F4xx_HAL_Driver/Src/stm32f4xx_hal_i2c.c **** __weak void HAL_I2C_MasterRxCpltCallback(I2C_HandleTypeDef *hi2c)
2548:Drivers/STM32F4xx_HAL_Driver/Src/stm32f4xx_hal_i2c.c **** {
 5749              		.loc 1 2548 0
 5750              		.cfi_startproc
 5751              		@ args = 0, pretend = 0, frame = 8
 5752              		@ frame_needed = 1, uses_anonymous_args = 0
 5753              		@ link register save eliminated.
 5754 0000 80B4     		push	{r7}
 5755              	.LCFI78:
 5756              		.cfi_def_cfa_offset 4
 5757              		.cfi_offset 7, -4
 5758 0002 83B0     		sub	sp, sp, #12
 5759              	.LCFI79:
 5760              		.cfi_def_cfa_offset 16
 5761 0004 00AF     		add	r7, sp, #0
ARM GAS  /tmp/cc5bMm9J.s 			page 146


 5762              	.LCFI80:
 5763              		.cfi_def_cfa_register 7
 5764 0006 7860     		str	r0, [r7, #4]
2549:Drivers/STM32F4xx_HAL_Driver/Src/stm32f4xx_hal_i2c.c ****   /* NOTE : This function Should not be modified, when the callback is needed,
2550:Drivers/STM32F4xx_HAL_Driver/Src/stm32f4xx_hal_i2c.c ****             the HAL_I2C_TxCpltCallback could be implemented in the user file
2551:Drivers/STM32F4xx_HAL_Driver/Src/stm32f4xx_hal_i2c.c ****    */
2552:Drivers/STM32F4xx_HAL_Driver/Src/stm32f4xx_hal_i2c.c **** }
 5765              		.loc 1 2552 0
 5766 0008 0C37     		adds	r7, r7, #12
 5767 000a BD46     		mov	sp, r7
 5768              		@ sp needed
 5769 000c 5DF8047B 		ldr	r7, [sp], #4
 5770 0010 7047     		bx	lr
 5771              		.cfi_endproc
 5772              	.LFE151:
 5774 0012 00BF     		.section	.text.HAL_I2C_SlaveTxCpltCallback,"ax",%progbits
 5775              		.align	2
 5776              		.weak	HAL_I2C_SlaveTxCpltCallback
 5777              		.thumb
 5778              		.thumb_func
 5780              	HAL_I2C_SlaveTxCpltCallback:
 5781              	.LFB152:
2553:Drivers/STM32F4xx_HAL_Driver/Src/stm32f4xx_hal_i2c.c **** 
2554:Drivers/STM32F4xx_HAL_Driver/Src/stm32f4xx_hal_i2c.c **** /** @brief  Slave Tx Transfer completed callbacks.
2555:Drivers/STM32F4xx_HAL_Driver/Src/stm32f4xx_hal_i2c.c ****   * @param  hi2c: pointer to a I2C_HandleTypeDef structure that contains
2556:Drivers/STM32F4xx_HAL_Driver/Src/stm32f4xx_hal_i2c.c ****   *         the configuration information for I2C module
2557:Drivers/STM32F4xx_HAL_Driver/Src/stm32f4xx_hal_i2c.c ****   * @retval None
2558:Drivers/STM32F4xx_HAL_Driver/Src/stm32f4xx_hal_i2c.c ****   */
2559:Drivers/STM32F4xx_HAL_Driver/Src/stm32f4xx_hal_i2c.c ****  __weak void HAL_I2C_SlaveTxCpltCallback(I2C_HandleTypeDef *hi2c)
2560:Drivers/STM32F4xx_HAL_Driver/Src/stm32f4xx_hal_i2c.c **** {
 5782              		.loc 1 2560 0
 5783              		.cfi_startproc
 5784              		@ args = 0, pretend = 0, frame = 8
 5785              		@ frame_needed = 1, uses_anonymous_args = 0
 5786              		@ link register save eliminated.
 5787 0000 80B4     		push	{r7}
 5788              	.LCFI81:
 5789              		.cfi_def_cfa_offset 4
 5790              		.cfi_offset 7, -4
 5791 0002 83B0     		sub	sp, sp, #12
 5792              	.LCFI82:
 5793              		.cfi_def_cfa_offset 16
 5794 0004 00AF     		add	r7, sp, #0
 5795              	.LCFI83:
 5796              		.cfi_def_cfa_register 7
 5797 0006 7860     		str	r0, [r7, #4]
2561:Drivers/STM32F4xx_HAL_Driver/Src/stm32f4xx_hal_i2c.c ****   /* NOTE : This function Should not be modified, when the callback is needed,
2562:Drivers/STM32F4xx_HAL_Driver/Src/stm32f4xx_hal_i2c.c ****             the HAL_I2C_TxCpltCallback could be implemented in the user file
2563:Drivers/STM32F4xx_HAL_Driver/Src/stm32f4xx_hal_i2c.c ****    */
2564:Drivers/STM32F4xx_HAL_Driver/Src/stm32f4xx_hal_i2c.c **** }
 5798              		.loc 1 2564 0
 5799 0008 0C37     		adds	r7, r7, #12
 5800 000a BD46     		mov	sp, r7
 5801              		@ sp needed
 5802 000c 5DF8047B 		ldr	r7, [sp], #4
 5803 0010 7047     		bx	lr
 5804              		.cfi_endproc
ARM GAS  /tmp/cc5bMm9J.s 			page 147


 5805              	.LFE152:
 5807 0012 00BF     		.section	.text.HAL_I2C_SlaveRxCpltCallback,"ax",%progbits
 5808              		.align	2
 5809              		.weak	HAL_I2C_SlaveRxCpltCallback
 5810              		.thumb
 5811              		.thumb_func
 5813              	HAL_I2C_SlaveRxCpltCallback:
 5814              	.LFB153:
2565:Drivers/STM32F4xx_HAL_Driver/Src/stm32f4xx_hal_i2c.c **** 
2566:Drivers/STM32F4xx_HAL_Driver/Src/stm32f4xx_hal_i2c.c **** /**
2567:Drivers/STM32F4xx_HAL_Driver/Src/stm32f4xx_hal_i2c.c ****   * @brief  Slave Rx Transfer completed callbacks.
2568:Drivers/STM32F4xx_HAL_Driver/Src/stm32f4xx_hal_i2c.c ****   * @param  hi2c: pointer to a I2C_HandleTypeDef structure that contains
2569:Drivers/STM32F4xx_HAL_Driver/Src/stm32f4xx_hal_i2c.c ****   *         the configuration information for I2C module
2570:Drivers/STM32F4xx_HAL_Driver/Src/stm32f4xx_hal_i2c.c ****   * @retval None
2571:Drivers/STM32F4xx_HAL_Driver/Src/stm32f4xx_hal_i2c.c ****   */
2572:Drivers/STM32F4xx_HAL_Driver/Src/stm32f4xx_hal_i2c.c **** __weak void HAL_I2C_SlaveRxCpltCallback(I2C_HandleTypeDef *hi2c)
2573:Drivers/STM32F4xx_HAL_Driver/Src/stm32f4xx_hal_i2c.c **** {
 5815              		.loc 1 2573 0
 5816              		.cfi_startproc
 5817              		@ args = 0, pretend = 0, frame = 8
 5818              		@ frame_needed = 1, uses_anonymous_args = 0
 5819              		@ link register save eliminated.
 5820 0000 80B4     		push	{r7}
 5821              	.LCFI84:
 5822              		.cfi_def_cfa_offset 4
 5823              		.cfi_offset 7, -4
 5824 0002 83B0     		sub	sp, sp, #12
 5825              	.LCFI85:
 5826              		.cfi_def_cfa_offset 16
 5827 0004 00AF     		add	r7, sp, #0
 5828              	.LCFI86:
 5829              		.cfi_def_cfa_register 7
 5830 0006 7860     		str	r0, [r7, #4]
2574:Drivers/STM32F4xx_HAL_Driver/Src/stm32f4xx_hal_i2c.c ****   /* NOTE : This function Should not be modified, when the callback is needed,
2575:Drivers/STM32F4xx_HAL_Driver/Src/stm32f4xx_hal_i2c.c ****             the HAL_I2C_TxCpltCallback could be implemented in the user file
2576:Drivers/STM32F4xx_HAL_Driver/Src/stm32f4xx_hal_i2c.c ****    */
2577:Drivers/STM32F4xx_HAL_Driver/Src/stm32f4xx_hal_i2c.c **** }
 5831              		.loc 1 2577 0
 5832 0008 0C37     		adds	r7, r7, #12
 5833 000a BD46     		mov	sp, r7
 5834              		@ sp needed
 5835 000c 5DF8047B 		ldr	r7, [sp], #4
 5836 0010 7047     		bx	lr
 5837              		.cfi_endproc
 5838              	.LFE153:
 5840 0012 00BF     		.section	.text.HAL_I2C_MemTxCpltCallback,"ax",%progbits
 5841              		.align	2
 5842              		.weak	HAL_I2C_MemTxCpltCallback
 5843              		.thumb
 5844              		.thumb_func
 5846              	HAL_I2C_MemTxCpltCallback:
 5847              	.LFB154:
2578:Drivers/STM32F4xx_HAL_Driver/Src/stm32f4xx_hal_i2c.c **** 
2579:Drivers/STM32F4xx_HAL_Driver/Src/stm32f4xx_hal_i2c.c **** /**
2580:Drivers/STM32F4xx_HAL_Driver/Src/stm32f4xx_hal_i2c.c ****   * @brief  Memory Tx Transfer completed callbacks.
2581:Drivers/STM32F4xx_HAL_Driver/Src/stm32f4xx_hal_i2c.c ****   * @param  hi2c: pointer to a I2C_HandleTypeDef structure that contains
2582:Drivers/STM32F4xx_HAL_Driver/Src/stm32f4xx_hal_i2c.c ****   *         the configuration information for I2C module
ARM GAS  /tmp/cc5bMm9J.s 			page 148


2583:Drivers/STM32F4xx_HAL_Driver/Src/stm32f4xx_hal_i2c.c ****   * @retval None
2584:Drivers/STM32F4xx_HAL_Driver/Src/stm32f4xx_hal_i2c.c ****   */
2585:Drivers/STM32F4xx_HAL_Driver/Src/stm32f4xx_hal_i2c.c ****  __weak void HAL_I2C_MemTxCpltCallback(I2C_HandleTypeDef *hi2c)
2586:Drivers/STM32F4xx_HAL_Driver/Src/stm32f4xx_hal_i2c.c **** {
 5848              		.loc 1 2586 0
 5849              		.cfi_startproc
 5850              		@ args = 0, pretend = 0, frame = 8
 5851              		@ frame_needed = 1, uses_anonymous_args = 0
 5852              		@ link register save eliminated.
 5853 0000 80B4     		push	{r7}
 5854              	.LCFI87:
 5855              		.cfi_def_cfa_offset 4
 5856              		.cfi_offset 7, -4
 5857 0002 83B0     		sub	sp, sp, #12
 5858              	.LCFI88:
 5859              		.cfi_def_cfa_offset 16
 5860 0004 00AF     		add	r7, sp, #0
 5861              	.LCFI89:
 5862              		.cfi_def_cfa_register 7
 5863 0006 7860     		str	r0, [r7, #4]
2587:Drivers/STM32F4xx_HAL_Driver/Src/stm32f4xx_hal_i2c.c ****   /* NOTE : This function Should not be modified, when the callback is needed,
2588:Drivers/STM32F4xx_HAL_Driver/Src/stm32f4xx_hal_i2c.c ****             the HAL_I2C_TxCpltCallback could be implemented in the user file
2589:Drivers/STM32F4xx_HAL_Driver/Src/stm32f4xx_hal_i2c.c ****    */
2590:Drivers/STM32F4xx_HAL_Driver/Src/stm32f4xx_hal_i2c.c **** }
 5864              		.loc 1 2590 0
 5865 0008 0C37     		adds	r7, r7, #12
 5866 000a BD46     		mov	sp, r7
 5867              		@ sp needed
 5868 000c 5DF8047B 		ldr	r7, [sp], #4
 5869 0010 7047     		bx	lr
 5870              		.cfi_endproc
 5871              	.LFE154:
 5873 0012 00BF     		.section	.text.HAL_I2C_MemRxCpltCallback,"ax",%progbits
 5874              		.align	2
 5875              		.weak	HAL_I2C_MemRxCpltCallback
 5876              		.thumb
 5877              		.thumb_func
 5879              	HAL_I2C_MemRxCpltCallback:
 5880              	.LFB155:
2591:Drivers/STM32F4xx_HAL_Driver/Src/stm32f4xx_hal_i2c.c **** 
2592:Drivers/STM32F4xx_HAL_Driver/Src/stm32f4xx_hal_i2c.c **** /**
2593:Drivers/STM32F4xx_HAL_Driver/Src/stm32f4xx_hal_i2c.c ****   * @brief  Memory Rx Transfer completed callbacks.
2594:Drivers/STM32F4xx_HAL_Driver/Src/stm32f4xx_hal_i2c.c ****   * @param  hi2c: pointer to a I2C_HandleTypeDef structure that contains
2595:Drivers/STM32F4xx_HAL_Driver/Src/stm32f4xx_hal_i2c.c ****   *         the configuration information for I2C module
2596:Drivers/STM32F4xx_HAL_Driver/Src/stm32f4xx_hal_i2c.c ****   * @retval None
2597:Drivers/STM32F4xx_HAL_Driver/Src/stm32f4xx_hal_i2c.c ****   */
2598:Drivers/STM32F4xx_HAL_Driver/Src/stm32f4xx_hal_i2c.c **** __weak void HAL_I2C_MemRxCpltCallback(I2C_HandleTypeDef *hi2c)
2599:Drivers/STM32F4xx_HAL_Driver/Src/stm32f4xx_hal_i2c.c **** {
 5881              		.loc 1 2599 0
 5882              		.cfi_startproc
 5883              		@ args = 0, pretend = 0, frame = 8
 5884              		@ frame_needed = 1, uses_anonymous_args = 0
 5885              		@ link register save eliminated.
 5886 0000 80B4     		push	{r7}
 5887              	.LCFI90:
 5888              		.cfi_def_cfa_offset 4
 5889              		.cfi_offset 7, -4
ARM GAS  /tmp/cc5bMm9J.s 			page 149


 5890 0002 83B0     		sub	sp, sp, #12
 5891              	.LCFI91:
 5892              		.cfi_def_cfa_offset 16
 5893 0004 00AF     		add	r7, sp, #0
 5894              	.LCFI92:
 5895              		.cfi_def_cfa_register 7
 5896 0006 7860     		str	r0, [r7, #4]
2600:Drivers/STM32F4xx_HAL_Driver/Src/stm32f4xx_hal_i2c.c ****   /* NOTE : This function Should not be modified, when the callback is needed,
2601:Drivers/STM32F4xx_HAL_Driver/Src/stm32f4xx_hal_i2c.c ****             the HAL_I2C_TxCpltCallback could be implemented in the user file
2602:Drivers/STM32F4xx_HAL_Driver/Src/stm32f4xx_hal_i2c.c ****    */
2603:Drivers/STM32F4xx_HAL_Driver/Src/stm32f4xx_hal_i2c.c **** }
 5897              		.loc 1 2603 0
 5898 0008 0C37     		adds	r7, r7, #12
 5899 000a BD46     		mov	sp, r7
 5900              		@ sp needed
 5901 000c 5DF8047B 		ldr	r7, [sp], #4
 5902 0010 7047     		bx	lr
 5903              		.cfi_endproc
 5904              	.LFE155:
 5906 0012 00BF     		.section	.text.HAL_I2C_ErrorCallback,"ax",%progbits
 5907              		.align	2
 5908              		.weak	HAL_I2C_ErrorCallback
 5909              		.thumb
 5910              		.thumb_func
 5912              	HAL_I2C_ErrorCallback:
 5913              	.LFB156:
2604:Drivers/STM32F4xx_HAL_Driver/Src/stm32f4xx_hal_i2c.c **** 
2605:Drivers/STM32F4xx_HAL_Driver/Src/stm32f4xx_hal_i2c.c **** /**
2606:Drivers/STM32F4xx_HAL_Driver/Src/stm32f4xx_hal_i2c.c ****   * @brief  I2C error callbacks.
2607:Drivers/STM32F4xx_HAL_Driver/Src/stm32f4xx_hal_i2c.c ****   * @param  hi2c: pointer to a I2C_HandleTypeDef structure that contains
2608:Drivers/STM32F4xx_HAL_Driver/Src/stm32f4xx_hal_i2c.c ****   *         the configuration information for I2C module
2609:Drivers/STM32F4xx_HAL_Driver/Src/stm32f4xx_hal_i2c.c ****   * @retval None
2610:Drivers/STM32F4xx_HAL_Driver/Src/stm32f4xx_hal_i2c.c ****   */
2611:Drivers/STM32F4xx_HAL_Driver/Src/stm32f4xx_hal_i2c.c ****  __weak void HAL_I2C_ErrorCallback(I2C_HandleTypeDef *hi2c)
2612:Drivers/STM32F4xx_HAL_Driver/Src/stm32f4xx_hal_i2c.c **** {
 5914              		.loc 1 2612 0
 5915              		.cfi_startproc
 5916              		@ args = 0, pretend = 0, frame = 8
 5917              		@ frame_needed = 1, uses_anonymous_args = 0
 5918              		@ link register save eliminated.
 5919 0000 80B4     		push	{r7}
 5920              	.LCFI93:
 5921              		.cfi_def_cfa_offset 4
 5922              		.cfi_offset 7, -4
 5923 0002 83B0     		sub	sp, sp, #12
 5924              	.LCFI94:
 5925              		.cfi_def_cfa_offset 16
 5926 0004 00AF     		add	r7, sp, #0
 5927              	.LCFI95:
 5928              		.cfi_def_cfa_register 7
 5929 0006 7860     		str	r0, [r7, #4]
2613:Drivers/STM32F4xx_HAL_Driver/Src/stm32f4xx_hal_i2c.c ****   /* NOTE : This function Should not be modified, when the callback is needed,
2614:Drivers/STM32F4xx_HAL_Driver/Src/stm32f4xx_hal_i2c.c ****             the HAL_I2C_ErrorCallback could be implemented in the user file
2615:Drivers/STM32F4xx_HAL_Driver/Src/stm32f4xx_hal_i2c.c ****    */
2616:Drivers/STM32F4xx_HAL_Driver/Src/stm32f4xx_hal_i2c.c **** }
 5930              		.loc 1 2616 0
 5931 0008 0C37     		adds	r7, r7, #12
ARM GAS  /tmp/cc5bMm9J.s 			page 150


 5932 000a BD46     		mov	sp, r7
 5933              		@ sp needed
 5934 000c 5DF8047B 		ldr	r7, [sp], #4
 5935 0010 7047     		bx	lr
 5936              		.cfi_endproc
 5937              	.LFE156:
 5939 0012 00BF     		.section	.text.HAL_I2C_GetState,"ax",%progbits
 5940              		.align	2
 5941              		.global	HAL_I2C_GetState
 5942              		.thumb
 5943              		.thumb_func
 5945              	HAL_I2C_GetState:
 5946              	.LFB157:
2617:Drivers/STM32F4xx_HAL_Driver/Src/stm32f4xx_hal_i2c.c **** 
2618:Drivers/STM32F4xx_HAL_Driver/Src/stm32f4xx_hal_i2c.c **** /**
2619:Drivers/STM32F4xx_HAL_Driver/Src/stm32f4xx_hal_i2c.c ****   * @}
2620:Drivers/STM32F4xx_HAL_Driver/Src/stm32f4xx_hal_i2c.c ****   */
2621:Drivers/STM32F4xx_HAL_Driver/Src/stm32f4xx_hal_i2c.c **** 
2622:Drivers/STM32F4xx_HAL_Driver/Src/stm32f4xx_hal_i2c.c **** /** @defgroup I2C_Exported_Functions_Group3 Peripheral State and Errors functions
2623:Drivers/STM32F4xx_HAL_Driver/Src/stm32f4xx_hal_i2c.c ****  *  @brief   Peripheral State and Errors functions
2624:Drivers/STM32F4xx_HAL_Driver/Src/stm32f4xx_hal_i2c.c ****  *
2625:Drivers/STM32F4xx_HAL_Driver/Src/stm32f4xx_hal_i2c.c **** @verbatim
2626:Drivers/STM32F4xx_HAL_Driver/Src/stm32f4xx_hal_i2c.c ****  ===============================================================================
2627:Drivers/STM32F4xx_HAL_Driver/Src/stm32f4xx_hal_i2c.c ****             ##### Peripheral State and Errors functions #####
2628:Drivers/STM32F4xx_HAL_Driver/Src/stm32f4xx_hal_i2c.c ****  ===============================================================================
2629:Drivers/STM32F4xx_HAL_Driver/Src/stm32f4xx_hal_i2c.c ****     [..]
2630:Drivers/STM32F4xx_HAL_Driver/Src/stm32f4xx_hal_i2c.c ****     This subsection permits to get in run-time the status of the peripheral
2631:Drivers/STM32F4xx_HAL_Driver/Src/stm32f4xx_hal_i2c.c ****     and the data flow.
2632:Drivers/STM32F4xx_HAL_Driver/Src/stm32f4xx_hal_i2c.c **** 
2633:Drivers/STM32F4xx_HAL_Driver/Src/stm32f4xx_hal_i2c.c **** @endverbatim
2634:Drivers/STM32F4xx_HAL_Driver/Src/stm32f4xx_hal_i2c.c ****   * @{
2635:Drivers/STM32F4xx_HAL_Driver/Src/stm32f4xx_hal_i2c.c ****   */
2636:Drivers/STM32F4xx_HAL_Driver/Src/stm32f4xx_hal_i2c.c **** 
2637:Drivers/STM32F4xx_HAL_Driver/Src/stm32f4xx_hal_i2c.c **** /**
2638:Drivers/STM32F4xx_HAL_Driver/Src/stm32f4xx_hal_i2c.c ****   * @brief  Returns the I2C state.
2639:Drivers/STM32F4xx_HAL_Driver/Src/stm32f4xx_hal_i2c.c ****   * @param  hi2c: pointer to a I2C_HandleTypeDef structure that contains
2640:Drivers/STM32F4xx_HAL_Driver/Src/stm32f4xx_hal_i2c.c ****   *         the configuration information for I2C module
2641:Drivers/STM32F4xx_HAL_Driver/Src/stm32f4xx_hal_i2c.c ****   * @retval HAL state
2642:Drivers/STM32F4xx_HAL_Driver/Src/stm32f4xx_hal_i2c.c ****   */
2643:Drivers/STM32F4xx_HAL_Driver/Src/stm32f4xx_hal_i2c.c **** HAL_I2C_StateTypeDef HAL_I2C_GetState(I2C_HandleTypeDef *hi2c)
2644:Drivers/STM32F4xx_HAL_Driver/Src/stm32f4xx_hal_i2c.c **** {
 5947              		.loc 1 2644 0
 5948              		.cfi_startproc
 5949              		@ args = 0, pretend = 0, frame = 8
 5950              		@ frame_needed = 1, uses_anonymous_args = 0
 5951              		@ link register save eliminated.
 5952 0000 80B4     		push	{r7}
 5953              	.LCFI96:
 5954              		.cfi_def_cfa_offset 4
 5955              		.cfi_offset 7, -4
 5956 0002 83B0     		sub	sp, sp, #12
 5957              	.LCFI97:
 5958              		.cfi_def_cfa_offset 16
 5959 0004 00AF     		add	r7, sp, #0
 5960              	.LCFI98:
 5961              		.cfi_def_cfa_register 7
 5962 0006 7860     		str	r0, [r7, #4]
ARM GAS  /tmp/cc5bMm9J.s 			page 151


2645:Drivers/STM32F4xx_HAL_Driver/Src/stm32f4xx_hal_i2c.c ****   return hi2c->State;
 5963              		.loc 1 2645 0
 5964 0008 7B68     		ldr	r3, [r7, #4]
 5965 000a 93F83530 		ldrb	r3, [r3, #53]
 5966 000e DBB2     		uxtb	r3, r3
2646:Drivers/STM32F4xx_HAL_Driver/Src/stm32f4xx_hal_i2c.c **** }
 5967              		.loc 1 2646 0
 5968 0010 1846     		mov	r0, r3
 5969 0012 0C37     		adds	r7, r7, #12
 5970 0014 BD46     		mov	sp, r7
 5971              		@ sp needed
 5972 0016 5DF8047B 		ldr	r7, [sp], #4
 5973 001a 7047     		bx	lr
 5974              		.cfi_endproc
 5975              	.LFE157:
 5977              		.section	.text.HAL_I2C_GetError,"ax",%progbits
 5978              		.align	2
 5979              		.global	HAL_I2C_GetError
 5980              		.thumb
 5981              		.thumb_func
 5983              	HAL_I2C_GetError:
 5984              	.LFB158:
2647:Drivers/STM32F4xx_HAL_Driver/Src/stm32f4xx_hal_i2c.c **** 
2648:Drivers/STM32F4xx_HAL_Driver/Src/stm32f4xx_hal_i2c.c **** /**
2649:Drivers/STM32F4xx_HAL_Driver/Src/stm32f4xx_hal_i2c.c ****   * @brief  Return the I2C error code
2650:Drivers/STM32F4xx_HAL_Driver/Src/stm32f4xx_hal_i2c.c ****   * @param  hi2c : pointer to a I2C_HandleTypeDef structure that contains
2651:Drivers/STM32F4xx_HAL_Driver/Src/stm32f4xx_hal_i2c.c ****   *              the configuration information for the specified I2C.
2652:Drivers/STM32F4xx_HAL_Driver/Src/stm32f4xx_hal_i2c.c **** * @retval I2C Error Code
2653:Drivers/STM32F4xx_HAL_Driver/Src/stm32f4xx_hal_i2c.c **** */
2654:Drivers/STM32F4xx_HAL_Driver/Src/stm32f4xx_hal_i2c.c **** uint32_t HAL_I2C_GetError(I2C_HandleTypeDef *hi2c)
2655:Drivers/STM32F4xx_HAL_Driver/Src/stm32f4xx_hal_i2c.c **** {
 5985              		.loc 1 2655 0
 5986              		.cfi_startproc
 5987              		@ args = 0, pretend = 0, frame = 8
 5988              		@ frame_needed = 1, uses_anonymous_args = 0
 5989              		@ link register save eliminated.
 5990 0000 80B4     		push	{r7}
 5991              	.LCFI99:
 5992              		.cfi_def_cfa_offset 4
 5993              		.cfi_offset 7, -4
 5994 0002 83B0     		sub	sp, sp, #12
 5995              	.LCFI100:
 5996              		.cfi_def_cfa_offset 16
 5997 0004 00AF     		add	r7, sp, #0
 5998              	.LCFI101:
 5999              		.cfi_def_cfa_register 7
 6000 0006 7860     		str	r0, [r7, #4]
2656:Drivers/STM32F4xx_HAL_Driver/Src/stm32f4xx_hal_i2c.c ****   return hi2c->ErrorCode;
 6001              		.loc 1 2656 0
 6002 0008 7B68     		ldr	r3, [r7, #4]
 6003 000a 9B6B     		ldr	r3, [r3, #56]
2657:Drivers/STM32F4xx_HAL_Driver/Src/stm32f4xx_hal_i2c.c **** }
 6004              		.loc 1 2657 0
 6005 000c 1846     		mov	r0, r3
 6006 000e 0C37     		adds	r7, r7, #12
 6007 0010 BD46     		mov	sp, r7
 6008              		@ sp needed
ARM GAS  /tmp/cc5bMm9J.s 			page 152


 6009 0012 5DF8047B 		ldr	r7, [sp], #4
 6010 0016 7047     		bx	lr
 6011              		.cfi_endproc
 6012              	.LFE158:
 6014              		.section	.text.I2C_MasterTransmit_TXE,"ax",%progbits
 6015              		.align	2
 6016              		.thumb
 6017              		.thumb_func
 6019              	I2C_MasterTransmit_TXE:
 6020              	.LFB159:
2658:Drivers/STM32F4xx_HAL_Driver/Src/stm32f4xx_hal_i2c.c **** 
2659:Drivers/STM32F4xx_HAL_Driver/Src/stm32f4xx_hal_i2c.c **** /**
2660:Drivers/STM32F4xx_HAL_Driver/Src/stm32f4xx_hal_i2c.c ****   * @}
2661:Drivers/STM32F4xx_HAL_Driver/Src/stm32f4xx_hal_i2c.c ****   */
2662:Drivers/STM32F4xx_HAL_Driver/Src/stm32f4xx_hal_i2c.c **** 
2663:Drivers/STM32F4xx_HAL_Driver/Src/stm32f4xx_hal_i2c.c **** /**
2664:Drivers/STM32F4xx_HAL_Driver/Src/stm32f4xx_hal_i2c.c ****   * @brief  Handle TXE flag for Master
2665:Drivers/STM32F4xx_HAL_Driver/Src/stm32f4xx_hal_i2c.c ****   * @param  hi2c: pointer to a I2C_HandleTypeDef structure that contains
2666:Drivers/STM32F4xx_HAL_Driver/Src/stm32f4xx_hal_i2c.c ****   *         the configuration information for I2C module
2667:Drivers/STM32F4xx_HAL_Driver/Src/stm32f4xx_hal_i2c.c ****   * @retval HAL status
2668:Drivers/STM32F4xx_HAL_Driver/Src/stm32f4xx_hal_i2c.c ****   */
2669:Drivers/STM32F4xx_HAL_Driver/Src/stm32f4xx_hal_i2c.c **** static HAL_StatusTypeDef I2C_MasterTransmit_TXE(I2C_HandleTypeDef *hi2c)
2670:Drivers/STM32F4xx_HAL_Driver/Src/stm32f4xx_hal_i2c.c **** {
 6021              		.loc 1 2670 0
 6022              		.cfi_startproc
 6023              		@ args = 0, pretend = 0, frame = 8
 6024              		@ frame_needed = 1, uses_anonymous_args = 0
 6025              		@ link register save eliminated.
 6026 0000 80B4     		push	{r7}
 6027              	.LCFI102:
 6028              		.cfi_def_cfa_offset 4
 6029              		.cfi_offset 7, -4
 6030 0002 83B0     		sub	sp, sp, #12
 6031              	.LCFI103:
 6032              		.cfi_def_cfa_offset 16
 6033 0004 00AF     		add	r7, sp, #0
 6034              	.LCFI104:
 6035              		.cfi_def_cfa_register 7
 6036 0006 7860     		str	r0, [r7, #4]
2671:Drivers/STM32F4xx_HAL_Driver/Src/stm32f4xx_hal_i2c.c ****   /* Write data to DR */
2672:Drivers/STM32F4xx_HAL_Driver/Src/stm32f4xx_hal_i2c.c ****   hi2c->Instance->DR = (*hi2c->pBuffPtr++);
 6037              		.loc 1 2672 0
 6038 0008 7B68     		ldr	r3, [r7, #4]
 6039 000a 1A68     		ldr	r2, [r3]
 6040 000c 7B68     		ldr	r3, [r7, #4]
 6041 000e 5B6A     		ldr	r3, [r3, #36]
 6042 0010 581C     		adds	r0, r3, #1
 6043 0012 7968     		ldr	r1, [r7, #4]
 6044 0014 4862     		str	r0, [r1, #36]
 6045 0016 1B78     		ldrb	r3, [r3]	@ zero_extendqisi2
 6046 0018 1361     		str	r3, [r2, #16]
2673:Drivers/STM32F4xx_HAL_Driver/Src/stm32f4xx_hal_i2c.c ****   hi2c->XferCount--;
 6047              		.loc 1 2673 0
 6048 001a 7B68     		ldr	r3, [r7, #4]
 6049 001c 5B8D     		ldrh	r3, [r3, #42]	@ movhi
 6050 001e 9BB2     		uxth	r3, r3
 6051 0020 013B     		subs	r3, r3, #1
ARM GAS  /tmp/cc5bMm9J.s 			page 153


 6052 0022 9AB2     		uxth	r2, r3
 6053 0024 7B68     		ldr	r3, [r7, #4]
 6054 0026 5A85     		strh	r2, [r3, #42]	@ movhi
2674:Drivers/STM32F4xx_HAL_Driver/Src/stm32f4xx_hal_i2c.c **** 
2675:Drivers/STM32F4xx_HAL_Driver/Src/stm32f4xx_hal_i2c.c ****   if(hi2c->XferCount == 0)
 6055              		.loc 1 2675 0
 6056 0028 7B68     		ldr	r3, [r7, #4]
 6057 002a 5B8D     		ldrh	r3, [r3, #42]	@ movhi
 6058 002c 9BB2     		uxth	r3, r3
 6059 002e 002B     		cmp	r3, #0
 6060 0030 07D1     		bne	.L323
2676:Drivers/STM32F4xx_HAL_Driver/Src/stm32f4xx_hal_i2c.c ****   {
2677:Drivers/STM32F4xx_HAL_Driver/Src/stm32f4xx_hal_i2c.c ****     /* Disable BUF interrupt */
2678:Drivers/STM32F4xx_HAL_Driver/Src/stm32f4xx_hal_i2c.c ****     __HAL_I2C_DISABLE_IT(hi2c, I2C_IT_BUF);
 6061              		.loc 1 2678 0
 6062 0032 7B68     		ldr	r3, [r7, #4]
 6063 0034 1B68     		ldr	r3, [r3]
 6064 0036 7A68     		ldr	r2, [r7, #4]
 6065 0038 1268     		ldr	r2, [r2]
 6066 003a 5268     		ldr	r2, [r2, #4]
 6067 003c 22F48062 		bic	r2, r2, #1024
 6068 0040 5A60     		str	r2, [r3, #4]
 6069              	.L323:
2679:Drivers/STM32F4xx_HAL_Driver/Src/stm32f4xx_hal_i2c.c ****   }
2680:Drivers/STM32F4xx_HAL_Driver/Src/stm32f4xx_hal_i2c.c **** 
2681:Drivers/STM32F4xx_HAL_Driver/Src/stm32f4xx_hal_i2c.c ****   return HAL_OK;
 6070              		.loc 1 2681 0
 6071 0042 0023     		movs	r3, #0
2682:Drivers/STM32F4xx_HAL_Driver/Src/stm32f4xx_hal_i2c.c **** }
 6072              		.loc 1 2682 0
 6073 0044 1846     		mov	r0, r3
 6074 0046 0C37     		adds	r7, r7, #12
 6075 0048 BD46     		mov	sp, r7
 6076              		@ sp needed
 6077 004a 5DF8047B 		ldr	r7, [sp], #4
 6078 004e 7047     		bx	lr
 6079              		.cfi_endproc
 6080              	.LFE159:
 6082              		.section	.text.I2C_MasterTransmit_BTF,"ax",%progbits
 6083              		.align	2
 6084              		.thumb
 6085              		.thumb_func
 6087              	I2C_MasterTransmit_BTF:
 6088              	.LFB160:
2683:Drivers/STM32F4xx_HAL_Driver/Src/stm32f4xx_hal_i2c.c **** 
2684:Drivers/STM32F4xx_HAL_Driver/Src/stm32f4xx_hal_i2c.c **** /**
2685:Drivers/STM32F4xx_HAL_Driver/Src/stm32f4xx_hal_i2c.c ****   * @brief  Handle BTF flag for Master transmitter
2686:Drivers/STM32F4xx_HAL_Driver/Src/stm32f4xx_hal_i2c.c ****   * @param  hi2c: pointer to a I2C_HandleTypeDef structure that contains
2687:Drivers/STM32F4xx_HAL_Driver/Src/stm32f4xx_hal_i2c.c ****   *         the configuration information for I2C module
2688:Drivers/STM32F4xx_HAL_Driver/Src/stm32f4xx_hal_i2c.c ****   * @retval HAL status
2689:Drivers/STM32F4xx_HAL_Driver/Src/stm32f4xx_hal_i2c.c ****   */
2690:Drivers/STM32F4xx_HAL_Driver/Src/stm32f4xx_hal_i2c.c **** static HAL_StatusTypeDef I2C_MasterTransmit_BTF(I2C_HandleTypeDef *hi2c)
2691:Drivers/STM32F4xx_HAL_Driver/Src/stm32f4xx_hal_i2c.c **** {
 6089              		.loc 1 2691 0
 6090              		.cfi_startproc
 6091              		@ args = 0, pretend = 0, frame = 8
 6092              		@ frame_needed = 1, uses_anonymous_args = 0
ARM GAS  /tmp/cc5bMm9J.s 			page 154


 6093 0000 80B5     		push	{r7, lr}
 6094              	.LCFI105:
 6095              		.cfi_def_cfa_offset 8
 6096              		.cfi_offset 7, -8
 6097              		.cfi_offset 14, -4
 6098 0002 82B0     		sub	sp, sp, #8
 6099              	.LCFI106:
 6100              		.cfi_def_cfa_offset 16
 6101 0004 00AF     		add	r7, sp, #0
 6102              	.LCFI107:
 6103              		.cfi_def_cfa_register 7
 6104 0006 7860     		str	r0, [r7, #4]
2692:Drivers/STM32F4xx_HAL_Driver/Src/stm32f4xx_hal_i2c.c ****   if(hi2c->XferCount != 0)
 6105              		.loc 1 2692 0
 6106 0008 7B68     		ldr	r3, [r7, #4]
 6107 000a 5B8D     		ldrh	r3, [r3, #42]	@ movhi
 6108 000c 9BB2     		uxth	r3, r3
 6109 000e 002B     		cmp	r3, #0
 6110 0010 10D0     		beq	.L326
2693:Drivers/STM32F4xx_HAL_Driver/Src/stm32f4xx_hal_i2c.c ****   {
2694:Drivers/STM32F4xx_HAL_Driver/Src/stm32f4xx_hal_i2c.c ****     /* Write data to DR */
2695:Drivers/STM32F4xx_HAL_Driver/Src/stm32f4xx_hal_i2c.c ****     hi2c->Instance->DR = (*hi2c->pBuffPtr++);
 6111              		.loc 1 2695 0
 6112 0012 7B68     		ldr	r3, [r7, #4]
 6113 0014 1A68     		ldr	r2, [r3]
 6114 0016 7B68     		ldr	r3, [r7, #4]
 6115 0018 5B6A     		ldr	r3, [r3, #36]
 6116 001a 581C     		adds	r0, r3, #1
 6117 001c 7968     		ldr	r1, [r7, #4]
 6118 001e 4862     		str	r0, [r1, #36]
 6119 0020 1B78     		ldrb	r3, [r3]	@ zero_extendqisi2
 6120 0022 1361     		str	r3, [r2, #16]
2696:Drivers/STM32F4xx_HAL_Driver/Src/stm32f4xx_hal_i2c.c ****     hi2c->XferCount--;
 6121              		.loc 1 2696 0
 6122 0024 7B68     		ldr	r3, [r7, #4]
 6123 0026 5B8D     		ldrh	r3, [r3, #42]	@ movhi
 6124 0028 9BB2     		uxth	r3, r3
 6125 002a 013B     		subs	r3, r3, #1
 6126 002c 9AB2     		uxth	r2, r3
 6127 002e 7B68     		ldr	r3, [r7, #4]
 6128 0030 5A85     		strh	r2, [r3, #42]	@ movhi
 6129 0032 24E0     		b	.L327
 6130              	.L326:
2697:Drivers/STM32F4xx_HAL_Driver/Src/stm32f4xx_hal_i2c.c ****   }
2698:Drivers/STM32F4xx_HAL_Driver/Src/stm32f4xx_hal_i2c.c ****   else
2699:Drivers/STM32F4xx_HAL_Driver/Src/stm32f4xx_hal_i2c.c ****   {
2700:Drivers/STM32F4xx_HAL_Driver/Src/stm32f4xx_hal_i2c.c ****     /* Disable EVT, BUF and ERR interrupt */
2701:Drivers/STM32F4xx_HAL_Driver/Src/stm32f4xx_hal_i2c.c ****     __HAL_I2C_DISABLE_IT(hi2c, I2C_IT_EVT | I2C_IT_BUF | I2C_IT_ERR);
 6131              		.loc 1 2701 0
 6132 0034 7B68     		ldr	r3, [r7, #4]
 6133 0036 1B68     		ldr	r3, [r3]
 6134 0038 7A68     		ldr	r2, [r7, #4]
 6135 003a 1268     		ldr	r2, [r2]
 6136 003c 5268     		ldr	r2, [r2, #4]
 6137 003e 22F4E062 		bic	r2, r2, #1792
 6138 0042 5A60     		str	r2, [r3, #4]
2702:Drivers/STM32F4xx_HAL_Driver/Src/stm32f4xx_hal_i2c.c **** 
ARM GAS  /tmp/cc5bMm9J.s 			page 155


2703:Drivers/STM32F4xx_HAL_Driver/Src/stm32f4xx_hal_i2c.c ****     /* Generate Stop */
2704:Drivers/STM32F4xx_HAL_Driver/Src/stm32f4xx_hal_i2c.c ****     hi2c->Instance->CR1 |= I2C_CR1_STOP;
 6139              		.loc 1 2704 0
 6140 0044 7B68     		ldr	r3, [r7, #4]
 6141 0046 1B68     		ldr	r3, [r3]
 6142 0048 7A68     		ldr	r2, [r7, #4]
 6143 004a 1268     		ldr	r2, [r2]
 6144 004c 1268     		ldr	r2, [r2]
 6145 004e 42F40072 		orr	r2, r2, #512
 6146 0052 1A60     		str	r2, [r3]
2705:Drivers/STM32F4xx_HAL_Driver/Src/stm32f4xx_hal_i2c.c **** 
2706:Drivers/STM32F4xx_HAL_Driver/Src/stm32f4xx_hal_i2c.c ****     if(hi2c->State == HAL_I2C_STATE_MEM_BUSY_TX)
 6147              		.loc 1 2706 0
 6148 0054 7B68     		ldr	r3, [r7, #4]
 6149 0056 93F83530 		ldrb	r3, [r3, #53]
 6150 005a DBB2     		uxtb	r3, r3
 6151 005c 322B     		cmp	r3, #50
 6152 005e 07D1     		bne	.L328
2707:Drivers/STM32F4xx_HAL_Driver/Src/stm32f4xx_hal_i2c.c ****     {
2708:Drivers/STM32F4xx_HAL_Driver/Src/stm32f4xx_hal_i2c.c ****       hi2c->State = HAL_I2C_STATE_READY;
 6153              		.loc 1 2708 0
 6154 0060 7B68     		ldr	r3, [r7, #4]
 6155 0062 0122     		movs	r2, #1
 6156 0064 83F83520 		strb	r2, [r3, #53]
2709:Drivers/STM32F4xx_HAL_Driver/Src/stm32f4xx_hal_i2c.c **** 
2710:Drivers/STM32F4xx_HAL_Driver/Src/stm32f4xx_hal_i2c.c ****       HAL_I2C_MemTxCpltCallback(hi2c);
 6157              		.loc 1 2710 0
 6158 0068 7868     		ldr	r0, [r7, #4]
 6159 006a FFF7FEFF 		bl	HAL_I2C_MemTxCpltCallback
 6160 006e 06E0     		b	.L327
 6161              	.L328:
2711:Drivers/STM32F4xx_HAL_Driver/Src/stm32f4xx_hal_i2c.c ****     }
2712:Drivers/STM32F4xx_HAL_Driver/Src/stm32f4xx_hal_i2c.c ****     else
2713:Drivers/STM32F4xx_HAL_Driver/Src/stm32f4xx_hal_i2c.c ****     {
2714:Drivers/STM32F4xx_HAL_Driver/Src/stm32f4xx_hal_i2c.c ****       hi2c->State = HAL_I2C_STATE_READY;
 6162              		.loc 1 2714 0
 6163 0070 7B68     		ldr	r3, [r7, #4]
 6164 0072 0122     		movs	r2, #1
 6165 0074 83F83520 		strb	r2, [r3, #53]
2715:Drivers/STM32F4xx_HAL_Driver/Src/stm32f4xx_hal_i2c.c **** 
2716:Drivers/STM32F4xx_HAL_Driver/Src/stm32f4xx_hal_i2c.c ****       HAL_I2C_MasterTxCpltCallback(hi2c);
 6166              		.loc 1 2716 0
 6167 0078 7868     		ldr	r0, [r7, #4]
 6168 007a FFF7FEFF 		bl	HAL_I2C_MasterTxCpltCallback
 6169              	.L327:
2717:Drivers/STM32F4xx_HAL_Driver/Src/stm32f4xx_hal_i2c.c ****     }
2718:Drivers/STM32F4xx_HAL_Driver/Src/stm32f4xx_hal_i2c.c ****   }
2719:Drivers/STM32F4xx_HAL_Driver/Src/stm32f4xx_hal_i2c.c ****   return HAL_OK;
 6170              		.loc 1 2719 0
 6171 007e 0023     		movs	r3, #0
2720:Drivers/STM32F4xx_HAL_Driver/Src/stm32f4xx_hal_i2c.c **** }
 6172              		.loc 1 2720 0
 6173 0080 1846     		mov	r0, r3
 6174 0082 0837     		adds	r7, r7, #8
 6175 0084 BD46     		mov	sp, r7
 6176              		@ sp needed
 6177 0086 80BD     		pop	{r7, pc}
ARM GAS  /tmp/cc5bMm9J.s 			page 156


 6178              		.cfi_endproc
 6179              	.LFE160:
 6181              		.section	.text.I2C_MasterReceive_RXNE,"ax",%progbits
 6182              		.align	2
 6183              		.thumb
 6184              		.thumb_func
 6186              	I2C_MasterReceive_RXNE:
 6187              	.LFB161:
2721:Drivers/STM32F4xx_HAL_Driver/Src/stm32f4xx_hal_i2c.c **** 
2722:Drivers/STM32F4xx_HAL_Driver/Src/stm32f4xx_hal_i2c.c **** /**
2723:Drivers/STM32F4xx_HAL_Driver/Src/stm32f4xx_hal_i2c.c ****   * @brief  Handle RXNE flag for Master
2724:Drivers/STM32F4xx_HAL_Driver/Src/stm32f4xx_hal_i2c.c ****   * @param  hi2c: pointer to a I2C_HandleTypeDef structure that contains
2725:Drivers/STM32F4xx_HAL_Driver/Src/stm32f4xx_hal_i2c.c ****   *         the configuration information for I2C module
2726:Drivers/STM32F4xx_HAL_Driver/Src/stm32f4xx_hal_i2c.c ****   * @retval HAL status
2727:Drivers/STM32F4xx_HAL_Driver/Src/stm32f4xx_hal_i2c.c ****   */
2728:Drivers/STM32F4xx_HAL_Driver/Src/stm32f4xx_hal_i2c.c **** static HAL_StatusTypeDef I2C_MasterReceive_RXNE(I2C_HandleTypeDef *hi2c)
2729:Drivers/STM32F4xx_HAL_Driver/Src/stm32f4xx_hal_i2c.c **** {
 6188              		.loc 1 2729 0
 6189              		.cfi_startproc
 6190              		@ args = 0, pretend = 0, frame = 16
 6191              		@ frame_needed = 1, uses_anonymous_args = 0
 6192 0000 80B5     		push	{r7, lr}
 6193              	.LCFI108:
 6194              		.cfi_def_cfa_offset 8
 6195              		.cfi_offset 7, -8
 6196              		.cfi_offset 14, -4
 6197 0002 84B0     		sub	sp, sp, #16
 6198              	.LCFI109:
 6199              		.cfi_def_cfa_offset 24
 6200 0004 00AF     		add	r7, sp, #0
 6201              	.LCFI110:
 6202              		.cfi_def_cfa_register 7
 6203 0006 7860     		str	r0, [r7, #4]
2730:Drivers/STM32F4xx_HAL_Driver/Src/stm32f4xx_hal_i2c.c ****   uint32_t tmp = 0;
 6204              		.loc 1 2730 0
 6205 0008 0023     		movs	r3, #0
 6206 000a FB60     		str	r3, [r7, #12]
2731:Drivers/STM32F4xx_HAL_Driver/Src/stm32f4xx_hal_i2c.c **** 
2732:Drivers/STM32F4xx_HAL_Driver/Src/stm32f4xx_hal_i2c.c ****   tmp = hi2c->XferCount;
 6207              		.loc 1 2732 0
 6208 000c 7B68     		ldr	r3, [r7, #4]
 6209 000e 5B8D     		ldrh	r3, [r3, #42]	@ movhi
 6210 0010 9BB2     		uxth	r3, r3
 6211 0012 FB60     		str	r3, [r7, #12]
2733:Drivers/STM32F4xx_HAL_Driver/Src/stm32f4xx_hal_i2c.c ****   if(tmp > 3)
 6212              		.loc 1 2733 0
 6213 0014 FB68     		ldr	r3, [r7, #12]
 6214 0016 032B     		cmp	r3, #3
 6215 0018 11D9     		bls	.L331
2734:Drivers/STM32F4xx_HAL_Driver/Src/stm32f4xx_hal_i2c.c ****   {
2735:Drivers/STM32F4xx_HAL_Driver/Src/stm32f4xx_hal_i2c.c ****     /* Read data from DR */
2736:Drivers/STM32F4xx_HAL_Driver/Src/stm32f4xx_hal_i2c.c ****     (*hi2c->pBuffPtr++) = hi2c->Instance->DR;
 6216              		.loc 1 2736 0
 6217 001a 7B68     		ldr	r3, [r7, #4]
 6218 001c 5B6A     		ldr	r3, [r3, #36]
 6219 001e 591C     		adds	r1, r3, #1
 6220 0020 7A68     		ldr	r2, [r7, #4]
ARM GAS  /tmp/cc5bMm9J.s 			page 157


 6221 0022 5162     		str	r1, [r2, #36]
 6222 0024 7A68     		ldr	r2, [r7, #4]
 6223 0026 1268     		ldr	r2, [r2]
 6224 0028 1269     		ldr	r2, [r2, #16]
 6225 002a D2B2     		uxtb	r2, r2
 6226 002c 1A70     		strb	r2, [r3]
2737:Drivers/STM32F4xx_HAL_Driver/Src/stm32f4xx_hal_i2c.c ****     hi2c->XferCount--;
 6227              		.loc 1 2737 0
 6228 002e 7B68     		ldr	r3, [r7, #4]
 6229 0030 5B8D     		ldrh	r3, [r3, #42]	@ movhi
 6230 0032 9BB2     		uxth	r3, r3
 6231 0034 013B     		subs	r3, r3, #1
 6232 0036 9AB2     		uxth	r2, r3
 6233 0038 7B68     		ldr	r3, [r7, #4]
 6234 003a 5A85     		strh	r2, [r3, #42]	@ movhi
 6235 003c 3CE0     		b	.L332
 6236              	.L331:
2738:Drivers/STM32F4xx_HAL_Driver/Src/stm32f4xx_hal_i2c.c ****   }
2739:Drivers/STM32F4xx_HAL_Driver/Src/stm32f4xx_hal_i2c.c ****   else if((tmp == 2) || (tmp == 3))
 6237              		.loc 1 2739 0
 6238 003e FB68     		ldr	r3, [r7, #12]
 6239 0040 022B     		cmp	r3, #2
 6240 0042 02D0     		beq	.L333
 6241              		.loc 1 2739 0 is_stmt 0 discriminator 1
 6242 0044 FB68     		ldr	r3, [r7, #12]
 6243 0046 032B     		cmp	r3, #3
 6244 0048 08D1     		bne	.L334
 6245              	.L333:
2740:Drivers/STM32F4xx_HAL_Driver/Src/stm32f4xx_hal_i2c.c ****   {
2741:Drivers/STM32F4xx_HAL_Driver/Src/stm32f4xx_hal_i2c.c ****     /* Disable BUF interrupt */
2742:Drivers/STM32F4xx_HAL_Driver/Src/stm32f4xx_hal_i2c.c ****     __HAL_I2C_DISABLE_IT(hi2c, I2C_IT_BUF);
 6246              		.loc 1 2742 0 is_stmt 1
 6247 004a 7B68     		ldr	r3, [r7, #4]
 6248 004c 1B68     		ldr	r3, [r3]
 6249 004e 7A68     		ldr	r2, [r7, #4]
 6250 0050 1268     		ldr	r2, [r2]
 6251 0052 5268     		ldr	r2, [r2, #4]
 6252 0054 22F48062 		bic	r2, r2, #1024
 6253 0058 5A60     		str	r2, [r3, #4]
 6254 005a 2DE0     		b	.L332
 6255              	.L334:
2743:Drivers/STM32F4xx_HAL_Driver/Src/stm32f4xx_hal_i2c.c ****   }
2744:Drivers/STM32F4xx_HAL_Driver/Src/stm32f4xx_hal_i2c.c ****   else
2745:Drivers/STM32F4xx_HAL_Driver/Src/stm32f4xx_hal_i2c.c ****   {
2746:Drivers/STM32F4xx_HAL_Driver/Src/stm32f4xx_hal_i2c.c ****     /* Disable EVT, BUF and ERR interrupt */
2747:Drivers/STM32F4xx_HAL_Driver/Src/stm32f4xx_hal_i2c.c ****     __HAL_I2C_DISABLE_IT(hi2c, I2C_IT_EVT | I2C_IT_BUF | I2C_IT_ERR);
 6256              		.loc 1 2747 0
 6257 005c 7B68     		ldr	r3, [r7, #4]
 6258 005e 1B68     		ldr	r3, [r3]
 6259 0060 7A68     		ldr	r2, [r7, #4]
 6260 0062 1268     		ldr	r2, [r2]
 6261 0064 5268     		ldr	r2, [r2, #4]
 6262 0066 22F4E062 		bic	r2, r2, #1792
 6263 006a 5A60     		str	r2, [r3, #4]
2748:Drivers/STM32F4xx_HAL_Driver/Src/stm32f4xx_hal_i2c.c **** 
2749:Drivers/STM32F4xx_HAL_Driver/Src/stm32f4xx_hal_i2c.c ****     /* Read data from DR */
2750:Drivers/STM32F4xx_HAL_Driver/Src/stm32f4xx_hal_i2c.c ****     (*hi2c->pBuffPtr++) = hi2c->Instance->DR;
ARM GAS  /tmp/cc5bMm9J.s 			page 158


 6264              		.loc 1 2750 0
 6265 006c 7B68     		ldr	r3, [r7, #4]
 6266 006e 5B6A     		ldr	r3, [r3, #36]
 6267 0070 591C     		adds	r1, r3, #1
 6268 0072 7A68     		ldr	r2, [r7, #4]
 6269 0074 5162     		str	r1, [r2, #36]
 6270 0076 7A68     		ldr	r2, [r7, #4]
 6271 0078 1268     		ldr	r2, [r2]
 6272 007a 1269     		ldr	r2, [r2, #16]
 6273 007c D2B2     		uxtb	r2, r2
 6274 007e 1A70     		strb	r2, [r3]
2751:Drivers/STM32F4xx_HAL_Driver/Src/stm32f4xx_hal_i2c.c ****     hi2c->XferCount--;
 6275              		.loc 1 2751 0
 6276 0080 7B68     		ldr	r3, [r7, #4]
 6277 0082 5B8D     		ldrh	r3, [r3, #42]	@ movhi
 6278 0084 9BB2     		uxth	r3, r3
 6279 0086 013B     		subs	r3, r3, #1
 6280 0088 9AB2     		uxth	r2, r3
 6281 008a 7B68     		ldr	r3, [r7, #4]
 6282 008c 5A85     		strh	r2, [r3, #42]	@ movhi
2752:Drivers/STM32F4xx_HAL_Driver/Src/stm32f4xx_hal_i2c.c **** 
2753:Drivers/STM32F4xx_HAL_Driver/Src/stm32f4xx_hal_i2c.c ****     if(hi2c->State == HAL_I2C_STATE_MEM_BUSY_RX)
 6283              		.loc 1 2753 0
 6284 008e 7B68     		ldr	r3, [r7, #4]
 6285 0090 93F83530 		ldrb	r3, [r3, #53]
 6286 0094 DBB2     		uxtb	r3, r3
 6287 0096 422B     		cmp	r3, #66
 6288 0098 07D1     		bne	.L335
2754:Drivers/STM32F4xx_HAL_Driver/Src/stm32f4xx_hal_i2c.c ****     {
2755:Drivers/STM32F4xx_HAL_Driver/Src/stm32f4xx_hal_i2c.c ****       hi2c->State = HAL_I2C_STATE_READY;
 6289              		.loc 1 2755 0
 6290 009a 7B68     		ldr	r3, [r7, #4]
 6291 009c 0122     		movs	r2, #1
 6292 009e 83F83520 		strb	r2, [r3, #53]
2756:Drivers/STM32F4xx_HAL_Driver/Src/stm32f4xx_hal_i2c.c **** 
2757:Drivers/STM32F4xx_HAL_Driver/Src/stm32f4xx_hal_i2c.c ****       HAL_I2C_MemRxCpltCallback(hi2c);
 6293              		.loc 1 2757 0
 6294 00a2 7868     		ldr	r0, [r7, #4]
 6295 00a4 FFF7FEFF 		bl	HAL_I2C_MemRxCpltCallback
 6296 00a8 06E0     		b	.L332
 6297              	.L335:
2758:Drivers/STM32F4xx_HAL_Driver/Src/stm32f4xx_hal_i2c.c ****     }
2759:Drivers/STM32F4xx_HAL_Driver/Src/stm32f4xx_hal_i2c.c ****     else
2760:Drivers/STM32F4xx_HAL_Driver/Src/stm32f4xx_hal_i2c.c ****     {
2761:Drivers/STM32F4xx_HAL_Driver/Src/stm32f4xx_hal_i2c.c ****       hi2c->State = HAL_I2C_STATE_READY;
 6298              		.loc 1 2761 0
 6299 00aa 7B68     		ldr	r3, [r7, #4]
 6300 00ac 0122     		movs	r2, #1
 6301 00ae 83F83520 		strb	r2, [r3, #53]
2762:Drivers/STM32F4xx_HAL_Driver/Src/stm32f4xx_hal_i2c.c **** 
2763:Drivers/STM32F4xx_HAL_Driver/Src/stm32f4xx_hal_i2c.c ****       HAL_I2C_MasterRxCpltCallback(hi2c);
 6302              		.loc 1 2763 0
 6303 00b2 7868     		ldr	r0, [r7, #4]
 6304 00b4 FFF7FEFF 		bl	HAL_I2C_MasterRxCpltCallback
 6305              	.L332:
2764:Drivers/STM32F4xx_HAL_Driver/Src/stm32f4xx_hal_i2c.c ****     }
2765:Drivers/STM32F4xx_HAL_Driver/Src/stm32f4xx_hal_i2c.c ****   }
ARM GAS  /tmp/cc5bMm9J.s 			page 159


2766:Drivers/STM32F4xx_HAL_Driver/Src/stm32f4xx_hal_i2c.c ****   return HAL_OK;
 6306              		.loc 1 2766 0
 6307 00b8 0023     		movs	r3, #0
2767:Drivers/STM32F4xx_HAL_Driver/Src/stm32f4xx_hal_i2c.c **** }
 6308              		.loc 1 2767 0
 6309 00ba 1846     		mov	r0, r3
 6310 00bc 1037     		adds	r7, r7, #16
 6311 00be BD46     		mov	sp, r7
 6312              		@ sp needed
 6313 00c0 80BD     		pop	{r7, pc}
 6314              		.cfi_endproc
 6315              	.LFE161:
 6317 00c2 00BF     		.section	.text.I2C_MasterReceive_BTF,"ax",%progbits
 6318              		.align	2
 6319              		.thumb
 6320              		.thumb_func
 6322              	I2C_MasterReceive_BTF:
 6323              	.LFB162:
2768:Drivers/STM32F4xx_HAL_Driver/Src/stm32f4xx_hal_i2c.c **** 
2769:Drivers/STM32F4xx_HAL_Driver/Src/stm32f4xx_hal_i2c.c **** /**
2770:Drivers/STM32F4xx_HAL_Driver/Src/stm32f4xx_hal_i2c.c ****   * @brief  Handle BTF flag for Master receiver
2771:Drivers/STM32F4xx_HAL_Driver/Src/stm32f4xx_hal_i2c.c ****   * @param  hi2c: pointer to a I2C_HandleTypeDef structure that contains
2772:Drivers/STM32F4xx_HAL_Driver/Src/stm32f4xx_hal_i2c.c ****   *         the configuration information for I2C module
2773:Drivers/STM32F4xx_HAL_Driver/Src/stm32f4xx_hal_i2c.c ****   * @retval HAL status
2774:Drivers/STM32F4xx_HAL_Driver/Src/stm32f4xx_hal_i2c.c ****   */
2775:Drivers/STM32F4xx_HAL_Driver/Src/stm32f4xx_hal_i2c.c **** static HAL_StatusTypeDef I2C_MasterReceive_BTF(I2C_HandleTypeDef *hi2c)
2776:Drivers/STM32F4xx_HAL_Driver/Src/stm32f4xx_hal_i2c.c **** {
 6324              		.loc 1 2776 0
 6325              		.cfi_startproc
 6326              		@ args = 0, pretend = 0, frame = 8
 6327              		@ frame_needed = 1, uses_anonymous_args = 0
 6328 0000 80B5     		push	{r7, lr}
 6329              	.LCFI111:
 6330              		.cfi_def_cfa_offset 8
 6331              		.cfi_offset 7, -8
 6332              		.cfi_offset 14, -4
 6333 0002 82B0     		sub	sp, sp, #8
 6334              	.LCFI112:
 6335              		.cfi_def_cfa_offset 16
 6336 0004 00AF     		add	r7, sp, #0
 6337              	.LCFI113:
 6338              		.cfi_def_cfa_register 7
 6339 0006 7860     		str	r0, [r7, #4]
2777:Drivers/STM32F4xx_HAL_Driver/Src/stm32f4xx_hal_i2c.c ****   if(hi2c->XferCount == 3)
 6340              		.loc 1 2777 0
 6341 0008 7B68     		ldr	r3, [r7, #4]
 6342 000a 5B8D     		ldrh	r3, [r3, #42]	@ movhi
 6343 000c 9BB2     		uxth	r3, r3
 6344 000e 032B     		cmp	r3, #3
 6345 0010 19D1     		bne	.L338
2778:Drivers/STM32F4xx_HAL_Driver/Src/stm32f4xx_hal_i2c.c ****   {
2779:Drivers/STM32F4xx_HAL_Driver/Src/stm32f4xx_hal_i2c.c ****     /* Disable Acknowledge */
2780:Drivers/STM32F4xx_HAL_Driver/Src/stm32f4xx_hal_i2c.c ****     hi2c->Instance->CR1 &= ~I2C_CR1_ACK;
 6346              		.loc 1 2780 0
 6347 0012 7B68     		ldr	r3, [r7, #4]
 6348 0014 1B68     		ldr	r3, [r3]
 6349 0016 7A68     		ldr	r2, [r7, #4]
ARM GAS  /tmp/cc5bMm9J.s 			page 160


 6350 0018 1268     		ldr	r2, [r2]
 6351 001a 1268     		ldr	r2, [r2]
 6352 001c 22F48062 		bic	r2, r2, #1024
 6353 0020 1A60     		str	r2, [r3]
2781:Drivers/STM32F4xx_HAL_Driver/Src/stm32f4xx_hal_i2c.c **** 
2782:Drivers/STM32F4xx_HAL_Driver/Src/stm32f4xx_hal_i2c.c ****     /* Read data from DR */
2783:Drivers/STM32F4xx_HAL_Driver/Src/stm32f4xx_hal_i2c.c ****     (*hi2c->pBuffPtr++) = hi2c->Instance->DR;
 6354              		.loc 1 2783 0
 6355 0022 7B68     		ldr	r3, [r7, #4]
 6356 0024 5B6A     		ldr	r3, [r3, #36]
 6357 0026 591C     		adds	r1, r3, #1
 6358 0028 7A68     		ldr	r2, [r7, #4]
 6359 002a 5162     		str	r1, [r2, #36]
 6360 002c 7A68     		ldr	r2, [r7, #4]
 6361 002e 1268     		ldr	r2, [r2]
 6362 0030 1269     		ldr	r2, [r2, #16]
 6363 0032 D2B2     		uxtb	r2, r2
 6364 0034 1A70     		strb	r2, [r3]
2784:Drivers/STM32F4xx_HAL_Driver/Src/stm32f4xx_hal_i2c.c ****     hi2c->XferCount--;
 6365              		.loc 1 2784 0
 6366 0036 7B68     		ldr	r3, [r7, #4]
 6367 0038 5B8D     		ldrh	r3, [r3, #42]	@ movhi
 6368 003a 9BB2     		uxth	r3, r3
 6369 003c 013B     		subs	r3, r3, #1
 6370 003e 9AB2     		uxth	r2, r3
 6371 0040 7B68     		ldr	r3, [r7, #4]
 6372 0042 5A85     		strh	r2, [r3, #42]	@ movhi
 6373 0044 5DE0     		b	.L339
 6374              	.L338:
2785:Drivers/STM32F4xx_HAL_Driver/Src/stm32f4xx_hal_i2c.c ****   }
2786:Drivers/STM32F4xx_HAL_Driver/Src/stm32f4xx_hal_i2c.c ****   else if(hi2c->XferCount == 2)
 6375              		.loc 1 2786 0
 6376 0046 7B68     		ldr	r3, [r7, #4]
 6377 0048 5B8D     		ldrh	r3, [r3, #42]	@ movhi
 6378 004a 9BB2     		uxth	r3, r3
 6379 004c 022B     		cmp	r3, #2
 6380 004e 47D1     		bne	.L340
2787:Drivers/STM32F4xx_HAL_Driver/Src/stm32f4xx_hal_i2c.c ****   {
2788:Drivers/STM32F4xx_HAL_Driver/Src/stm32f4xx_hal_i2c.c ****     /* Generate Stop */
2789:Drivers/STM32F4xx_HAL_Driver/Src/stm32f4xx_hal_i2c.c ****     hi2c->Instance->CR1 |= I2C_CR1_STOP;
 6381              		.loc 1 2789 0
 6382 0050 7B68     		ldr	r3, [r7, #4]
 6383 0052 1B68     		ldr	r3, [r3]
 6384 0054 7A68     		ldr	r2, [r7, #4]
 6385 0056 1268     		ldr	r2, [r2]
 6386 0058 1268     		ldr	r2, [r2]
 6387 005a 42F40072 		orr	r2, r2, #512
 6388 005e 1A60     		str	r2, [r3]
2790:Drivers/STM32F4xx_HAL_Driver/Src/stm32f4xx_hal_i2c.c **** 
2791:Drivers/STM32F4xx_HAL_Driver/Src/stm32f4xx_hal_i2c.c ****     /* Read data from DR */
2792:Drivers/STM32F4xx_HAL_Driver/Src/stm32f4xx_hal_i2c.c ****     (*hi2c->pBuffPtr++) = hi2c->Instance->DR;
 6389              		.loc 1 2792 0
 6390 0060 7B68     		ldr	r3, [r7, #4]
 6391 0062 5B6A     		ldr	r3, [r3, #36]
 6392 0064 591C     		adds	r1, r3, #1
 6393 0066 7A68     		ldr	r2, [r7, #4]
 6394 0068 5162     		str	r1, [r2, #36]
ARM GAS  /tmp/cc5bMm9J.s 			page 161


 6395 006a 7A68     		ldr	r2, [r7, #4]
 6396 006c 1268     		ldr	r2, [r2]
 6397 006e 1269     		ldr	r2, [r2, #16]
 6398 0070 D2B2     		uxtb	r2, r2
 6399 0072 1A70     		strb	r2, [r3]
2793:Drivers/STM32F4xx_HAL_Driver/Src/stm32f4xx_hal_i2c.c ****     hi2c->XferCount--;
 6400              		.loc 1 2793 0
 6401 0074 7B68     		ldr	r3, [r7, #4]
 6402 0076 5B8D     		ldrh	r3, [r3, #42]	@ movhi
 6403 0078 9BB2     		uxth	r3, r3
 6404 007a 013B     		subs	r3, r3, #1
 6405 007c 9AB2     		uxth	r2, r3
 6406 007e 7B68     		ldr	r3, [r7, #4]
 6407 0080 5A85     		strh	r2, [r3, #42]	@ movhi
2794:Drivers/STM32F4xx_HAL_Driver/Src/stm32f4xx_hal_i2c.c **** 
2795:Drivers/STM32F4xx_HAL_Driver/Src/stm32f4xx_hal_i2c.c ****     /* Read data from DR */
2796:Drivers/STM32F4xx_HAL_Driver/Src/stm32f4xx_hal_i2c.c ****     (*hi2c->pBuffPtr++) = hi2c->Instance->DR;
 6408              		.loc 1 2796 0
 6409 0082 7B68     		ldr	r3, [r7, #4]
 6410 0084 5B6A     		ldr	r3, [r3, #36]
 6411 0086 591C     		adds	r1, r3, #1
 6412 0088 7A68     		ldr	r2, [r7, #4]
 6413 008a 5162     		str	r1, [r2, #36]
 6414 008c 7A68     		ldr	r2, [r7, #4]
 6415 008e 1268     		ldr	r2, [r2]
 6416 0090 1269     		ldr	r2, [r2, #16]
 6417 0092 D2B2     		uxtb	r2, r2
 6418 0094 1A70     		strb	r2, [r3]
2797:Drivers/STM32F4xx_HAL_Driver/Src/stm32f4xx_hal_i2c.c ****     hi2c->XferCount--;
 6419              		.loc 1 2797 0
 6420 0096 7B68     		ldr	r3, [r7, #4]
 6421 0098 5B8D     		ldrh	r3, [r3, #42]	@ movhi
 6422 009a 9BB2     		uxth	r3, r3
 6423 009c 013B     		subs	r3, r3, #1
 6424 009e 9AB2     		uxth	r2, r3
 6425 00a0 7B68     		ldr	r3, [r7, #4]
 6426 00a2 5A85     		strh	r2, [r3, #42]	@ movhi
2798:Drivers/STM32F4xx_HAL_Driver/Src/stm32f4xx_hal_i2c.c **** 
2799:Drivers/STM32F4xx_HAL_Driver/Src/stm32f4xx_hal_i2c.c ****     /* Disable EVT and ERR interrupt */
2800:Drivers/STM32F4xx_HAL_Driver/Src/stm32f4xx_hal_i2c.c ****     __HAL_I2C_DISABLE_IT(hi2c, I2C_IT_EVT | I2C_IT_ERR);
 6427              		.loc 1 2800 0
 6428 00a4 7B68     		ldr	r3, [r7, #4]
 6429 00a6 1B68     		ldr	r3, [r3]
 6430 00a8 7A68     		ldr	r2, [r7, #4]
 6431 00aa 1268     		ldr	r2, [r2]
 6432 00ac 5268     		ldr	r2, [r2, #4]
 6433 00ae 22F44072 		bic	r2, r2, #768
 6434 00b2 5A60     		str	r2, [r3, #4]
2801:Drivers/STM32F4xx_HAL_Driver/Src/stm32f4xx_hal_i2c.c **** 
2802:Drivers/STM32F4xx_HAL_Driver/Src/stm32f4xx_hal_i2c.c ****     if(hi2c->State == HAL_I2C_STATE_MEM_BUSY_RX)
 6435              		.loc 1 2802 0
 6436 00b4 7B68     		ldr	r3, [r7, #4]
 6437 00b6 93F83530 		ldrb	r3, [r3, #53]
 6438 00ba DBB2     		uxtb	r3, r3
 6439 00bc 422B     		cmp	r3, #66
 6440 00be 07D1     		bne	.L341
2803:Drivers/STM32F4xx_HAL_Driver/Src/stm32f4xx_hal_i2c.c ****     {
ARM GAS  /tmp/cc5bMm9J.s 			page 162


2804:Drivers/STM32F4xx_HAL_Driver/Src/stm32f4xx_hal_i2c.c ****       hi2c->State = HAL_I2C_STATE_READY;
 6441              		.loc 1 2804 0
 6442 00c0 7B68     		ldr	r3, [r7, #4]
 6443 00c2 0122     		movs	r2, #1
 6444 00c4 83F83520 		strb	r2, [r3, #53]
2805:Drivers/STM32F4xx_HAL_Driver/Src/stm32f4xx_hal_i2c.c **** 
2806:Drivers/STM32F4xx_HAL_Driver/Src/stm32f4xx_hal_i2c.c ****       HAL_I2C_MemRxCpltCallback(hi2c);
 6445              		.loc 1 2806 0
 6446 00c8 7868     		ldr	r0, [r7, #4]
 6447 00ca FFF7FEFF 		bl	HAL_I2C_MemRxCpltCallback
 6448 00ce 18E0     		b	.L339
 6449              	.L341:
2807:Drivers/STM32F4xx_HAL_Driver/Src/stm32f4xx_hal_i2c.c ****     }
2808:Drivers/STM32F4xx_HAL_Driver/Src/stm32f4xx_hal_i2c.c ****     else
2809:Drivers/STM32F4xx_HAL_Driver/Src/stm32f4xx_hal_i2c.c ****     {
2810:Drivers/STM32F4xx_HAL_Driver/Src/stm32f4xx_hal_i2c.c ****       hi2c->State = HAL_I2C_STATE_READY;
 6450              		.loc 1 2810 0
 6451 00d0 7B68     		ldr	r3, [r7, #4]
 6452 00d2 0122     		movs	r2, #1
 6453 00d4 83F83520 		strb	r2, [r3, #53]
2811:Drivers/STM32F4xx_HAL_Driver/Src/stm32f4xx_hal_i2c.c **** 
2812:Drivers/STM32F4xx_HAL_Driver/Src/stm32f4xx_hal_i2c.c ****       HAL_I2C_MasterRxCpltCallback(hi2c);
 6454              		.loc 1 2812 0
 6455 00d8 7868     		ldr	r0, [r7, #4]
 6456 00da FFF7FEFF 		bl	HAL_I2C_MasterRxCpltCallback
 6457 00de 10E0     		b	.L339
 6458              	.L340:
2813:Drivers/STM32F4xx_HAL_Driver/Src/stm32f4xx_hal_i2c.c ****     }
2814:Drivers/STM32F4xx_HAL_Driver/Src/stm32f4xx_hal_i2c.c ****   }
2815:Drivers/STM32F4xx_HAL_Driver/Src/stm32f4xx_hal_i2c.c ****   else
2816:Drivers/STM32F4xx_HAL_Driver/Src/stm32f4xx_hal_i2c.c ****   {
2817:Drivers/STM32F4xx_HAL_Driver/Src/stm32f4xx_hal_i2c.c ****     /* Read data from DR */
2818:Drivers/STM32F4xx_HAL_Driver/Src/stm32f4xx_hal_i2c.c ****     (*hi2c->pBuffPtr++) = hi2c->Instance->DR;
 6459              		.loc 1 2818 0
 6460 00e0 7B68     		ldr	r3, [r7, #4]
 6461 00e2 5B6A     		ldr	r3, [r3, #36]
 6462 00e4 591C     		adds	r1, r3, #1
 6463 00e6 7A68     		ldr	r2, [r7, #4]
 6464 00e8 5162     		str	r1, [r2, #36]
 6465 00ea 7A68     		ldr	r2, [r7, #4]
 6466 00ec 1268     		ldr	r2, [r2]
 6467 00ee 1269     		ldr	r2, [r2, #16]
 6468 00f0 D2B2     		uxtb	r2, r2
 6469 00f2 1A70     		strb	r2, [r3]
2819:Drivers/STM32F4xx_HAL_Driver/Src/stm32f4xx_hal_i2c.c ****     hi2c->XferCount--;
 6470              		.loc 1 2819 0
 6471 00f4 7B68     		ldr	r3, [r7, #4]
 6472 00f6 5B8D     		ldrh	r3, [r3, #42]	@ movhi
 6473 00f8 9BB2     		uxth	r3, r3
 6474 00fa 013B     		subs	r3, r3, #1
 6475 00fc 9AB2     		uxth	r2, r3
 6476 00fe 7B68     		ldr	r3, [r7, #4]
 6477 0100 5A85     		strh	r2, [r3, #42]	@ movhi
 6478              	.L339:
2820:Drivers/STM32F4xx_HAL_Driver/Src/stm32f4xx_hal_i2c.c ****   }
2821:Drivers/STM32F4xx_HAL_Driver/Src/stm32f4xx_hal_i2c.c ****   return HAL_OK;
 6479              		.loc 1 2821 0
ARM GAS  /tmp/cc5bMm9J.s 			page 163


 6480 0102 0023     		movs	r3, #0
2822:Drivers/STM32F4xx_HAL_Driver/Src/stm32f4xx_hal_i2c.c **** }
 6481              		.loc 1 2822 0
 6482 0104 1846     		mov	r0, r3
 6483 0106 0837     		adds	r7, r7, #8
 6484 0108 BD46     		mov	sp, r7
 6485              		@ sp needed
 6486 010a 80BD     		pop	{r7, pc}
 6487              		.cfi_endproc
 6488              	.LFE162:
 6490              		.section	.text.I2C_SlaveTransmit_TXE,"ax",%progbits
 6491              		.align	2
 6492              		.thumb
 6493              		.thumb_func
 6495              	I2C_SlaveTransmit_TXE:
 6496              	.LFB163:
2823:Drivers/STM32F4xx_HAL_Driver/Src/stm32f4xx_hal_i2c.c **** 
2824:Drivers/STM32F4xx_HAL_Driver/Src/stm32f4xx_hal_i2c.c **** /**
2825:Drivers/STM32F4xx_HAL_Driver/Src/stm32f4xx_hal_i2c.c ****   * @brief  Handle TXE flag for Slave
2826:Drivers/STM32F4xx_HAL_Driver/Src/stm32f4xx_hal_i2c.c ****   * @param  hi2c: pointer to a I2C_HandleTypeDef structure that contains
2827:Drivers/STM32F4xx_HAL_Driver/Src/stm32f4xx_hal_i2c.c ****   *         the configuration information for I2C module
2828:Drivers/STM32F4xx_HAL_Driver/Src/stm32f4xx_hal_i2c.c ****   * @retval HAL status
2829:Drivers/STM32F4xx_HAL_Driver/Src/stm32f4xx_hal_i2c.c ****   */
2830:Drivers/STM32F4xx_HAL_Driver/Src/stm32f4xx_hal_i2c.c **** static HAL_StatusTypeDef I2C_SlaveTransmit_TXE(I2C_HandleTypeDef *hi2c)
2831:Drivers/STM32F4xx_HAL_Driver/Src/stm32f4xx_hal_i2c.c **** {
 6497              		.loc 1 2831 0
 6498              		.cfi_startproc
 6499              		@ args = 0, pretend = 0, frame = 8
 6500              		@ frame_needed = 1, uses_anonymous_args = 0
 6501              		@ link register save eliminated.
 6502 0000 80B4     		push	{r7}
 6503              	.LCFI114:
 6504              		.cfi_def_cfa_offset 4
 6505              		.cfi_offset 7, -4
 6506 0002 83B0     		sub	sp, sp, #12
 6507              	.LCFI115:
 6508              		.cfi_def_cfa_offset 16
 6509 0004 00AF     		add	r7, sp, #0
 6510              	.LCFI116:
 6511              		.cfi_def_cfa_register 7
 6512 0006 7860     		str	r0, [r7, #4]
2832:Drivers/STM32F4xx_HAL_Driver/Src/stm32f4xx_hal_i2c.c ****   if(hi2c->XferCount != 0)
 6513              		.loc 1 2832 0
 6514 0008 7B68     		ldr	r3, [r7, #4]
 6515 000a 5B8D     		ldrh	r3, [r3, #42]	@ movhi
 6516 000c 9BB2     		uxth	r3, r3
 6517 000e 002B     		cmp	r3, #0
 6518 0010 0FD0     		beq	.L345
2833:Drivers/STM32F4xx_HAL_Driver/Src/stm32f4xx_hal_i2c.c ****   {
2834:Drivers/STM32F4xx_HAL_Driver/Src/stm32f4xx_hal_i2c.c ****     /* Write data to DR */
2835:Drivers/STM32F4xx_HAL_Driver/Src/stm32f4xx_hal_i2c.c ****     hi2c->Instance->DR = (*hi2c->pBuffPtr++);
 6519              		.loc 1 2835 0
 6520 0012 7B68     		ldr	r3, [r7, #4]
 6521 0014 1A68     		ldr	r2, [r3]
 6522 0016 7B68     		ldr	r3, [r7, #4]
 6523 0018 5B6A     		ldr	r3, [r3, #36]
 6524 001a 581C     		adds	r0, r3, #1
ARM GAS  /tmp/cc5bMm9J.s 			page 164


 6525 001c 7968     		ldr	r1, [r7, #4]
 6526 001e 4862     		str	r0, [r1, #36]
 6527 0020 1B78     		ldrb	r3, [r3]	@ zero_extendqisi2
 6528 0022 1361     		str	r3, [r2, #16]
2836:Drivers/STM32F4xx_HAL_Driver/Src/stm32f4xx_hal_i2c.c ****     hi2c->XferCount--;
 6529              		.loc 1 2836 0
 6530 0024 7B68     		ldr	r3, [r7, #4]
 6531 0026 5B8D     		ldrh	r3, [r3, #42]	@ movhi
 6532 0028 9BB2     		uxth	r3, r3
 6533 002a 013B     		subs	r3, r3, #1
 6534 002c 9AB2     		uxth	r2, r3
 6535 002e 7B68     		ldr	r3, [r7, #4]
 6536 0030 5A85     		strh	r2, [r3, #42]	@ movhi
 6537              	.L345:
2837:Drivers/STM32F4xx_HAL_Driver/Src/stm32f4xx_hal_i2c.c ****   }
2838:Drivers/STM32F4xx_HAL_Driver/Src/stm32f4xx_hal_i2c.c ****   return HAL_OK;
 6538              		.loc 1 2838 0
 6539 0032 0023     		movs	r3, #0
2839:Drivers/STM32F4xx_HAL_Driver/Src/stm32f4xx_hal_i2c.c **** }
 6540              		.loc 1 2839 0
 6541 0034 1846     		mov	r0, r3
 6542 0036 0C37     		adds	r7, r7, #12
 6543 0038 BD46     		mov	sp, r7
 6544              		@ sp needed
 6545 003a 5DF8047B 		ldr	r7, [sp], #4
 6546 003e 7047     		bx	lr
 6547              		.cfi_endproc
 6548              	.LFE163:
 6550              		.section	.text.I2C_SlaveTransmit_BTF,"ax",%progbits
 6551              		.align	2
 6552              		.thumb
 6553              		.thumb_func
 6555              	I2C_SlaveTransmit_BTF:
 6556              	.LFB164:
2840:Drivers/STM32F4xx_HAL_Driver/Src/stm32f4xx_hal_i2c.c **** 
2841:Drivers/STM32F4xx_HAL_Driver/Src/stm32f4xx_hal_i2c.c **** /**
2842:Drivers/STM32F4xx_HAL_Driver/Src/stm32f4xx_hal_i2c.c ****   * @brief  Handle BTF flag for Slave transmitter
2843:Drivers/STM32F4xx_HAL_Driver/Src/stm32f4xx_hal_i2c.c ****   * @param  hi2c: pointer to a I2C_HandleTypeDef structure that contains
2844:Drivers/STM32F4xx_HAL_Driver/Src/stm32f4xx_hal_i2c.c ****   *         the configuration information for I2C module
2845:Drivers/STM32F4xx_HAL_Driver/Src/stm32f4xx_hal_i2c.c ****   * @retval HAL status
2846:Drivers/STM32F4xx_HAL_Driver/Src/stm32f4xx_hal_i2c.c ****   */
2847:Drivers/STM32F4xx_HAL_Driver/Src/stm32f4xx_hal_i2c.c **** static HAL_StatusTypeDef I2C_SlaveTransmit_BTF(I2C_HandleTypeDef *hi2c)
2848:Drivers/STM32F4xx_HAL_Driver/Src/stm32f4xx_hal_i2c.c **** {
 6557              		.loc 1 2848 0
 6558              		.cfi_startproc
 6559              		@ args = 0, pretend = 0, frame = 8
 6560              		@ frame_needed = 1, uses_anonymous_args = 0
 6561              		@ link register save eliminated.
 6562 0000 80B4     		push	{r7}
 6563              	.LCFI117:
 6564              		.cfi_def_cfa_offset 4
 6565              		.cfi_offset 7, -4
 6566 0002 83B0     		sub	sp, sp, #12
 6567              	.LCFI118:
 6568              		.cfi_def_cfa_offset 16
 6569 0004 00AF     		add	r7, sp, #0
 6570              	.LCFI119:
ARM GAS  /tmp/cc5bMm9J.s 			page 165


 6571              		.cfi_def_cfa_register 7
 6572 0006 7860     		str	r0, [r7, #4]
2849:Drivers/STM32F4xx_HAL_Driver/Src/stm32f4xx_hal_i2c.c ****   if(hi2c->XferCount != 0)
 6573              		.loc 1 2849 0
 6574 0008 7B68     		ldr	r3, [r7, #4]
 6575 000a 5B8D     		ldrh	r3, [r3, #42]	@ movhi
 6576 000c 9BB2     		uxth	r3, r3
 6577 000e 002B     		cmp	r3, #0
 6578 0010 0FD0     		beq	.L348
2850:Drivers/STM32F4xx_HAL_Driver/Src/stm32f4xx_hal_i2c.c ****   {
2851:Drivers/STM32F4xx_HAL_Driver/Src/stm32f4xx_hal_i2c.c ****     /* Write data to DR */
2852:Drivers/STM32F4xx_HAL_Driver/Src/stm32f4xx_hal_i2c.c ****     hi2c->Instance->DR = (*hi2c->pBuffPtr++);
 6579              		.loc 1 2852 0
 6580 0012 7B68     		ldr	r3, [r7, #4]
 6581 0014 1A68     		ldr	r2, [r3]
 6582 0016 7B68     		ldr	r3, [r7, #4]
 6583 0018 5B6A     		ldr	r3, [r3, #36]
 6584 001a 581C     		adds	r0, r3, #1
 6585 001c 7968     		ldr	r1, [r7, #4]
 6586 001e 4862     		str	r0, [r1, #36]
 6587 0020 1B78     		ldrb	r3, [r3]	@ zero_extendqisi2
 6588 0022 1361     		str	r3, [r2, #16]
2853:Drivers/STM32F4xx_HAL_Driver/Src/stm32f4xx_hal_i2c.c ****     hi2c->XferCount--;
 6589              		.loc 1 2853 0
 6590 0024 7B68     		ldr	r3, [r7, #4]
 6591 0026 5B8D     		ldrh	r3, [r3, #42]	@ movhi
 6592 0028 9BB2     		uxth	r3, r3
 6593 002a 013B     		subs	r3, r3, #1
 6594 002c 9AB2     		uxth	r2, r3
 6595 002e 7B68     		ldr	r3, [r7, #4]
 6596 0030 5A85     		strh	r2, [r3, #42]	@ movhi
 6597              	.L348:
2854:Drivers/STM32F4xx_HAL_Driver/Src/stm32f4xx_hal_i2c.c ****   }
2855:Drivers/STM32F4xx_HAL_Driver/Src/stm32f4xx_hal_i2c.c ****   return HAL_OK;
 6598              		.loc 1 2855 0
 6599 0032 0023     		movs	r3, #0
2856:Drivers/STM32F4xx_HAL_Driver/Src/stm32f4xx_hal_i2c.c **** }
 6600              		.loc 1 2856 0
 6601 0034 1846     		mov	r0, r3
 6602 0036 0C37     		adds	r7, r7, #12
 6603 0038 BD46     		mov	sp, r7
 6604              		@ sp needed
 6605 003a 5DF8047B 		ldr	r7, [sp], #4
 6606 003e 7047     		bx	lr
 6607              		.cfi_endproc
 6608              	.LFE164:
 6610              		.section	.text.I2C_SlaveReceive_RXNE,"ax",%progbits
 6611              		.align	2
 6612              		.thumb
 6613              		.thumb_func
 6615              	I2C_SlaveReceive_RXNE:
 6616              	.LFB165:
2857:Drivers/STM32F4xx_HAL_Driver/Src/stm32f4xx_hal_i2c.c **** 
2858:Drivers/STM32F4xx_HAL_Driver/Src/stm32f4xx_hal_i2c.c **** /**
2859:Drivers/STM32F4xx_HAL_Driver/Src/stm32f4xx_hal_i2c.c ****   * @brief  Handle RXNE flag for Slave
2860:Drivers/STM32F4xx_HAL_Driver/Src/stm32f4xx_hal_i2c.c ****   * @param  hi2c: pointer to a I2C_HandleTypeDef structure that contains
2861:Drivers/STM32F4xx_HAL_Driver/Src/stm32f4xx_hal_i2c.c ****   *         the configuration information for I2C module
ARM GAS  /tmp/cc5bMm9J.s 			page 166


2862:Drivers/STM32F4xx_HAL_Driver/Src/stm32f4xx_hal_i2c.c ****   * @retval HAL status
2863:Drivers/STM32F4xx_HAL_Driver/Src/stm32f4xx_hal_i2c.c ****   */
2864:Drivers/STM32F4xx_HAL_Driver/Src/stm32f4xx_hal_i2c.c **** static HAL_StatusTypeDef I2C_SlaveReceive_RXNE(I2C_HandleTypeDef *hi2c)
2865:Drivers/STM32F4xx_HAL_Driver/Src/stm32f4xx_hal_i2c.c **** {
 6617              		.loc 1 2865 0
 6618              		.cfi_startproc
 6619              		@ args = 0, pretend = 0, frame = 8
 6620              		@ frame_needed = 1, uses_anonymous_args = 0
 6621              		@ link register save eliminated.
 6622 0000 80B4     		push	{r7}
 6623              	.LCFI120:
 6624              		.cfi_def_cfa_offset 4
 6625              		.cfi_offset 7, -4
 6626 0002 83B0     		sub	sp, sp, #12
 6627              	.LCFI121:
 6628              		.cfi_def_cfa_offset 16
 6629 0004 00AF     		add	r7, sp, #0
 6630              	.LCFI122:
 6631              		.cfi_def_cfa_register 7
 6632 0006 7860     		str	r0, [r7, #4]
2866:Drivers/STM32F4xx_HAL_Driver/Src/stm32f4xx_hal_i2c.c ****   if(hi2c->XferCount != 0)
 6633              		.loc 1 2866 0
 6634 0008 7B68     		ldr	r3, [r7, #4]
 6635 000a 5B8D     		ldrh	r3, [r3, #42]	@ movhi
 6636 000c 9BB2     		uxth	r3, r3
 6637 000e 002B     		cmp	r3, #0
 6638 0010 10D0     		beq	.L351
2867:Drivers/STM32F4xx_HAL_Driver/Src/stm32f4xx_hal_i2c.c ****   {
2868:Drivers/STM32F4xx_HAL_Driver/Src/stm32f4xx_hal_i2c.c ****     /* Read data from DR */
2869:Drivers/STM32F4xx_HAL_Driver/Src/stm32f4xx_hal_i2c.c ****     (*hi2c->pBuffPtr++) = hi2c->Instance->DR;
 6639              		.loc 1 2869 0
 6640 0012 7B68     		ldr	r3, [r7, #4]
 6641 0014 5B6A     		ldr	r3, [r3, #36]
 6642 0016 591C     		adds	r1, r3, #1
 6643 0018 7A68     		ldr	r2, [r7, #4]
 6644 001a 5162     		str	r1, [r2, #36]
 6645 001c 7A68     		ldr	r2, [r7, #4]
 6646 001e 1268     		ldr	r2, [r2]
 6647 0020 1269     		ldr	r2, [r2, #16]
 6648 0022 D2B2     		uxtb	r2, r2
 6649 0024 1A70     		strb	r2, [r3]
2870:Drivers/STM32F4xx_HAL_Driver/Src/stm32f4xx_hal_i2c.c ****     hi2c->XferCount--;
 6650              		.loc 1 2870 0
 6651 0026 7B68     		ldr	r3, [r7, #4]
 6652 0028 5B8D     		ldrh	r3, [r3, #42]	@ movhi
 6653 002a 9BB2     		uxth	r3, r3
 6654 002c 013B     		subs	r3, r3, #1
 6655 002e 9AB2     		uxth	r2, r3
 6656 0030 7B68     		ldr	r3, [r7, #4]
 6657 0032 5A85     		strh	r2, [r3, #42]	@ movhi
 6658              	.L351:
2871:Drivers/STM32F4xx_HAL_Driver/Src/stm32f4xx_hal_i2c.c ****   }
2872:Drivers/STM32F4xx_HAL_Driver/Src/stm32f4xx_hal_i2c.c ****   return HAL_OK;
 6659              		.loc 1 2872 0
 6660 0034 0023     		movs	r3, #0
2873:Drivers/STM32F4xx_HAL_Driver/Src/stm32f4xx_hal_i2c.c **** }
 6661              		.loc 1 2873 0
ARM GAS  /tmp/cc5bMm9J.s 			page 167


 6662 0036 1846     		mov	r0, r3
 6663 0038 0C37     		adds	r7, r7, #12
 6664 003a BD46     		mov	sp, r7
 6665              		@ sp needed
 6666 003c 5DF8047B 		ldr	r7, [sp], #4
 6667 0040 7047     		bx	lr
 6668              		.cfi_endproc
 6669              	.LFE165:
 6671 0042 00BF     		.section	.text.I2C_SlaveReceive_BTF,"ax",%progbits
 6672              		.align	2
 6673              		.thumb
 6674              		.thumb_func
 6676              	I2C_SlaveReceive_BTF:
 6677              	.LFB166:
2874:Drivers/STM32F4xx_HAL_Driver/Src/stm32f4xx_hal_i2c.c **** 
2875:Drivers/STM32F4xx_HAL_Driver/Src/stm32f4xx_hal_i2c.c **** /**
2876:Drivers/STM32F4xx_HAL_Driver/Src/stm32f4xx_hal_i2c.c ****   * @brief  Handle BTF flag for Slave receiver
2877:Drivers/STM32F4xx_HAL_Driver/Src/stm32f4xx_hal_i2c.c ****   * @param  hi2c: pointer to a I2C_HandleTypeDef structure that contains
2878:Drivers/STM32F4xx_HAL_Driver/Src/stm32f4xx_hal_i2c.c ****   *         the configuration information for I2C module
2879:Drivers/STM32F4xx_HAL_Driver/Src/stm32f4xx_hal_i2c.c ****   * @retval HAL status
2880:Drivers/STM32F4xx_HAL_Driver/Src/stm32f4xx_hal_i2c.c ****   */
2881:Drivers/STM32F4xx_HAL_Driver/Src/stm32f4xx_hal_i2c.c **** static HAL_StatusTypeDef I2C_SlaveReceive_BTF(I2C_HandleTypeDef *hi2c)
2882:Drivers/STM32F4xx_HAL_Driver/Src/stm32f4xx_hal_i2c.c **** {
 6678              		.loc 1 2882 0
 6679              		.cfi_startproc
 6680              		@ args = 0, pretend = 0, frame = 8
 6681              		@ frame_needed = 1, uses_anonymous_args = 0
 6682              		@ link register save eliminated.
 6683 0000 80B4     		push	{r7}
 6684              	.LCFI123:
 6685              		.cfi_def_cfa_offset 4
 6686              		.cfi_offset 7, -4
 6687 0002 83B0     		sub	sp, sp, #12
 6688              	.LCFI124:
 6689              		.cfi_def_cfa_offset 16
 6690 0004 00AF     		add	r7, sp, #0
 6691              	.LCFI125:
 6692              		.cfi_def_cfa_register 7
 6693 0006 7860     		str	r0, [r7, #4]
2883:Drivers/STM32F4xx_HAL_Driver/Src/stm32f4xx_hal_i2c.c ****   if(hi2c->XferCount != 0)
 6694              		.loc 1 2883 0
 6695 0008 7B68     		ldr	r3, [r7, #4]
 6696 000a 5B8D     		ldrh	r3, [r3, #42]	@ movhi
 6697 000c 9BB2     		uxth	r3, r3
 6698 000e 002B     		cmp	r3, #0
 6699 0010 10D0     		beq	.L354
2884:Drivers/STM32F4xx_HAL_Driver/Src/stm32f4xx_hal_i2c.c ****   {
2885:Drivers/STM32F4xx_HAL_Driver/Src/stm32f4xx_hal_i2c.c ****     /* Read data from DR */
2886:Drivers/STM32F4xx_HAL_Driver/Src/stm32f4xx_hal_i2c.c ****     (*hi2c->pBuffPtr++) = hi2c->Instance->DR;
 6700              		.loc 1 2886 0
 6701 0012 7B68     		ldr	r3, [r7, #4]
 6702 0014 5B6A     		ldr	r3, [r3, #36]
 6703 0016 591C     		adds	r1, r3, #1
 6704 0018 7A68     		ldr	r2, [r7, #4]
 6705 001a 5162     		str	r1, [r2, #36]
 6706 001c 7A68     		ldr	r2, [r7, #4]
 6707 001e 1268     		ldr	r2, [r2]
ARM GAS  /tmp/cc5bMm9J.s 			page 168


 6708 0020 1269     		ldr	r2, [r2, #16]
 6709 0022 D2B2     		uxtb	r2, r2
 6710 0024 1A70     		strb	r2, [r3]
2887:Drivers/STM32F4xx_HAL_Driver/Src/stm32f4xx_hal_i2c.c ****     hi2c->XferCount--;
 6711              		.loc 1 2887 0
 6712 0026 7B68     		ldr	r3, [r7, #4]
 6713 0028 5B8D     		ldrh	r3, [r3, #42]	@ movhi
 6714 002a 9BB2     		uxth	r3, r3
 6715 002c 013B     		subs	r3, r3, #1
 6716 002e 9AB2     		uxth	r2, r3
 6717 0030 7B68     		ldr	r3, [r7, #4]
 6718 0032 5A85     		strh	r2, [r3, #42]	@ movhi
 6719              	.L354:
2888:Drivers/STM32F4xx_HAL_Driver/Src/stm32f4xx_hal_i2c.c ****   }
2889:Drivers/STM32F4xx_HAL_Driver/Src/stm32f4xx_hal_i2c.c ****   return HAL_OK;
 6720              		.loc 1 2889 0
 6721 0034 0023     		movs	r3, #0
2890:Drivers/STM32F4xx_HAL_Driver/Src/stm32f4xx_hal_i2c.c **** }
 6722              		.loc 1 2890 0
 6723 0036 1846     		mov	r0, r3
 6724 0038 0C37     		adds	r7, r7, #12
 6725 003a BD46     		mov	sp, r7
 6726              		@ sp needed
 6727 003c 5DF8047B 		ldr	r7, [sp], #4
 6728 0040 7047     		bx	lr
 6729              		.cfi_endproc
 6730              	.LFE166:
 6732 0042 00BF     		.section	.text.I2C_Slave_ADDR,"ax",%progbits
 6733              		.align	2
 6734              		.thumb
 6735              		.thumb_func
 6737              	I2C_Slave_ADDR:
 6738              	.LFB167:
2891:Drivers/STM32F4xx_HAL_Driver/Src/stm32f4xx_hal_i2c.c **** 
2892:Drivers/STM32F4xx_HAL_Driver/Src/stm32f4xx_hal_i2c.c **** /**
2893:Drivers/STM32F4xx_HAL_Driver/Src/stm32f4xx_hal_i2c.c ****   * @brief  Handle ADD flag for Slave
2894:Drivers/STM32F4xx_HAL_Driver/Src/stm32f4xx_hal_i2c.c ****   * @param  hi2c: pointer to a I2C_HandleTypeDef structure that contains
2895:Drivers/STM32F4xx_HAL_Driver/Src/stm32f4xx_hal_i2c.c ****   *         the configuration information for I2C module
2896:Drivers/STM32F4xx_HAL_Driver/Src/stm32f4xx_hal_i2c.c ****   * @retval HAL status
2897:Drivers/STM32F4xx_HAL_Driver/Src/stm32f4xx_hal_i2c.c ****   */
2898:Drivers/STM32F4xx_HAL_Driver/Src/stm32f4xx_hal_i2c.c **** static HAL_StatusTypeDef I2C_Slave_ADDR(I2C_HandleTypeDef *hi2c)
2899:Drivers/STM32F4xx_HAL_Driver/Src/stm32f4xx_hal_i2c.c **** {
 6739              		.loc 1 2899 0
 6740              		.cfi_startproc
 6741              		@ args = 0, pretend = 0, frame = 16
 6742              		@ frame_needed = 1, uses_anonymous_args = 0
 6743              		@ link register save eliminated.
 6744 0000 80B4     		push	{r7}
 6745              	.LCFI126:
 6746              		.cfi_def_cfa_offset 4
 6747              		.cfi_offset 7, -4
 6748 0002 85B0     		sub	sp, sp, #20
 6749              	.LCFI127:
 6750              		.cfi_def_cfa_offset 24
 6751 0004 00AF     		add	r7, sp, #0
 6752              	.LCFI128:
 6753              		.cfi_def_cfa_register 7
ARM GAS  /tmp/cc5bMm9J.s 			page 169


 6754 0006 7860     		str	r0, [r7, #4]
 6755              	.LBB28:
2900:Drivers/STM32F4xx_HAL_Driver/Src/stm32f4xx_hal_i2c.c ****   /* Clear ADDR flag */
2901:Drivers/STM32F4xx_HAL_Driver/Src/stm32f4xx_hal_i2c.c ****   __HAL_I2C_CLEAR_ADDRFLAG(hi2c);
 6756              		.loc 1 2901 0
 6757 0008 7B68     		ldr	r3, [r7, #4]
 6758 000a 1B68     		ldr	r3, [r3]
 6759 000c 5B69     		ldr	r3, [r3, #20]
 6760 000e FB60     		str	r3, [r7, #12]
 6761 0010 7B68     		ldr	r3, [r7, #4]
 6762 0012 1B68     		ldr	r3, [r3]
 6763 0014 9B69     		ldr	r3, [r3, #24]
 6764 0016 FB60     		str	r3, [r7, #12]
 6765 0018 FB68     		ldr	r3, [r7, #12]
 6766              	.LBE28:
2902:Drivers/STM32F4xx_HAL_Driver/Src/stm32f4xx_hal_i2c.c **** 
2903:Drivers/STM32F4xx_HAL_Driver/Src/stm32f4xx_hal_i2c.c ****   return HAL_OK;
 6767              		.loc 1 2903 0
 6768 001a 0023     		movs	r3, #0
2904:Drivers/STM32F4xx_HAL_Driver/Src/stm32f4xx_hal_i2c.c **** }
 6769              		.loc 1 2904 0
 6770 001c 1846     		mov	r0, r3
 6771 001e 1437     		adds	r7, r7, #20
 6772 0020 BD46     		mov	sp, r7
 6773              		@ sp needed
 6774 0022 5DF8047B 		ldr	r7, [sp], #4
 6775 0026 7047     		bx	lr
 6776              		.cfi_endproc
 6777              	.LFE167:
 6779              		.section	.text.I2C_Slave_STOPF,"ax",%progbits
 6780              		.align	2
 6781              		.thumb
 6782              		.thumb_func
 6784              	I2C_Slave_STOPF:
 6785              	.LFB168:
2905:Drivers/STM32F4xx_HAL_Driver/Src/stm32f4xx_hal_i2c.c **** 
2906:Drivers/STM32F4xx_HAL_Driver/Src/stm32f4xx_hal_i2c.c **** /**
2907:Drivers/STM32F4xx_HAL_Driver/Src/stm32f4xx_hal_i2c.c ****   * @brief  Handle STOPF flag for Slave
2908:Drivers/STM32F4xx_HAL_Driver/Src/stm32f4xx_hal_i2c.c ****   * @param  hi2c: pointer to a I2C_HandleTypeDef structure that contains
2909:Drivers/STM32F4xx_HAL_Driver/Src/stm32f4xx_hal_i2c.c ****   *         the configuration information for I2C module
2910:Drivers/STM32F4xx_HAL_Driver/Src/stm32f4xx_hal_i2c.c ****   * @retval HAL status
2911:Drivers/STM32F4xx_HAL_Driver/Src/stm32f4xx_hal_i2c.c ****   */
2912:Drivers/STM32F4xx_HAL_Driver/Src/stm32f4xx_hal_i2c.c **** static HAL_StatusTypeDef I2C_Slave_STOPF(I2C_HandleTypeDef *hi2c)
2913:Drivers/STM32F4xx_HAL_Driver/Src/stm32f4xx_hal_i2c.c **** {
 6786              		.loc 1 2913 0
 6787              		.cfi_startproc
 6788              		@ args = 0, pretend = 0, frame = 16
 6789              		@ frame_needed = 1, uses_anonymous_args = 0
 6790 0000 80B5     		push	{r7, lr}
 6791              	.LCFI129:
 6792              		.cfi_def_cfa_offset 8
 6793              		.cfi_offset 7, -8
 6794              		.cfi_offset 14, -4
 6795 0002 84B0     		sub	sp, sp, #16
 6796              	.LCFI130:
 6797              		.cfi_def_cfa_offset 24
 6798 0004 00AF     		add	r7, sp, #0
ARM GAS  /tmp/cc5bMm9J.s 			page 170


 6799              	.LCFI131:
 6800              		.cfi_def_cfa_register 7
 6801 0006 7860     		str	r0, [r7, #4]
2914:Drivers/STM32F4xx_HAL_Driver/Src/stm32f4xx_hal_i2c.c ****   /* Disable EVT, BUF and ERR interrupt */
2915:Drivers/STM32F4xx_HAL_Driver/Src/stm32f4xx_hal_i2c.c ****   __HAL_I2C_DISABLE_IT(hi2c, I2C_IT_EVT | I2C_IT_BUF | I2C_IT_ERR);
 6802              		.loc 1 2915 0
 6803 0008 7B68     		ldr	r3, [r7, #4]
 6804 000a 1B68     		ldr	r3, [r3]
 6805 000c 7A68     		ldr	r2, [r7, #4]
 6806 000e 1268     		ldr	r2, [r2]
 6807 0010 5268     		ldr	r2, [r2, #4]
 6808 0012 22F4E062 		bic	r2, r2, #1792
 6809 0016 5A60     		str	r2, [r3, #4]
 6810              	.LBB29:
2916:Drivers/STM32F4xx_HAL_Driver/Src/stm32f4xx_hal_i2c.c **** 
2917:Drivers/STM32F4xx_HAL_Driver/Src/stm32f4xx_hal_i2c.c ****   /* Clear STOPF flag */
2918:Drivers/STM32F4xx_HAL_Driver/Src/stm32f4xx_hal_i2c.c ****   __HAL_I2C_CLEAR_STOPFLAG(hi2c);
 6811              		.loc 1 2918 0
 6812 0018 7B68     		ldr	r3, [r7, #4]
 6813 001a 1B68     		ldr	r3, [r3]
 6814 001c 5B69     		ldr	r3, [r3, #20]
 6815 001e FB60     		str	r3, [r7, #12]
 6816 0020 7B68     		ldr	r3, [r7, #4]
 6817 0022 1B68     		ldr	r3, [r3]
 6818 0024 7A68     		ldr	r2, [r7, #4]
 6819 0026 1268     		ldr	r2, [r2]
 6820 0028 1268     		ldr	r2, [r2]
 6821 002a 42F00102 		orr	r2, r2, #1
 6822 002e 1A60     		str	r2, [r3]
 6823 0030 FB68     		ldr	r3, [r7, #12]
 6824              	.LBE29:
2919:Drivers/STM32F4xx_HAL_Driver/Src/stm32f4xx_hal_i2c.c **** 
2920:Drivers/STM32F4xx_HAL_Driver/Src/stm32f4xx_hal_i2c.c ****   /* Disable Acknowledge */
2921:Drivers/STM32F4xx_HAL_Driver/Src/stm32f4xx_hal_i2c.c ****   hi2c->Instance->CR1 &= ~I2C_CR1_ACK;
 6825              		.loc 1 2921 0
 6826 0032 7B68     		ldr	r3, [r7, #4]
 6827 0034 1B68     		ldr	r3, [r3]
 6828 0036 7A68     		ldr	r2, [r7, #4]
 6829 0038 1268     		ldr	r2, [r2]
 6830 003a 1268     		ldr	r2, [r2]
 6831 003c 22F48062 		bic	r2, r2, #1024
 6832 0040 1A60     		str	r2, [r3]
2922:Drivers/STM32F4xx_HAL_Driver/Src/stm32f4xx_hal_i2c.c **** 
2923:Drivers/STM32F4xx_HAL_Driver/Src/stm32f4xx_hal_i2c.c ****   hi2c->State = HAL_I2C_STATE_READY;
 6833              		.loc 1 2923 0
 6834 0042 7B68     		ldr	r3, [r7, #4]
 6835 0044 0122     		movs	r2, #1
 6836 0046 83F83520 		strb	r2, [r3, #53]
2924:Drivers/STM32F4xx_HAL_Driver/Src/stm32f4xx_hal_i2c.c **** 
2925:Drivers/STM32F4xx_HAL_Driver/Src/stm32f4xx_hal_i2c.c ****   HAL_I2C_SlaveRxCpltCallback(hi2c);
 6837              		.loc 1 2925 0
 6838 004a 7868     		ldr	r0, [r7, #4]
 6839 004c FFF7FEFF 		bl	HAL_I2C_SlaveRxCpltCallback
2926:Drivers/STM32F4xx_HAL_Driver/Src/stm32f4xx_hal_i2c.c **** 
2927:Drivers/STM32F4xx_HAL_Driver/Src/stm32f4xx_hal_i2c.c ****   return HAL_OK;
 6840              		.loc 1 2927 0
 6841 0050 0023     		movs	r3, #0
ARM GAS  /tmp/cc5bMm9J.s 			page 171


2928:Drivers/STM32F4xx_HAL_Driver/Src/stm32f4xx_hal_i2c.c **** }
 6842              		.loc 1 2928 0
 6843 0052 1846     		mov	r0, r3
 6844 0054 1037     		adds	r7, r7, #16
 6845 0056 BD46     		mov	sp, r7
 6846              		@ sp needed
 6847 0058 80BD     		pop	{r7, pc}
 6848              		.cfi_endproc
 6849              	.LFE168:
 6851 005a 00BF     		.section	.text.I2C_Slave_AF,"ax",%progbits
 6852              		.align	2
 6853              		.thumb
 6854              		.thumb_func
 6856              	I2C_Slave_AF:
 6857              	.LFB169:
2929:Drivers/STM32F4xx_HAL_Driver/Src/stm32f4xx_hal_i2c.c **** 
2930:Drivers/STM32F4xx_HAL_Driver/Src/stm32f4xx_hal_i2c.c **** /**
2931:Drivers/STM32F4xx_HAL_Driver/Src/stm32f4xx_hal_i2c.c ****   * @param  hi2c: pointer to a I2C_HandleTypeDef structure that contains
2932:Drivers/STM32F4xx_HAL_Driver/Src/stm32f4xx_hal_i2c.c ****   *         the configuration information for I2C module
2933:Drivers/STM32F4xx_HAL_Driver/Src/stm32f4xx_hal_i2c.c ****   * @retval HAL status
2934:Drivers/STM32F4xx_HAL_Driver/Src/stm32f4xx_hal_i2c.c ****   */
2935:Drivers/STM32F4xx_HAL_Driver/Src/stm32f4xx_hal_i2c.c **** static HAL_StatusTypeDef I2C_Slave_AF(I2C_HandleTypeDef *hi2c)
2936:Drivers/STM32F4xx_HAL_Driver/Src/stm32f4xx_hal_i2c.c **** {
 6858              		.loc 1 2936 0
 6859              		.cfi_startproc
 6860              		@ args = 0, pretend = 0, frame = 8
 6861              		@ frame_needed = 1, uses_anonymous_args = 0
 6862 0000 80B5     		push	{r7, lr}
 6863              	.LCFI132:
 6864              		.cfi_def_cfa_offset 8
 6865              		.cfi_offset 7, -8
 6866              		.cfi_offset 14, -4
 6867 0002 82B0     		sub	sp, sp, #8
 6868              	.LCFI133:
 6869              		.cfi_def_cfa_offset 16
 6870 0004 00AF     		add	r7, sp, #0
 6871              	.LCFI134:
 6872              		.cfi_def_cfa_register 7
 6873 0006 7860     		str	r0, [r7, #4]
2937:Drivers/STM32F4xx_HAL_Driver/Src/stm32f4xx_hal_i2c.c ****   /* Disable EVT, BUF and ERR interrupt */
2938:Drivers/STM32F4xx_HAL_Driver/Src/stm32f4xx_hal_i2c.c ****   __HAL_I2C_DISABLE_IT(hi2c, I2C_IT_EVT | I2C_IT_BUF | I2C_IT_ERR);
 6874              		.loc 1 2938 0
 6875 0008 7B68     		ldr	r3, [r7, #4]
 6876 000a 1B68     		ldr	r3, [r3]
 6877 000c 7A68     		ldr	r2, [r7, #4]
 6878 000e 1268     		ldr	r2, [r2]
 6879 0010 5268     		ldr	r2, [r2, #4]
 6880 0012 22F4E062 		bic	r2, r2, #1792
 6881 0016 5A60     		str	r2, [r3, #4]
2939:Drivers/STM32F4xx_HAL_Driver/Src/stm32f4xx_hal_i2c.c **** 
2940:Drivers/STM32F4xx_HAL_Driver/Src/stm32f4xx_hal_i2c.c ****   /* Clear AF flag */
2941:Drivers/STM32F4xx_HAL_Driver/Src/stm32f4xx_hal_i2c.c ****   __HAL_I2C_CLEAR_FLAG(hi2c, I2C_FLAG_AF);
 6882              		.loc 1 2941 0
 6883 0018 7B68     		ldr	r3, [r7, #4]
 6884 001a 1B68     		ldr	r3, [r3]
 6885 001c 6FF48062 		mvn	r2, #1024
 6886 0020 5A61     		str	r2, [r3, #20]
ARM GAS  /tmp/cc5bMm9J.s 			page 172


2942:Drivers/STM32F4xx_HAL_Driver/Src/stm32f4xx_hal_i2c.c **** 
2943:Drivers/STM32F4xx_HAL_Driver/Src/stm32f4xx_hal_i2c.c ****   /* Disable Acknowledge */
2944:Drivers/STM32F4xx_HAL_Driver/Src/stm32f4xx_hal_i2c.c ****   hi2c->Instance->CR1 &= ~I2C_CR1_ACK;
 6887              		.loc 1 2944 0
 6888 0022 7B68     		ldr	r3, [r7, #4]
 6889 0024 1B68     		ldr	r3, [r3]
 6890 0026 7A68     		ldr	r2, [r7, #4]
 6891 0028 1268     		ldr	r2, [r2]
 6892 002a 1268     		ldr	r2, [r2]
 6893 002c 22F48062 		bic	r2, r2, #1024
 6894 0030 1A60     		str	r2, [r3]
2945:Drivers/STM32F4xx_HAL_Driver/Src/stm32f4xx_hal_i2c.c **** 
2946:Drivers/STM32F4xx_HAL_Driver/Src/stm32f4xx_hal_i2c.c ****   hi2c->State = HAL_I2C_STATE_READY;
 6895              		.loc 1 2946 0
 6896 0032 7B68     		ldr	r3, [r7, #4]
 6897 0034 0122     		movs	r2, #1
 6898 0036 83F83520 		strb	r2, [r3, #53]
2947:Drivers/STM32F4xx_HAL_Driver/Src/stm32f4xx_hal_i2c.c **** 
2948:Drivers/STM32F4xx_HAL_Driver/Src/stm32f4xx_hal_i2c.c ****   HAL_I2C_SlaveTxCpltCallback(hi2c);
 6899              		.loc 1 2948 0
 6900 003a 7868     		ldr	r0, [r7, #4]
 6901 003c FFF7FEFF 		bl	HAL_I2C_SlaveTxCpltCallback
2949:Drivers/STM32F4xx_HAL_Driver/Src/stm32f4xx_hal_i2c.c **** 
2950:Drivers/STM32F4xx_HAL_Driver/Src/stm32f4xx_hal_i2c.c ****   return HAL_OK;
 6902              		.loc 1 2950 0
 6903 0040 0023     		movs	r3, #0
2951:Drivers/STM32F4xx_HAL_Driver/Src/stm32f4xx_hal_i2c.c **** }
 6904              		.loc 1 2951 0
 6905 0042 1846     		mov	r0, r3
 6906 0044 0837     		adds	r7, r7, #8
 6907 0046 BD46     		mov	sp, r7
 6908              		@ sp needed
 6909 0048 80BD     		pop	{r7, pc}
 6910              		.cfi_endproc
 6911              	.LFE169:
 6913 004a 00BF     		.section	.text.I2C_MasterRequestWrite,"ax",%progbits
 6914              		.align	2
 6915              		.thumb
 6916              		.thumb_func
 6918              	I2C_MasterRequestWrite:
 6919              	.LFB170:
2952:Drivers/STM32F4xx_HAL_Driver/Src/stm32f4xx_hal_i2c.c **** 
2953:Drivers/STM32F4xx_HAL_Driver/Src/stm32f4xx_hal_i2c.c **** /**
2954:Drivers/STM32F4xx_HAL_Driver/Src/stm32f4xx_hal_i2c.c ****   * @param  hi2c: pointer to a I2C_HandleTypeDef structure that contains
2955:Drivers/STM32F4xx_HAL_Driver/Src/stm32f4xx_hal_i2c.c ****   *         the configuration information for I2C module
2956:Drivers/STM32F4xx_HAL_Driver/Src/stm32f4xx_hal_i2c.c ****   * @param  DevAddress: Target device address
2957:Drivers/STM32F4xx_HAL_Driver/Src/stm32f4xx_hal_i2c.c ****   * @param  Timeout: Timeout duration
2958:Drivers/STM32F4xx_HAL_Driver/Src/stm32f4xx_hal_i2c.c ****   * @retval HAL status
2959:Drivers/STM32F4xx_HAL_Driver/Src/stm32f4xx_hal_i2c.c ****   */
2960:Drivers/STM32F4xx_HAL_Driver/Src/stm32f4xx_hal_i2c.c **** static HAL_StatusTypeDef I2C_MasterRequestWrite(I2C_HandleTypeDef *hi2c, uint16_t DevAddress, uint3
2961:Drivers/STM32F4xx_HAL_Driver/Src/stm32f4xx_hal_i2c.c **** {
 6920              		.loc 1 2961 0
 6921              		.cfi_startproc
 6922              		@ args = 0, pretend = 0, frame = 16
 6923              		@ frame_needed = 1, uses_anonymous_args = 0
 6924 0000 80B5     		push	{r7, lr}
 6925              	.LCFI135:
ARM GAS  /tmp/cc5bMm9J.s 			page 173


 6926              		.cfi_def_cfa_offset 8
 6927              		.cfi_offset 7, -8
 6928              		.cfi_offset 14, -4
 6929 0002 84B0     		sub	sp, sp, #16
 6930              	.LCFI136:
 6931              		.cfi_def_cfa_offset 24
 6932 0004 00AF     		add	r7, sp, #0
 6933              	.LCFI137:
 6934              		.cfi_def_cfa_register 7
 6935 0006 F860     		str	r0, [r7, #12]
 6936 0008 0B46     		mov	r3, r1
 6937 000a 7A60     		str	r2, [r7, #4]
 6938 000c 7B81     		strh	r3, [r7, #10]	@ movhi
2962:Drivers/STM32F4xx_HAL_Driver/Src/stm32f4xx_hal_i2c.c ****   /* Generate Start */
2963:Drivers/STM32F4xx_HAL_Driver/Src/stm32f4xx_hal_i2c.c ****   hi2c->Instance->CR1 |= I2C_CR1_START;
 6939              		.loc 1 2963 0
 6940 000e FB68     		ldr	r3, [r7, #12]
 6941 0010 1B68     		ldr	r3, [r3]
 6942 0012 FA68     		ldr	r2, [r7, #12]
 6943 0014 1268     		ldr	r2, [r2]
 6944 0016 1268     		ldr	r2, [r2]
 6945 0018 42F48072 		orr	r2, r2, #256
 6946 001c 1A60     		str	r2, [r3]
2964:Drivers/STM32F4xx_HAL_Driver/Src/stm32f4xx_hal_i2c.c **** 
2965:Drivers/STM32F4xx_HAL_Driver/Src/stm32f4xx_hal_i2c.c ****   /* Wait until SB flag is set */
2966:Drivers/STM32F4xx_HAL_Driver/Src/stm32f4xx_hal_i2c.c ****   if(I2C_WaitOnFlagUntilTimeout(hi2c, I2C_FLAG_SB, RESET, Timeout) != HAL_OK)
 6947              		.loc 1 2966 0
 6948 001e F868     		ldr	r0, [r7, #12]
 6949 0020 4FF00111 		mov	r1, #65537
 6950 0024 0022     		movs	r2, #0
 6951 0026 7B68     		ldr	r3, [r7, #4]
 6952 0028 FFF7FEFF 		bl	I2C_WaitOnFlagUntilTimeout
 6953 002c 0346     		mov	r3, r0
 6954 002e 002B     		cmp	r3, #0
 6955 0030 01D0     		beq	.L363
2967:Drivers/STM32F4xx_HAL_Driver/Src/stm32f4xx_hal_i2c.c ****   {
2968:Drivers/STM32F4xx_HAL_Driver/Src/stm32f4xx_hal_i2c.c ****     return HAL_TIMEOUT;
 6956              		.loc 1 2968 0
 6957 0032 0323     		movs	r3, #3
 6958 0034 3DE0     		b	.L364
 6959              	.L363:
2969:Drivers/STM32F4xx_HAL_Driver/Src/stm32f4xx_hal_i2c.c ****   }
2970:Drivers/STM32F4xx_HAL_Driver/Src/stm32f4xx_hal_i2c.c **** 
2971:Drivers/STM32F4xx_HAL_Driver/Src/stm32f4xx_hal_i2c.c ****   if(hi2c->Init.AddressingMode == I2C_ADDRESSINGMODE_7BIT)
 6960              		.loc 1 2971 0
 6961 0036 FB68     		ldr	r3, [r7, #12]
 6962 0038 1B69     		ldr	r3, [r3, #16]
 6963 003a B3F5804F 		cmp	r3, #16384
 6964 003e 07D1     		bne	.L365
2972:Drivers/STM32F4xx_HAL_Driver/Src/stm32f4xx_hal_i2c.c ****   {
2973:Drivers/STM32F4xx_HAL_Driver/Src/stm32f4xx_hal_i2c.c ****     /* Send slave address */
2974:Drivers/STM32F4xx_HAL_Driver/Src/stm32f4xx_hal_i2c.c ****     hi2c->Instance->DR = I2C_7BIT_ADD_WRITE(DevAddress);
 6965              		.loc 1 2974 0
 6966 0040 FB68     		ldr	r3, [r7, #12]
 6967 0042 1B68     		ldr	r3, [r3]
 6968 0044 7A89     		ldrh	r2, [r7, #10]	@ movhi
 6969 0046 D2B2     		uxtb	r2, r2
ARM GAS  /tmp/cc5bMm9J.s 			page 174


 6970 0048 02F0FE02 		and	r2, r2, #254
 6971 004c 1A61     		str	r2, [r3, #16]
 6972 004e 1FE0     		b	.L366
 6973              	.L365:
2975:Drivers/STM32F4xx_HAL_Driver/Src/stm32f4xx_hal_i2c.c ****   }
2976:Drivers/STM32F4xx_HAL_Driver/Src/stm32f4xx_hal_i2c.c ****   else
2977:Drivers/STM32F4xx_HAL_Driver/Src/stm32f4xx_hal_i2c.c ****   {
2978:Drivers/STM32F4xx_HAL_Driver/Src/stm32f4xx_hal_i2c.c ****     /* Send header of slave address */
2979:Drivers/STM32F4xx_HAL_Driver/Src/stm32f4xx_hal_i2c.c ****     hi2c->Instance->DR = I2C_10BIT_HEADER_WRITE(DevAddress);
 6974              		.loc 1 2979 0
 6975 0050 FB68     		ldr	r3, [r7, #12]
 6976 0052 1B68     		ldr	r3, [r3]
 6977 0054 7A89     		ldrh	r2, [r7, #10]
 6978 0056 02F44072 		and	r2, r2, #768
 6979 005a D211     		asrs	r2, r2, #7
 6980 005c D2B2     		uxtb	r2, r2
 6981 005e 62F00F02 		orn	r2, r2, #15
 6982 0062 D2B2     		uxtb	r2, r2
 6983 0064 1A61     		str	r2, [r3, #16]
2980:Drivers/STM32F4xx_HAL_Driver/Src/stm32f4xx_hal_i2c.c **** 
2981:Drivers/STM32F4xx_HAL_Driver/Src/stm32f4xx_hal_i2c.c ****     /* Wait until ADD10 flag is set */
2982:Drivers/STM32F4xx_HAL_Driver/Src/stm32f4xx_hal_i2c.c ****     if(I2C_WaitOnMasterAddressFlagUntilTimeout(hi2c, I2C_FLAG_ADD10, Timeout) != HAL_OK)
 6984              		.loc 1 2982 0
 6985 0066 F868     		ldr	r0, [r7, #12]
 6986 0068 1449     		ldr	r1, .L371
 6987 006a 7A68     		ldr	r2, [r7, #4]
 6988 006c FFF7FEFF 		bl	I2C_WaitOnMasterAddressFlagUntilTimeout
 6989 0070 0346     		mov	r3, r0
 6990 0072 002B     		cmp	r3, #0
 6991 0074 07D0     		beq	.L367
2983:Drivers/STM32F4xx_HAL_Driver/Src/stm32f4xx_hal_i2c.c ****     {
2984:Drivers/STM32F4xx_HAL_Driver/Src/stm32f4xx_hal_i2c.c ****       if(hi2c->ErrorCode == HAL_I2C_ERROR_AF)
 6992              		.loc 1 2984 0
 6993 0076 FB68     		ldr	r3, [r7, #12]
 6994 0078 9B6B     		ldr	r3, [r3, #56]
 6995 007a 042B     		cmp	r3, #4
 6996 007c 01D1     		bne	.L368
2985:Drivers/STM32F4xx_HAL_Driver/Src/stm32f4xx_hal_i2c.c ****       {
2986:Drivers/STM32F4xx_HAL_Driver/Src/stm32f4xx_hal_i2c.c ****         return HAL_ERROR;
 6997              		.loc 1 2986 0
 6998 007e 0123     		movs	r3, #1
 6999 0080 17E0     		b	.L364
 7000              	.L368:
2987:Drivers/STM32F4xx_HAL_Driver/Src/stm32f4xx_hal_i2c.c ****       }
2988:Drivers/STM32F4xx_HAL_Driver/Src/stm32f4xx_hal_i2c.c ****       else
2989:Drivers/STM32F4xx_HAL_Driver/Src/stm32f4xx_hal_i2c.c ****       {
2990:Drivers/STM32F4xx_HAL_Driver/Src/stm32f4xx_hal_i2c.c ****         return HAL_TIMEOUT;
 7001              		.loc 1 2990 0
 7002 0082 0323     		movs	r3, #3
 7003 0084 15E0     		b	.L364
 7004              	.L367:
2991:Drivers/STM32F4xx_HAL_Driver/Src/stm32f4xx_hal_i2c.c ****       }
2992:Drivers/STM32F4xx_HAL_Driver/Src/stm32f4xx_hal_i2c.c ****     }
2993:Drivers/STM32F4xx_HAL_Driver/Src/stm32f4xx_hal_i2c.c **** 
2994:Drivers/STM32F4xx_HAL_Driver/Src/stm32f4xx_hal_i2c.c ****     /* Send slave address */
2995:Drivers/STM32F4xx_HAL_Driver/Src/stm32f4xx_hal_i2c.c ****     hi2c->Instance->DR = I2C_10BIT_ADDRESS(DevAddress);
 7005              		.loc 1 2995 0
ARM GAS  /tmp/cc5bMm9J.s 			page 175


 7006 0086 FB68     		ldr	r3, [r7, #12]
 7007 0088 1B68     		ldr	r3, [r3]
 7008 008a 7A89     		ldrh	r2, [r7, #10]	@ movhi
 7009 008c D2B2     		uxtb	r2, r2
 7010 008e 1A61     		str	r2, [r3, #16]
 7011              	.L366:
2996:Drivers/STM32F4xx_HAL_Driver/Src/stm32f4xx_hal_i2c.c ****   }
2997:Drivers/STM32F4xx_HAL_Driver/Src/stm32f4xx_hal_i2c.c **** 
2998:Drivers/STM32F4xx_HAL_Driver/Src/stm32f4xx_hal_i2c.c ****   /* Wait until ADDR flag is set */
2999:Drivers/STM32F4xx_HAL_Driver/Src/stm32f4xx_hal_i2c.c ****   if(I2C_WaitOnMasterAddressFlagUntilTimeout(hi2c, I2C_FLAG_ADDR, Timeout) != HAL_OK)
 7012              		.loc 1 2999 0
 7013 0090 F868     		ldr	r0, [r7, #12]
 7014 0092 0B49     		ldr	r1, .L371+4
 7015 0094 7A68     		ldr	r2, [r7, #4]
 7016 0096 FFF7FEFF 		bl	I2C_WaitOnMasterAddressFlagUntilTimeout
 7017 009a 0346     		mov	r3, r0
 7018 009c 002B     		cmp	r3, #0
 7019 009e 07D0     		beq	.L369
3000:Drivers/STM32F4xx_HAL_Driver/Src/stm32f4xx_hal_i2c.c ****   {
3001:Drivers/STM32F4xx_HAL_Driver/Src/stm32f4xx_hal_i2c.c ****     if(hi2c->ErrorCode == HAL_I2C_ERROR_AF)
 7020              		.loc 1 3001 0
 7021 00a0 FB68     		ldr	r3, [r7, #12]
 7022 00a2 9B6B     		ldr	r3, [r3, #56]
 7023 00a4 042B     		cmp	r3, #4
 7024 00a6 01D1     		bne	.L370
3002:Drivers/STM32F4xx_HAL_Driver/Src/stm32f4xx_hal_i2c.c ****     {
3003:Drivers/STM32F4xx_HAL_Driver/Src/stm32f4xx_hal_i2c.c ****       return HAL_ERROR;
 7025              		.loc 1 3003 0
 7026 00a8 0123     		movs	r3, #1
 7027 00aa 02E0     		b	.L364
 7028              	.L370:
3004:Drivers/STM32F4xx_HAL_Driver/Src/stm32f4xx_hal_i2c.c ****     }
3005:Drivers/STM32F4xx_HAL_Driver/Src/stm32f4xx_hal_i2c.c ****     else
3006:Drivers/STM32F4xx_HAL_Driver/Src/stm32f4xx_hal_i2c.c ****     {
3007:Drivers/STM32F4xx_HAL_Driver/Src/stm32f4xx_hal_i2c.c ****       return HAL_TIMEOUT;
 7029              		.loc 1 3007 0
 7030 00ac 0323     		movs	r3, #3
 7031 00ae 00E0     		b	.L364
 7032              	.L369:
3008:Drivers/STM32F4xx_HAL_Driver/Src/stm32f4xx_hal_i2c.c ****     }
3009:Drivers/STM32F4xx_HAL_Driver/Src/stm32f4xx_hal_i2c.c ****   }
3010:Drivers/STM32F4xx_HAL_Driver/Src/stm32f4xx_hal_i2c.c **** 
3011:Drivers/STM32F4xx_HAL_Driver/Src/stm32f4xx_hal_i2c.c ****   return HAL_OK;
 7033              		.loc 1 3011 0
 7034 00b0 0023     		movs	r3, #0
 7035              	.L364:
3012:Drivers/STM32F4xx_HAL_Driver/Src/stm32f4xx_hal_i2c.c **** }
 7036              		.loc 1 3012 0
 7037 00b2 1846     		mov	r0, r3
 7038 00b4 1037     		adds	r7, r7, #16
 7039 00b6 BD46     		mov	sp, r7
 7040              		@ sp needed
 7041 00b8 80BD     		pop	{r7, pc}
 7042              	.L372:
 7043 00ba 00BF     		.align	2
 7044              	.L371:
 7045 00bc 08000100 		.word	65544
ARM GAS  /tmp/cc5bMm9J.s 			page 176


 7046 00c0 02000100 		.word	65538
 7047              		.cfi_endproc
 7048              	.LFE170:
 7050              		.section	.text.I2C_MasterRequestRead,"ax",%progbits
 7051              		.align	2
 7052              		.thumb
 7053              		.thumb_func
 7055              	I2C_MasterRequestRead:
 7056              	.LFB171:
3013:Drivers/STM32F4xx_HAL_Driver/Src/stm32f4xx_hal_i2c.c **** 
3014:Drivers/STM32F4xx_HAL_Driver/Src/stm32f4xx_hal_i2c.c **** /**
3015:Drivers/STM32F4xx_HAL_Driver/Src/stm32f4xx_hal_i2c.c ****   * @brief  Master sends target device address for read request.
3016:Drivers/STM32F4xx_HAL_Driver/Src/stm32f4xx_hal_i2c.c ****   * @param  hi2c: pointer to a I2C_HandleTypeDef structure that contains
3017:Drivers/STM32F4xx_HAL_Driver/Src/stm32f4xx_hal_i2c.c ****   *         the configuration information for I2C module
3018:Drivers/STM32F4xx_HAL_Driver/Src/stm32f4xx_hal_i2c.c ****   * @param  DevAddress: Target device address
3019:Drivers/STM32F4xx_HAL_Driver/Src/stm32f4xx_hal_i2c.c ****   * @param  Timeout: Timeout duration
3020:Drivers/STM32F4xx_HAL_Driver/Src/stm32f4xx_hal_i2c.c ****   * @retval HAL status
3021:Drivers/STM32F4xx_HAL_Driver/Src/stm32f4xx_hal_i2c.c ****   */
3022:Drivers/STM32F4xx_HAL_Driver/Src/stm32f4xx_hal_i2c.c **** static HAL_StatusTypeDef I2C_MasterRequestRead(I2C_HandleTypeDef *hi2c, uint16_t DevAddress, uint32
3023:Drivers/STM32F4xx_HAL_Driver/Src/stm32f4xx_hal_i2c.c **** {
 7057              		.loc 1 3023 0
 7058              		.cfi_startproc
 7059              		@ args = 0, pretend = 0, frame = 24
 7060              		@ frame_needed = 1, uses_anonymous_args = 0
 7061 0000 80B5     		push	{r7, lr}
 7062              	.LCFI138:
 7063              		.cfi_def_cfa_offset 8
 7064              		.cfi_offset 7, -8
 7065              		.cfi_offset 14, -4
 7066 0002 86B0     		sub	sp, sp, #24
 7067              	.LCFI139:
 7068              		.cfi_def_cfa_offset 32
 7069 0004 00AF     		add	r7, sp, #0
 7070              	.LCFI140:
 7071              		.cfi_def_cfa_register 7
 7072 0006 F860     		str	r0, [r7, #12]
 7073 0008 0B46     		mov	r3, r1
 7074 000a 7A60     		str	r2, [r7, #4]
 7075 000c 7B81     		strh	r3, [r7, #10]	@ movhi
3024:Drivers/STM32F4xx_HAL_Driver/Src/stm32f4xx_hal_i2c.c ****   /* Enable Acknowledge */
3025:Drivers/STM32F4xx_HAL_Driver/Src/stm32f4xx_hal_i2c.c ****   hi2c->Instance->CR1 |= I2C_CR1_ACK;
 7076              		.loc 1 3025 0
 7077 000e FB68     		ldr	r3, [r7, #12]
 7078 0010 1B68     		ldr	r3, [r3]
 7079 0012 FA68     		ldr	r2, [r7, #12]
 7080 0014 1268     		ldr	r2, [r2]
 7081 0016 1268     		ldr	r2, [r2]
 7082 0018 42F48062 		orr	r2, r2, #1024
 7083 001c 1A60     		str	r2, [r3]
3026:Drivers/STM32F4xx_HAL_Driver/Src/stm32f4xx_hal_i2c.c **** 
3027:Drivers/STM32F4xx_HAL_Driver/Src/stm32f4xx_hal_i2c.c ****   /* Generate Start */
3028:Drivers/STM32F4xx_HAL_Driver/Src/stm32f4xx_hal_i2c.c ****   hi2c->Instance->CR1 |= I2C_CR1_START;
 7084              		.loc 1 3028 0
 7085 001e FB68     		ldr	r3, [r7, #12]
 7086 0020 1B68     		ldr	r3, [r3]
 7087 0022 FA68     		ldr	r2, [r7, #12]
 7088 0024 1268     		ldr	r2, [r2]
ARM GAS  /tmp/cc5bMm9J.s 			page 177


 7089 0026 1268     		ldr	r2, [r2]
 7090 0028 42F48072 		orr	r2, r2, #256
 7091 002c 1A60     		str	r2, [r3]
3029:Drivers/STM32F4xx_HAL_Driver/Src/stm32f4xx_hal_i2c.c **** 
3030:Drivers/STM32F4xx_HAL_Driver/Src/stm32f4xx_hal_i2c.c ****   /* Wait until SB flag is set */
3031:Drivers/STM32F4xx_HAL_Driver/Src/stm32f4xx_hal_i2c.c ****   if(I2C_WaitOnFlagUntilTimeout(hi2c, I2C_FLAG_SB, RESET, Timeout) != HAL_OK)
 7092              		.loc 1 3031 0
 7093 002e F868     		ldr	r0, [r7, #12]
 7094 0030 4FF00111 		mov	r1, #65537
 7095 0034 0022     		movs	r2, #0
 7096 0036 7B68     		ldr	r3, [r7, #4]
 7097 0038 FFF7FEFF 		bl	I2C_WaitOnFlagUntilTimeout
 7098 003c 0346     		mov	r3, r0
 7099 003e 002B     		cmp	r3, #0
 7100 0040 01D0     		beq	.L374
3032:Drivers/STM32F4xx_HAL_Driver/Src/stm32f4xx_hal_i2c.c ****   {
3033:Drivers/STM32F4xx_HAL_Driver/Src/stm32f4xx_hal_i2c.c ****     return HAL_TIMEOUT;
 7101              		.loc 1 3033 0
 7102 0042 0323     		movs	r3, #3
 7103 0044 76E0     		b	.L375
 7104              	.L374:
3034:Drivers/STM32F4xx_HAL_Driver/Src/stm32f4xx_hal_i2c.c ****   }
3035:Drivers/STM32F4xx_HAL_Driver/Src/stm32f4xx_hal_i2c.c **** 
3036:Drivers/STM32F4xx_HAL_Driver/Src/stm32f4xx_hal_i2c.c ****   if(hi2c->Init.AddressingMode == I2C_ADDRESSINGMODE_7BIT)
 7105              		.loc 1 3036 0
 7106 0046 FB68     		ldr	r3, [r7, #12]
 7107 0048 1B69     		ldr	r3, [r3, #16]
 7108 004a B3F5804F 		cmp	r3, #16384
 7109 004e 08D1     		bne	.L376
3037:Drivers/STM32F4xx_HAL_Driver/Src/stm32f4xx_hal_i2c.c ****   {
3038:Drivers/STM32F4xx_HAL_Driver/Src/stm32f4xx_hal_i2c.c ****     /* Send slave address */
3039:Drivers/STM32F4xx_HAL_Driver/Src/stm32f4xx_hal_i2c.c ****     hi2c->Instance->DR = I2C_7BIT_ADD_READ(DevAddress);
 7110              		.loc 1 3039 0
 7111 0050 FB68     		ldr	r3, [r7, #12]
 7112 0052 1B68     		ldr	r3, [r3]
 7113 0054 7A89     		ldrh	r2, [r7, #10]	@ movhi
 7114 0056 D2B2     		uxtb	r2, r2
 7115 0058 42F00102 		orr	r2, r2, #1
 7116 005c D2B2     		uxtb	r2, r2
 7117 005e 1A61     		str	r2, [r3, #16]
 7118 0060 57E0     		b	.L377
 7119              	.L376:
3040:Drivers/STM32F4xx_HAL_Driver/Src/stm32f4xx_hal_i2c.c ****   }
3041:Drivers/STM32F4xx_HAL_Driver/Src/stm32f4xx_hal_i2c.c ****   else
3042:Drivers/STM32F4xx_HAL_Driver/Src/stm32f4xx_hal_i2c.c ****   {
3043:Drivers/STM32F4xx_HAL_Driver/Src/stm32f4xx_hal_i2c.c ****     /* Send header of slave address */
3044:Drivers/STM32F4xx_HAL_Driver/Src/stm32f4xx_hal_i2c.c ****     hi2c->Instance->DR = I2C_10BIT_HEADER_WRITE(DevAddress);
 7120              		.loc 1 3044 0
 7121 0062 FB68     		ldr	r3, [r7, #12]
 7122 0064 1B68     		ldr	r3, [r3]
 7123 0066 7A89     		ldrh	r2, [r7, #10]
 7124 0068 02F44072 		and	r2, r2, #768
 7125 006c D211     		asrs	r2, r2, #7
 7126 006e D2B2     		uxtb	r2, r2
 7127 0070 62F00F02 		orn	r2, r2, #15
 7128 0074 D2B2     		uxtb	r2, r2
 7129 0076 1A61     		str	r2, [r3, #16]
ARM GAS  /tmp/cc5bMm9J.s 			page 178


3045:Drivers/STM32F4xx_HAL_Driver/Src/stm32f4xx_hal_i2c.c **** 
3046:Drivers/STM32F4xx_HAL_Driver/Src/stm32f4xx_hal_i2c.c ****     /* Wait until ADD10 flag is set */
3047:Drivers/STM32F4xx_HAL_Driver/Src/stm32f4xx_hal_i2c.c ****     if(I2C_WaitOnMasterAddressFlagUntilTimeout(hi2c, I2C_FLAG_ADD10, Timeout) != HAL_OK)
 7130              		.loc 1 3047 0
 7131 0078 F868     		ldr	r0, [r7, #12]
 7132 007a 3049     		ldr	r1, .L385
 7133 007c 7A68     		ldr	r2, [r7, #4]
 7134 007e FFF7FEFF 		bl	I2C_WaitOnMasterAddressFlagUntilTimeout
 7135 0082 0346     		mov	r3, r0
 7136 0084 002B     		cmp	r3, #0
 7137 0086 07D0     		beq	.L378
3048:Drivers/STM32F4xx_HAL_Driver/Src/stm32f4xx_hal_i2c.c ****     {
3049:Drivers/STM32F4xx_HAL_Driver/Src/stm32f4xx_hal_i2c.c ****       if(hi2c->ErrorCode == HAL_I2C_ERROR_AF)
 7138              		.loc 1 3049 0
 7139 0088 FB68     		ldr	r3, [r7, #12]
 7140 008a 9B6B     		ldr	r3, [r3, #56]
 7141 008c 042B     		cmp	r3, #4
 7142 008e 01D1     		bne	.L379
3050:Drivers/STM32F4xx_HAL_Driver/Src/stm32f4xx_hal_i2c.c ****       {
3051:Drivers/STM32F4xx_HAL_Driver/Src/stm32f4xx_hal_i2c.c ****         return HAL_ERROR;
 7143              		.loc 1 3051 0
 7144 0090 0123     		movs	r3, #1
 7145 0092 4FE0     		b	.L375
 7146              	.L379:
3052:Drivers/STM32F4xx_HAL_Driver/Src/stm32f4xx_hal_i2c.c ****       }
3053:Drivers/STM32F4xx_HAL_Driver/Src/stm32f4xx_hal_i2c.c ****       else
3054:Drivers/STM32F4xx_HAL_Driver/Src/stm32f4xx_hal_i2c.c ****       {
3055:Drivers/STM32F4xx_HAL_Driver/Src/stm32f4xx_hal_i2c.c ****         return HAL_TIMEOUT;
 7147              		.loc 1 3055 0
 7148 0094 0323     		movs	r3, #3
 7149 0096 4DE0     		b	.L375
 7150              	.L378:
3056:Drivers/STM32F4xx_HAL_Driver/Src/stm32f4xx_hal_i2c.c ****       }
3057:Drivers/STM32F4xx_HAL_Driver/Src/stm32f4xx_hal_i2c.c ****     }
3058:Drivers/STM32F4xx_HAL_Driver/Src/stm32f4xx_hal_i2c.c **** 
3059:Drivers/STM32F4xx_HAL_Driver/Src/stm32f4xx_hal_i2c.c ****     /* Send slave address */
3060:Drivers/STM32F4xx_HAL_Driver/Src/stm32f4xx_hal_i2c.c ****     hi2c->Instance->DR = I2C_10BIT_ADDRESS(DevAddress);
 7151              		.loc 1 3060 0
 7152 0098 FB68     		ldr	r3, [r7, #12]
 7153 009a 1B68     		ldr	r3, [r3]
 7154 009c 7A89     		ldrh	r2, [r7, #10]	@ movhi
 7155 009e D2B2     		uxtb	r2, r2
 7156 00a0 1A61     		str	r2, [r3, #16]
3061:Drivers/STM32F4xx_HAL_Driver/Src/stm32f4xx_hal_i2c.c **** 
3062:Drivers/STM32F4xx_HAL_Driver/Src/stm32f4xx_hal_i2c.c ****     /* Wait until ADDR flag is set */
3063:Drivers/STM32F4xx_HAL_Driver/Src/stm32f4xx_hal_i2c.c ****     if(I2C_WaitOnMasterAddressFlagUntilTimeout(hi2c, I2C_FLAG_ADDR, Timeout) != HAL_OK)
 7157              		.loc 1 3063 0
 7158 00a2 F868     		ldr	r0, [r7, #12]
 7159 00a4 2649     		ldr	r1, .L385+4
 7160 00a6 7A68     		ldr	r2, [r7, #4]
 7161 00a8 FFF7FEFF 		bl	I2C_WaitOnMasterAddressFlagUntilTimeout
 7162 00ac 0346     		mov	r3, r0
 7163 00ae 002B     		cmp	r3, #0
 7164 00b0 07D0     		beq	.L380
3064:Drivers/STM32F4xx_HAL_Driver/Src/stm32f4xx_hal_i2c.c ****     {
3065:Drivers/STM32F4xx_HAL_Driver/Src/stm32f4xx_hal_i2c.c ****       if(hi2c->ErrorCode == HAL_I2C_ERROR_AF)
 7165              		.loc 1 3065 0
ARM GAS  /tmp/cc5bMm9J.s 			page 179


 7166 00b2 FB68     		ldr	r3, [r7, #12]
 7167 00b4 9B6B     		ldr	r3, [r3, #56]
 7168 00b6 042B     		cmp	r3, #4
 7169 00b8 01D1     		bne	.L381
3066:Drivers/STM32F4xx_HAL_Driver/Src/stm32f4xx_hal_i2c.c ****       {
3067:Drivers/STM32F4xx_HAL_Driver/Src/stm32f4xx_hal_i2c.c ****         return HAL_ERROR;
 7170              		.loc 1 3067 0
 7171 00ba 0123     		movs	r3, #1
 7172 00bc 3AE0     		b	.L375
 7173              	.L381:
3068:Drivers/STM32F4xx_HAL_Driver/Src/stm32f4xx_hal_i2c.c ****       }
3069:Drivers/STM32F4xx_HAL_Driver/Src/stm32f4xx_hal_i2c.c ****       else
3070:Drivers/STM32F4xx_HAL_Driver/Src/stm32f4xx_hal_i2c.c ****       {
3071:Drivers/STM32F4xx_HAL_Driver/Src/stm32f4xx_hal_i2c.c ****         return HAL_TIMEOUT;
 7174              		.loc 1 3071 0
 7175 00be 0323     		movs	r3, #3
 7176 00c0 38E0     		b	.L375
 7177              	.L380:
 7178              	.LBB30:
3072:Drivers/STM32F4xx_HAL_Driver/Src/stm32f4xx_hal_i2c.c ****       }
3073:Drivers/STM32F4xx_HAL_Driver/Src/stm32f4xx_hal_i2c.c ****     }
3074:Drivers/STM32F4xx_HAL_Driver/Src/stm32f4xx_hal_i2c.c **** 
3075:Drivers/STM32F4xx_HAL_Driver/Src/stm32f4xx_hal_i2c.c ****     /* Clear ADDR flag */
3076:Drivers/STM32F4xx_HAL_Driver/Src/stm32f4xx_hal_i2c.c ****     __HAL_I2C_CLEAR_ADDRFLAG(hi2c);
 7179              		.loc 1 3076 0
 7180 00c2 FB68     		ldr	r3, [r7, #12]
 7181 00c4 1B68     		ldr	r3, [r3]
 7182 00c6 5B69     		ldr	r3, [r3, #20]
 7183 00c8 7B61     		str	r3, [r7, #20]
 7184 00ca FB68     		ldr	r3, [r7, #12]
 7185 00cc 1B68     		ldr	r3, [r3]
 7186 00ce 9B69     		ldr	r3, [r3, #24]
 7187 00d0 7B61     		str	r3, [r7, #20]
 7188 00d2 7B69     		ldr	r3, [r7, #20]
 7189              	.LBE30:
3077:Drivers/STM32F4xx_HAL_Driver/Src/stm32f4xx_hal_i2c.c **** 
3078:Drivers/STM32F4xx_HAL_Driver/Src/stm32f4xx_hal_i2c.c ****     /* Generate Restart */
3079:Drivers/STM32F4xx_HAL_Driver/Src/stm32f4xx_hal_i2c.c ****     hi2c->Instance->CR1 |= I2C_CR1_START;
 7190              		.loc 1 3079 0
 7191 00d4 FB68     		ldr	r3, [r7, #12]
 7192 00d6 1B68     		ldr	r3, [r3]
 7193 00d8 FA68     		ldr	r2, [r7, #12]
 7194 00da 1268     		ldr	r2, [r2]
 7195 00dc 1268     		ldr	r2, [r2]
 7196 00de 42F48072 		orr	r2, r2, #256
 7197 00e2 1A60     		str	r2, [r3]
3080:Drivers/STM32F4xx_HAL_Driver/Src/stm32f4xx_hal_i2c.c **** 
3081:Drivers/STM32F4xx_HAL_Driver/Src/stm32f4xx_hal_i2c.c ****     /* Wait until SB flag is set */
3082:Drivers/STM32F4xx_HAL_Driver/Src/stm32f4xx_hal_i2c.c ****     if(I2C_WaitOnFlagUntilTimeout(hi2c, I2C_FLAG_SB, RESET, Timeout) != HAL_OK)
 7198              		.loc 1 3082 0
 7199 00e4 F868     		ldr	r0, [r7, #12]
 7200 00e6 4FF00111 		mov	r1, #65537
 7201 00ea 0022     		movs	r2, #0
 7202 00ec 7B68     		ldr	r3, [r7, #4]
 7203 00ee FFF7FEFF 		bl	I2C_WaitOnFlagUntilTimeout
 7204 00f2 0346     		mov	r3, r0
 7205 00f4 002B     		cmp	r3, #0
ARM GAS  /tmp/cc5bMm9J.s 			page 180


 7206 00f6 01D0     		beq	.L382
3083:Drivers/STM32F4xx_HAL_Driver/Src/stm32f4xx_hal_i2c.c ****     {
3084:Drivers/STM32F4xx_HAL_Driver/Src/stm32f4xx_hal_i2c.c ****       return HAL_TIMEOUT;
 7207              		.loc 1 3084 0
 7208 00f8 0323     		movs	r3, #3
 7209 00fa 1BE0     		b	.L375
 7210              	.L382:
3085:Drivers/STM32F4xx_HAL_Driver/Src/stm32f4xx_hal_i2c.c ****     }
3086:Drivers/STM32F4xx_HAL_Driver/Src/stm32f4xx_hal_i2c.c **** 
3087:Drivers/STM32F4xx_HAL_Driver/Src/stm32f4xx_hal_i2c.c ****     /* Send header of slave address */
3088:Drivers/STM32F4xx_HAL_Driver/Src/stm32f4xx_hal_i2c.c ****     hi2c->Instance->DR = I2C_10BIT_HEADER_READ(DevAddress);
 7211              		.loc 1 3088 0
 7212 00fc FB68     		ldr	r3, [r7, #12]
 7213 00fe 1B68     		ldr	r3, [r3]
 7214 0100 7A89     		ldrh	r2, [r7, #10]
 7215 0102 02F44072 		and	r2, r2, #768
 7216 0106 D211     		asrs	r2, r2, #7
 7217 0108 D2B2     		uxtb	r2, r2
 7218 010a 62F00E02 		orn	r2, r2, #14
 7219 010e D2B2     		uxtb	r2, r2
 7220 0110 1A61     		str	r2, [r3, #16]
 7221              	.L377:
3089:Drivers/STM32F4xx_HAL_Driver/Src/stm32f4xx_hal_i2c.c ****   }
3090:Drivers/STM32F4xx_HAL_Driver/Src/stm32f4xx_hal_i2c.c **** 
3091:Drivers/STM32F4xx_HAL_Driver/Src/stm32f4xx_hal_i2c.c ****   /* Wait until ADDR flag is set */
3092:Drivers/STM32F4xx_HAL_Driver/Src/stm32f4xx_hal_i2c.c ****   if(I2C_WaitOnMasterAddressFlagUntilTimeout(hi2c, I2C_FLAG_ADDR, Timeout) != HAL_OK)
 7222              		.loc 1 3092 0
 7223 0112 F868     		ldr	r0, [r7, #12]
 7224 0114 0A49     		ldr	r1, .L385+4
 7225 0116 7A68     		ldr	r2, [r7, #4]
 7226 0118 FFF7FEFF 		bl	I2C_WaitOnMasterAddressFlagUntilTimeout
 7227 011c 0346     		mov	r3, r0
 7228 011e 002B     		cmp	r3, #0
 7229 0120 07D0     		beq	.L383
3093:Drivers/STM32F4xx_HAL_Driver/Src/stm32f4xx_hal_i2c.c ****   {
3094:Drivers/STM32F4xx_HAL_Driver/Src/stm32f4xx_hal_i2c.c ****     if(hi2c->ErrorCode == HAL_I2C_ERROR_AF)
 7230              		.loc 1 3094 0
 7231 0122 FB68     		ldr	r3, [r7, #12]
 7232 0124 9B6B     		ldr	r3, [r3, #56]
 7233 0126 042B     		cmp	r3, #4
 7234 0128 01D1     		bne	.L384
3095:Drivers/STM32F4xx_HAL_Driver/Src/stm32f4xx_hal_i2c.c ****     {
3096:Drivers/STM32F4xx_HAL_Driver/Src/stm32f4xx_hal_i2c.c ****       return HAL_ERROR;
 7235              		.loc 1 3096 0
 7236 012a 0123     		movs	r3, #1
 7237 012c 02E0     		b	.L375
 7238              	.L384:
3097:Drivers/STM32F4xx_HAL_Driver/Src/stm32f4xx_hal_i2c.c ****     }
3098:Drivers/STM32F4xx_HAL_Driver/Src/stm32f4xx_hal_i2c.c ****     else
3099:Drivers/STM32F4xx_HAL_Driver/Src/stm32f4xx_hal_i2c.c ****     {
3100:Drivers/STM32F4xx_HAL_Driver/Src/stm32f4xx_hal_i2c.c ****       return HAL_TIMEOUT;
 7239              		.loc 1 3100 0
 7240 012e 0323     		movs	r3, #3
 7241 0130 00E0     		b	.L375
 7242              	.L383:
3101:Drivers/STM32F4xx_HAL_Driver/Src/stm32f4xx_hal_i2c.c ****     }
3102:Drivers/STM32F4xx_HAL_Driver/Src/stm32f4xx_hal_i2c.c ****   }
ARM GAS  /tmp/cc5bMm9J.s 			page 181


3103:Drivers/STM32F4xx_HAL_Driver/Src/stm32f4xx_hal_i2c.c **** 
3104:Drivers/STM32F4xx_HAL_Driver/Src/stm32f4xx_hal_i2c.c ****   return HAL_OK;
 7243              		.loc 1 3104 0
 7244 0132 0023     		movs	r3, #0
 7245              	.L375:
3105:Drivers/STM32F4xx_HAL_Driver/Src/stm32f4xx_hal_i2c.c **** }
 7246              		.loc 1 3105 0
 7247 0134 1846     		mov	r0, r3
 7248 0136 1837     		adds	r7, r7, #24
 7249 0138 BD46     		mov	sp, r7
 7250              		@ sp needed
 7251 013a 80BD     		pop	{r7, pc}
 7252              	.L386:
 7253              		.align	2
 7254              	.L385:
 7255 013c 08000100 		.word	65544
 7256 0140 02000100 		.word	65538
 7257              		.cfi_endproc
 7258              	.LFE171:
 7260              		.section	.text.I2C_RequestMemoryWrite,"ax",%progbits
 7261              		.align	2
 7262              		.thumb
 7263              		.thumb_func
 7265              	I2C_RequestMemoryWrite:
 7266              	.LFB172:
3106:Drivers/STM32F4xx_HAL_Driver/Src/stm32f4xx_hal_i2c.c **** 
3107:Drivers/STM32F4xx_HAL_Driver/Src/stm32f4xx_hal_i2c.c **** /**
3108:Drivers/STM32F4xx_HAL_Driver/Src/stm32f4xx_hal_i2c.c ****   * @brief  Master sends target device address followed by internal memory address for write reques
3109:Drivers/STM32F4xx_HAL_Driver/Src/stm32f4xx_hal_i2c.c ****   * @param  hi2c: pointer to a I2C_HandleTypeDef structure that contains
3110:Drivers/STM32F4xx_HAL_Driver/Src/stm32f4xx_hal_i2c.c ****   *         the configuration information for I2C module
3111:Drivers/STM32F4xx_HAL_Driver/Src/stm32f4xx_hal_i2c.c ****   * @param  DevAddress: Target device address
3112:Drivers/STM32F4xx_HAL_Driver/Src/stm32f4xx_hal_i2c.c ****   * @param  MemAddress: Internal memory address
3113:Drivers/STM32F4xx_HAL_Driver/Src/stm32f4xx_hal_i2c.c ****   * @param  MemAddSize: Size of internal memory address
3114:Drivers/STM32F4xx_HAL_Driver/Src/stm32f4xx_hal_i2c.c ****   * @param  Timeout: Timeout duration
3115:Drivers/STM32F4xx_HAL_Driver/Src/stm32f4xx_hal_i2c.c ****   * @retval HAL status
3116:Drivers/STM32F4xx_HAL_Driver/Src/stm32f4xx_hal_i2c.c ****   */
3117:Drivers/STM32F4xx_HAL_Driver/Src/stm32f4xx_hal_i2c.c **** static HAL_StatusTypeDef I2C_RequestMemoryWrite(I2C_HandleTypeDef *hi2c, uint16_t DevAddress, uint1
3118:Drivers/STM32F4xx_HAL_Driver/Src/stm32f4xx_hal_i2c.c **** {
 7267              		.loc 1 3118 0
 7268              		.cfi_startproc
 7269              		@ args = 4, pretend = 0, frame = 24
 7270              		@ frame_needed = 1, uses_anonymous_args = 0
 7271 0000 80B5     		push	{r7, lr}
 7272              	.LCFI141:
 7273              		.cfi_def_cfa_offset 8
 7274              		.cfi_offset 7, -8
 7275              		.cfi_offset 14, -4
 7276 0002 86B0     		sub	sp, sp, #24
 7277              	.LCFI142:
 7278              		.cfi_def_cfa_offset 32
 7279 0004 00AF     		add	r7, sp, #0
 7280              	.LCFI143:
 7281              		.cfi_def_cfa_register 7
 7282 0006 F860     		str	r0, [r7, #12]
 7283 0008 7981     		strh	r1, [r7, #10]	@ movhi
 7284 000a 3A81     		strh	r2, [r7, #8]	@ movhi
 7285 000c FB80     		strh	r3, [r7, #6]	@ movhi
ARM GAS  /tmp/cc5bMm9J.s 			page 182


3119:Drivers/STM32F4xx_HAL_Driver/Src/stm32f4xx_hal_i2c.c ****   /* Generate Start */
3120:Drivers/STM32F4xx_HAL_Driver/Src/stm32f4xx_hal_i2c.c ****   hi2c->Instance->CR1 |= I2C_CR1_START;
 7286              		.loc 1 3120 0
 7287 000e FB68     		ldr	r3, [r7, #12]
 7288 0010 1B68     		ldr	r3, [r3]
 7289 0012 FA68     		ldr	r2, [r7, #12]
 7290 0014 1268     		ldr	r2, [r2]
 7291 0016 1268     		ldr	r2, [r2]
 7292 0018 42F48072 		orr	r2, r2, #256
 7293 001c 1A60     		str	r2, [r3]
3121:Drivers/STM32F4xx_HAL_Driver/Src/stm32f4xx_hal_i2c.c **** 
3122:Drivers/STM32F4xx_HAL_Driver/Src/stm32f4xx_hal_i2c.c ****   /* Wait until SB flag is set */
3123:Drivers/STM32F4xx_HAL_Driver/Src/stm32f4xx_hal_i2c.c ****   if(I2C_WaitOnFlagUntilTimeout(hi2c, I2C_FLAG_SB, RESET, Timeout) != HAL_OK)
 7294              		.loc 1 3123 0
 7295 001e F868     		ldr	r0, [r7, #12]
 7296 0020 4FF00111 		mov	r1, #65537
 7297 0024 0022     		movs	r2, #0
 7298 0026 3B6A     		ldr	r3, [r7, #32]
 7299 0028 FFF7FEFF 		bl	I2C_WaitOnFlagUntilTimeout
 7300 002c 0346     		mov	r3, r0
 7301 002e 002B     		cmp	r3, #0
 7302 0030 01D0     		beq	.L388
3124:Drivers/STM32F4xx_HAL_Driver/Src/stm32f4xx_hal_i2c.c ****   {
3125:Drivers/STM32F4xx_HAL_Driver/Src/stm32f4xx_hal_i2c.c ****     return HAL_TIMEOUT;
 7303              		.loc 1 3125 0
 7304 0032 0323     		movs	r3, #3
 7305 0034 4BE0     		b	.L389
 7306              	.L388:
3126:Drivers/STM32F4xx_HAL_Driver/Src/stm32f4xx_hal_i2c.c ****   }
3127:Drivers/STM32F4xx_HAL_Driver/Src/stm32f4xx_hal_i2c.c **** 
3128:Drivers/STM32F4xx_HAL_Driver/Src/stm32f4xx_hal_i2c.c ****   /* Send slave address */
3129:Drivers/STM32F4xx_HAL_Driver/Src/stm32f4xx_hal_i2c.c ****   hi2c->Instance->DR = I2C_7BIT_ADD_WRITE(DevAddress);
 7307              		.loc 1 3129 0
 7308 0036 FB68     		ldr	r3, [r7, #12]
 7309 0038 1B68     		ldr	r3, [r3]
 7310 003a 7A89     		ldrh	r2, [r7, #10]	@ movhi
 7311 003c D2B2     		uxtb	r2, r2
 7312 003e 02F0FE02 		and	r2, r2, #254
 7313 0042 1A61     		str	r2, [r3, #16]
3130:Drivers/STM32F4xx_HAL_Driver/Src/stm32f4xx_hal_i2c.c **** 
3131:Drivers/STM32F4xx_HAL_Driver/Src/stm32f4xx_hal_i2c.c ****   /* Wait until ADDR flag is set */
3132:Drivers/STM32F4xx_HAL_Driver/Src/stm32f4xx_hal_i2c.c ****   if(I2C_WaitOnMasterAddressFlagUntilTimeout(hi2c, I2C_FLAG_ADDR, Timeout) != HAL_OK)
 7314              		.loc 1 3132 0
 7315 0044 F868     		ldr	r0, [r7, #12]
 7316 0046 2449     		ldr	r1, .L396
 7317 0048 3A6A     		ldr	r2, [r7, #32]
 7318 004a FFF7FEFF 		bl	I2C_WaitOnMasterAddressFlagUntilTimeout
 7319 004e 0346     		mov	r3, r0
 7320 0050 002B     		cmp	r3, #0
 7321 0052 07D0     		beq	.L390
3133:Drivers/STM32F4xx_HAL_Driver/Src/stm32f4xx_hal_i2c.c ****   {
3134:Drivers/STM32F4xx_HAL_Driver/Src/stm32f4xx_hal_i2c.c ****     if(hi2c->ErrorCode == HAL_I2C_ERROR_AF)
 7322              		.loc 1 3134 0
 7323 0054 FB68     		ldr	r3, [r7, #12]
 7324 0056 9B6B     		ldr	r3, [r3, #56]
 7325 0058 042B     		cmp	r3, #4
 7326 005a 01D1     		bne	.L391
ARM GAS  /tmp/cc5bMm9J.s 			page 183


3135:Drivers/STM32F4xx_HAL_Driver/Src/stm32f4xx_hal_i2c.c ****     {
3136:Drivers/STM32F4xx_HAL_Driver/Src/stm32f4xx_hal_i2c.c ****       return HAL_ERROR;
 7327              		.loc 1 3136 0
 7328 005c 0123     		movs	r3, #1
 7329 005e 36E0     		b	.L389
 7330              	.L391:
3137:Drivers/STM32F4xx_HAL_Driver/Src/stm32f4xx_hal_i2c.c ****     }
3138:Drivers/STM32F4xx_HAL_Driver/Src/stm32f4xx_hal_i2c.c ****     else
3139:Drivers/STM32F4xx_HAL_Driver/Src/stm32f4xx_hal_i2c.c ****     {
3140:Drivers/STM32F4xx_HAL_Driver/Src/stm32f4xx_hal_i2c.c ****       return HAL_TIMEOUT;
 7331              		.loc 1 3140 0
 7332 0060 0323     		movs	r3, #3
 7333 0062 34E0     		b	.L389
 7334              	.L390:
 7335              	.LBB31:
3141:Drivers/STM32F4xx_HAL_Driver/Src/stm32f4xx_hal_i2c.c ****     }
3142:Drivers/STM32F4xx_HAL_Driver/Src/stm32f4xx_hal_i2c.c ****   }
3143:Drivers/STM32F4xx_HAL_Driver/Src/stm32f4xx_hal_i2c.c **** 
3144:Drivers/STM32F4xx_HAL_Driver/Src/stm32f4xx_hal_i2c.c ****   /* Clear ADDR flag */
3145:Drivers/STM32F4xx_HAL_Driver/Src/stm32f4xx_hal_i2c.c ****   __HAL_I2C_CLEAR_ADDRFLAG(hi2c);
 7336              		.loc 1 3145 0
 7337 0064 FB68     		ldr	r3, [r7, #12]
 7338 0066 1B68     		ldr	r3, [r3]
 7339 0068 5B69     		ldr	r3, [r3, #20]
 7340 006a 7B61     		str	r3, [r7, #20]
 7341 006c FB68     		ldr	r3, [r7, #12]
 7342 006e 1B68     		ldr	r3, [r3]
 7343 0070 9B69     		ldr	r3, [r3, #24]
 7344 0072 7B61     		str	r3, [r7, #20]
 7345 0074 7B69     		ldr	r3, [r7, #20]
 7346              	.LBE31:
3146:Drivers/STM32F4xx_HAL_Driver/Src/stm32f4xx_hal_i2c.c **** 
3147:Drivers/STM32F4xx_HAL_Driver/Src/stm32f4xx_hal_i2c.c ****   /* Wait until TXE flag is set */
3148:Drivers/STM32F4xx_HAL_Driver/Src/stm32f4xx_hal_i2c.c ****   if(I2C_WaitOnFlagUntilTimeout(hi2c, I2C_FLAG_TXE, RESET, Timeout) != HAL_OK)
 7347              		.loc 1 3148 0
 7348 0076 F868     		ldr	r0, [r7, #12]
 7349 0078 1849     		ldr	r1, .L396+4
 7350 007a 0022     		movs	r2, #0
 7351 007c 3B6A     		ldr	r3, [r7, #32]
 7352 007e FFF7FEFF 		bl	I2C_WaitOnFlagUntilTimeout
 7353 0082 0346     		mov	r3, r0
 7354 0084 002B     		cmp	r3, #0
 7355 0086 01D0     		beq	.L392
3149:Drivers/STM32F4xx_HAL_Driver/Src/stm32f4xx_hal_i2c.c ****   {
3150:Drivers/STM32F4xx_HAL_Driver/Src/stm32f4xx_hal_i2c.c ****     return HAL_TIMEOUT;
 7356              		.loc 1 3150 0
 7357 0088 0323     		movs	r3, #3
 7358 008a 20E0     		b	.L389
 7359              	.L392:
3151:Drivers/STM32F4xx_HAL_Driver/Src/stm32f4xx_hal_i2c.c ****   }
3152:Drivers/STM32F4xx_HAL_Driver/Src/stm32f4xx_hal_i2c.c **** 
3153:Drivers/STM32F4xx_HAL_Driver/Src/stm32f4xx_hal_i2c.c ****   /* If Memory address size is 8Bit */
3154:Drivers/STM32F4xx_HAL_Driver/Src/stm32f4xx_hal_i2c.c ****   if(MemAddSize == I2C_MEMADD_SIZE_8BIT)
 7360              		.loc 1 3154 0
 7361 008c FB88     		ldrh	r3, [r7, #6]
 7362 008e 012B     		cmp	r3, #1
 7363 0090 05D1     		bne	.L393
ARM GAS  /tmp/cc5bMm9J.s 			page 184


3155:Drivers/STM32F4xx_HAL_Driver/Src/stm32f4xx_hal_i2c.c ****   {
3156:Drivers/STM32F4xx_HAL_Driver/Src/stm32f4xx_hal_i2c.c ****     /* Send Memory Address */
3157:Drivers/STM32F4xx_HAL_Driver/Src/stm32f4xx_hal_i2c.c ****     hi2c->Instance->DR = I2C_MEM_ADD_LSB(MemAddress);
 7364              		.loc 1 3157 0
 7365 0092 FB68     		ldr	r3, [r7, #12]
 7366 0094 1B68     		ldr	r3, [r3]
 7367 0096 3A89     		ldrh	r2, [r7, #8]	@ movhi
 7368 0098 D2B2     		uxtb	r2, r2
 7369 009a 1A61     		str	r2, [r3, #16]
 7370 009c 16E0     		b	.L394
 7371              	.L393:
3158:Drivers/STM32F4xx_HAL_Driver/Src/stm32f4xx_hal_i2c.c ****   }
3159:Drivers/STM32F4xx_HAL_Driver/Src/stm32f4xx_hal_i2c.c ****   /* If Memory address size is 16Bit */
3160:Drivers/STM32F4xx_HAL_Driver/Src/stm32f4xx_hal_i2c.c ****   else
3161:Drivers/STM32F4xx_HAL_Driver/Src/stm32f4xx_hal_i2c.c ****   {
3162:Drivers/STM32F4xx_HAL_Driver/Src/stm32f4xx_hal_i2c.c ****     /* Send MSB of Memory Address */
3163:Drivers/STM32F4xx_HAL_Driver/Src/stm32f4xx_hal_i2c.c ****     hi2c->Instance->DR = I2C_MEM_ADD_MSB(MemAddress);
 7372              		.loc 1 3163 0
 7373 009e FB68     		ldr	r3, [r7, #12]
 7374 00a0 1B68     		ldr	r3, [r3]
 7375 00a2 3A89     		ldrh	r2, [r7, #8]
 7376 00a4 120A     		lsrs	r2, r2, #8
 7377 00a6 92B2     		uxth	r2, r2
 7378 00a8 D2B2     		uxtb	r2, r2
 7379 00aa 1A61     		str	r2, [r3, #16]
3164:Drivers/STM32F4xx_HAL_Driver/Src/stm32f4xx_hal_i2c.c **** 
3165:Drivers/STM32F4xx_HAL_Driver/Src/stm32f4xx_hal_i2c.c ****     /* Wait until TXE flag is set */
3166:Drivers/STM32F4xx_HAL_Driver/Src/stm32f4xx_hal_i2c.c ****     if(I2C_WaitOnFlagUntilTimeout(hi2c, I2C_FLAG_TXE, RESET, Timeout) != HAL_OK)
 7380              		.loc 1 3166 0
 7381 00ac F868     		ldr	r0, [r7, #12]
 7382 00ae 0B49     		ldr	r1, .L396+4
 7383 00b0 0022     		movs	r2, #0
 7384 00b2 3B6A     		ldr	r3, [r7, #32]
 7385 00b4 FFF7FEFF 		bl	I2C_WaitOnFlagUntilTimeout
 7386 00b8 0346     		mov	r3, r0
 7387 00ba 002B     		cmp	r3, #0
 7388 00bc 01D0     		beq	.L395
3167:Drivers/STM32F4xx_HAL_Driver/Src/stm32f4xx_hal_i2c.c ****     {
3168:Drivers/STM32F4xx_HAL_Driver/Src/stm32f4xx_hal_i2c.c ****       return HAL_TIMEOUT;
 7389              		.loc 1 3168 0
 7390 00be 0323     		movs	r3, #3
 7391 00c0 05E0     		b	.L389
 7392              	.L395:
3169:Drivers/STM32F4xx_HAL_Driver/Src/stm32f4xx_hal_i2c.c ****     }
3170:Drivers/STM32F4xx_HAL_Driver/Src/stm32f4xx_hal_i2c.c **** 
3171:Drivers/STM32F4xx_HAL_Driver/Src/stm32f4xx_hal_i2c.c ****     /* Send LSB of Memory Address */
3172:Drivers/STM32F4xx_HAL_Driver/Src/stm32f4xx_hal_i2c.c ****     hi2c->Instance->DR = I2C_MEM_ADD_LSB(MemAddress);
 7393              		.loc 1 3172 0
 7394 00c2 FB68     		ldr	r3, [r7, #12]
 7395 00c4 1B68     		ldr	r3, [r3]
 7396 00c6 3A89     		ldrh	r2, [r7, #8]	@ movhi
 7397 00c8 D2B2     		uxtb	r2, r2
 7398 00ca 1A61     		str	r2, [r3, #16]
 7399              	.L394:
3173:Drivers/STM32F4xx_HAL_Driver/Src/stm32f4xx_hal_i2c.c ****   }
3174:Drivers/STM32F4xx_HAL_Driver/Src/stm32f4xx_hal_i2c.c **** 
3175:Drivers/STM32F4xx_HAL_Driver/Src/stm32f4xx_hal_i2c.c ****   return HAL_OK;
ARM GAS  /tmp/cc5bMm9J.s 			page 185


 7400              		.loc 1 3175 0
 7401 00cc 0023     		movs	r3, #0
 7402              	.L389:
3176:Drivers/STM32F4xx_HAL_Driver/Src/stm32f4xx_hal_i2c.c **** }
 7403              		.loc 1 3176 0
 7404 00ce 1846     		mov	r0, r3
 7405 00d0 1837     		adds	r7, r7, #24
 7406 00d2 BD46     		mov	sp, r7
 7407              		@ sp needed
 7408 00d4 80BD     		pop	{r7, pc}
 7409              	.L397:
 7410 00d6 00BF     		.align	2
 7411              	.L396:
 7412 00d8 02000100 		.word	65538
 7413 00dc 80000100 		.word	65664
 7414              		.cfi_endproc
 7415              	.LFE172:
 7417              		.section	.text.I2C_RequestMemoryRead,"ax",%progbits
 7418              		.align	2
 7419              		.thumb
 7420              		.thumb_func
 7422              	I2C_RequestMemoryRead:
 7423              	.LFB173:
3177:Drivers/STM32F4xx_HAL_Driver/Src/stm32f4xx_hal_i2c.c **** 
3178:Drivers/STM32F4xx_HAL_Driver/Src/stm32f4xx_hal_i2c.c **** /**
3179:Drivers/STM32F4xx_HAL_Driver/Src/stm32f4xx_hal_i2c.c ****   * @brief  Master sends target device address followed by internal memory address for read request
3180:Drivers/STM32F4xx_HAL_Driver/Src/stm32f4xx_hal_i2c.c ****   * @param  hi2c: pointer to a I2C_HandleTypeDef structure that contains
3181:Drivers/STM32F4xx_HAL_Driver/Src/stm32f4xx_hal_i2c.c ****   *         the configuration information for I2C module
3182:Drivers/STM32F4xx_HAL_Driver/Src/stm32f4xx_hal_i2c.c ****   * @param  DevAddress: Target device address
3183:Drivers/STM32F4xx_HAL_Driver/Src/stm32f4xx_hal_i2c.c ****   * @param  MemAddress: Internal memory address
3184:Drivers/STM32F4xx_HAL_Driver/Src/stm32f4xx_hal_i2c.c ****   * @param  MemAddSize: Size of internal memory address
3185:Drivers/STM32F4xx_HAL_Driver/Src/stm32f4xx_hal_i2c.c ****   * @param  Timeout: Timeout duration
3186:Drivers/STM32F4xx_HAL_Driver/Src/stm32f4xx_hal_i2c.c ****   * @retval HAL status
3187:Drivers/STM32F4xx_HAL_Driver/Src/stm32f4xx_hal_i2c.c ****   */
3188:Drivers/STM32F4xx_HAL_Driver/Src/stm32f4xx_hal_i2c.c **** static HAL_StatusTypeDef I2C_RequestMemoryRead(I2C_HandleTypeDef *hi2c, uint16_t DevAddress, uint16
3189:Drivers/STM32F4xx_HAL_Driver/Src/stm32f4xx_hal_i2c.c **** {
 7424              		.loc 1 3189 0
 7425              		.cfi_startproc
 7426              		@ args = 4, pretend = 0, frame = 24
 7427              		@ frame_needed = 1, uses_anonymous_args = 0
 7428 0000 80B5     		push	{r7, lr}
 7429              	.LCFI144:
 7430              		.cfi_def_cfa_offset 8
 7431              		.cfi_offset 7, -8
 7432              		.cfi_offset 14, -4
 7433 0002 86B0     		sub	sp, sp, #24
 7434              	.LCFI145:
 7435              		.cfi_def_cfa_offset 32
 7436 0004 00AF     		add	r7, sp, #0
 7437              	.LCFI146:
 7438              		.cfi_def_cfa_register 7
 7439 0006 F860     		str	r0, [r7, #12]
 7440 0008 7981     		strh	r1, [r7, #10]	@ movhi
 7441 000a 3A81     		strh	r2, [r7, #8]	@ movhi
 7442 000c FB80     		strh	r3, [r7, #6]	@ movhi
3190:Drivers/STM32F4xx_HAL_Driver/Src/stm32f4xx_hal_i2c.c ****   /* Enable Acknowledge */
3191:Drivers/STM32F4xx_HAL_Driver/Src/stm32f4xx_hal_i2c.c ****   hi2c->Instance->CR1 |= I2C_CR1_ACK;
ARM GAS  /tmp/cc5bMm9J.s 			page 186


 7443              		.loc 1 3191 0
 7444 000e FB68     		ldr	r3, [r7, #12]
 7445 0010 1B68     		ldr	r3, [r3]
 7446 0012 FA68     		ldr	r2, [r7, #12]
 7447 0014 1268     		ldr	r2, [r2]
 7448 0016 1268     		ldr	r2, [r2]
 7449 0018 42F48062 		orr	r2, r2, #1024
 7450 001c 1A60     		str	r2, [r3]
3192:Drivers/STM32F4xx_HAL_Driver/Src/stm32f4xx_hal_i2c.c **** 
3193:Drivers/STM32F4xx_HAL_Driver/Src/stm32f4xx_hal_i2c.c ****   /* Generate Start */
3194:Drivers/STM32F4xx_HAL_Driver/Src/stm32f4xx_hal_i2c.c ****   hi2c->Instance->CR1 |= I2C_CR1_START;
 7451              		.loc 1 3194 0
 7452 001e FB68     		ldr	r3, [r7, #12]
 7453 0020 1B68     		ldr	r3, [r3]
 7454 0022 FA68     		ldr	r2, [r7, #12]
 7455 0024 1268     		ldr	r2, [r2]
 7456 0026 1268     		ldr	r2, [r2]
 7457 0028 42F48072 		orr	r2, r2, #256
 7458 002c 1A60     		str	r2, [r3]
3195:Drivers/STM32F4xx_HAL_Driver/Src/stm32f4xx_hal_i2c.c **** 
3196:Drivers/STM32F4xx_HAL_Driver/Src/stm32f4xx_hal_i2c.c ****   /* Wait until SB flag is set */
3197:Drivers/STM32F4xx_HAL_Driver/Src/stm32f4xx_hal_i2c.c ****   if(I2C_WaitOnFlagUntilTimeout(hi2c, I2C_FLAG_SB, RESET, Timeout) != HAL_OK)
 7459              		.loc 1 3197 0
 7460 002e F868     		ldr	r0, [r7, #12]
 7461 0030 4FF00111 		mov	r1, #65537
 7462 0034 0022     		movs	r2, #0
 7463 0036 3B6A     		ldr	r3, [r7, #32]
 7464 0038 FFF7FEFF 		bl	I2C_WaitOnFlagUntilTimeout
 7465 003c 0346     		mov	r3, r0
 7466 003e 002B     		cmp	r3, #0
 7467 0040 01D0     		beq	.L399
3198:Drivers/STM32F4xx_HAL_Driver/Src/stm32f4xx_hal_i2c.c ****   {
3199:Drivers/STM32F4xx_HAL_Driver/Src/stm32f4xx_hal_i2c.c ****     return HAL_TIMEOUT;
 7468              		.loc 1 3199 0
 7469 0042 0323     		movs	r3, #3
 7470 0044 82E0     		b	.L400
 7471              	.L399:
3200:Drivers/STM32F4xx_HAL_Driver/Src/stm32f4xx_hal_i2c.c ****   }
3201:Drivers/STM32F4xx_HAL_Driver/Src/stm32f4xx_hal_i2c.c **** 
3202:Drivers/STM32F4xx_HAL_Driver/Src/stm32f4xx_hal_i2c.c ****   /* Send slave address */
3203:Drivers/STM32F4xx_HAL_Driver/Src/stm32f4xx_hal_i2c.c ****   hi2c->Instance->DR = I2C_7BIT_ADD_WRITE(DevAddress);
 7472              		.loc 1 3203 0
 7473 0046 FB68     		ldr	r3, [r7, #12]
 7474 0048 1B68     		ldr	r3, [r3]
 7475 004a 7A89     		ldrh	r2, [r7, #10]	@ movhi
 7476 004c D2B2     		uxtb	r2, r2
 7477 004e 02F0FE02 		and	r2, r2, #254
 7478 0052 1A61     		str	r2, [r3, #16]
3204:Drivers/STM32F4xx_HAL_Driver/Src/stm32f4xx_hal_i2c.c **** 
3205:Drivers/STM32F4xx_HAL_Driver/Src/stm32f4xx_hal_i2c.c ****   /* Wait until ADDR flag is set */
3206:Drivers/STM32F4xx_HAL_Driver/Src/stm32f4xx_hal_i2c.c ****   if(I2C_WaitOnMasterAddressFlagUntilTimeout(hi2c, I2C_FLAG_ADDR, Timeout) != HAL_OK)
 7479              		.loc 1 3206 0
 7480 0054 F868     		ldr	r0, [r7, #12]
 7481 0056 3F49     		ldr	r1, .L411
 7482 0058 3A6A     		ldr	r2, [r7, #32]
 7483 005a FFF7FEFF 		bl	I2C_WaitOnMasterAddressFlagUntilTimeout
 7484 005e 0346     		mov	r3, r0
ARM GAS  /tmp/cc5bMm9J.s 			page 187


 7485 0060 002B     		cmp	r3, #0
 7486 0062 07D0     		beq	.L401
3207:Drivers/STM32F4xx_HAL_Driver/Src/stm32f4xx_hal_i2c.c ****   {
3208:Drivers/STM32F4xx_HAL_Driver/Src/stm32f4xx_hal_i2c.c ****     if(hi2c->ErrorCode == HAL_I2C_ERROR_AF)
 7487              		.loc 1 3208 0
 7488 0064 FB68     		ldr	r3, [r7, #12]
 7489 0066 9B6B     		ldr	r3, [r3, #56]
 7490 0068 042B     		cmp	r3, #4
 7491 006a 01D1     		bne	.L402
3209:Drivers/STM32F4xx_HAL_Driver/Src/stm32f4xx_hal_i2c.c ****     {
3210:Drivers/STM32F4xx_HAL_Driver/Src/stm32f4xx_hal_i2c.c ****       return HAL_ERROR;
 7492              		.loc 1 3210 0
 7493 006c 0123     		movs	r3, #1
 7494 006e 6DE0     		b	.L400
 7495              	.L402:
3211:Drivers/STM32F4xx_HAL_Driver/Src/stm32f4xx_hal_i2c.c ****     }
3212:Drivers/STM32F4xx_HAL_Driver/Src/stm32f4xx_hal_i2c.c ****     else
3213:Drivers/STM32F4xx_HAL_Driver/Src/stm32f4xx_hal_i2c.c ****     {
3214:Drivers/STM32F4xx_HAL_Driver/Src/stm32f4xx_hal_i2c.c ****       return HAL_TIMEOUT;
 7496              		.loc 1 3214 0
 7497 0070 0323     		movs	r3, #3
 7498 0072 6BE0     		b	.L400
 7499              	.L401:
 7500              	.LBB32:
3215:Drivers/STM32F4xx_HAL_Driver/Src/stm32f4xx_hal_i2c.c ****     }
3216:Drivers/STM32F4xx_HAL_Driver/Src/stm32f4xx_hal_i2c.c ****   }
3217:Drivers/STM32F4xx_HAL_Driver/Src/stm32f4xx_hal_i2c.c **** 
3218:Drivers/STM32F4xx_HAL_Driver/Src/stm32f4xx_hal_i2c.c ****   /* Clear ADDR flag */
3219:Drivers/STM32F4xx_HAL_Driver/Src/stm32f4xx_hal_i2c.c ****   __HAL_I2C_CLEAR_ADDRFLAG(hi2c);
 7501              		.loc 1 3219 0
 7502 0074 FB68     		ldr	r3, [r7, #12]
 7503 0076 1B68     		ldr	r3, [r3]
 7504 0078 5B69     		ldr	r3, [r3, #20]
 7505 007a 7B61     		str	r3, [r7, #20]
 7506 007c FB68     		ldr	r3, [r7, #12]
 7507 007e 1B68     		ldr	r3, [r3]
 7508 0080 9B69     		ldr	r3, [r3, #24]
 7509 0082 7B61     		str	r3, [r7, #20]
 7510 0084 7B69     		ldr	r3, [r7, #20]
 7511              	.LBE32:
3220:Drivers/STM32F4xx_HAL_Driver/Src/stm32f4xx_hal_i2c.c **** 
3221:Drivers/STM32F4xx_HAL_Driver/Src/stm32f4xx_hal_i2c.c ****   /* Wait until TXE flag is set */
3222:Drivers/STM32F4xx_HAL_Driver/Src/stm32f4xx_hal_i2c.c ****   if(I2C_WaitOnFlagUntilTimeout(hi2c, I2C_FLAG_TXE, RESET, Timeout) != HAL_OK)
 7512              		.loc 1 3222 0
 7513 0086 F868     		ldr	r0, [r7, #12]
 7514 0088 3349     		ldr	r1, .L411+4
 7515 008a 0022     		movs	r2, #0
 7516 008c 3B6A     		ldr	r3, [r7, #32]
 7517 008e FFF7FEFF 		bl	I2C_WaitOnFlagUntilTimeout
 7518 0092 0346     		mov	r3, r0
 7519 0094 002B     		cmp	r3, #0
 7520 0096 01D0     		beq	.L403
3223:Drivers/STM32F4xx_HAL_Driver/Src/stm32f4xx_hal_i2c.c ****   {
3224:Drivers/STM32F4xx_HAL_Driver/Src/stm32f4xx_hal_i2c.c ****     return HAL_TIMEOUT;
 7521              		.loc 1 3224 0
 7522 0098 0323     		movs	r3, #3
 7523 009a 57E0     		b	.L400
ARM GAS  /tmp/cc5bMm9J.s 			page 188


 7524              	.L403:
3225:Drivers/STM32F4xx_HAL_Driver/Src/stm32f4xx_hal_i2c.c ****   }
3226:Drivers/STM32F4xx_HAL_Driver/Src/stm32f4xx_hal_i2c.c **** 
3227:Drivers/STM32F4xx_HAL_Driver/Src/stm32f4xx_hal_i2c.c ****   /* If Memory address size is 8Bit */
3228:Drivers/STM32F4xx_HAL_Driver/Src/stm32f4xx_hal_i2c.c ****   if(MemAddSize == I2C_MEMADD_SIZE_8BIT)
 7525              		.loc 1 3228 0
 7526 009c FB88     		ldrh	r3, [r7, #6]
 7527 009e 012B     		cmp	r3, #1
 7528 00a0 05D1     		bne	.L404
3229:Drivers/STM32F4xx_HAL_Driver/Src/stm32f4xx_hal_i2c.c ****   {
3230:Drivers/STM32F4xx_HAL_Driver/Src/stm32f4xx_hal_i2c.c ****     /* Send Memory Address */
3231:Drivers/STM32F4xx_HAL_Driver/Src/stm32f4xx_hal_i2c.c ****     hi2c->Instance->DR = I2C_MEM_ADD_LSB(MemAddress);
 7529              		.loc 1 3231 0
 7530 00a2 FB68     		ldr	r3, [r7, #12]
 7531 00a4 1B68     		ldr	r3, [r3]
 7532 00a6 3A89     		ldrh	r2, [r7, #8]	@ movhi
 7533 00a8 D2B2     		uxtb	r2, r2
 7534 00aa 1A61     		str	r2, [r3, #16]
 7535 00ac 16E0     		b	.L405
 7536              	.L404:
3232:Drivers/STM32F4xx_HAL_Driver/Src/stm32f4xx_hal_i2c.c ****   }
3233:Drivers/STM32F4xx_HAL_Driver/Src/stm32f4xx_hal_i2c.c ****   /* If Memory address size is 16Bit */
3234:Drivers/STM32F4xx_HAL_Driver/Src/stm32f4xx_hal_i2c.c ****   else
3235:Drivers/STM32F4xx_HAL_Driver/Src/stm32f4xx_hal_i2c.c ****   {
3236:Drivers/STM32F4xx_HAL_Driver/Src/stm32f4xx_hal_i2c.c ****     /* Send MSB of Memory Address */
3237:Drivers/STM32F4xx_HAL_Driver/Src/stm32f4xx_hal_i2c.c ****     hi2c->Instance->DR = I2C_MEM_ADD_MSB(MemAddress);
 7537              		.loc 1 3237 0
 7538 00ae FB68     		ldr	r3, [r7, #12]
 7539 00b0 1B68     		ldr	r3, [r3]
 7540 00b2 3A89     		ldrh	r2, [r7, #8]
 7541 00b4 120A     		lsrs	r2, r2, #8
 7542 00b6 92B2     		uxth	r2, r2
 7543 00b8 D2B2     		uxtb	r2, r2
 7544 00ba 1A61     		str	r2, [r3, #16]
3238:Drivers/STM32F4xx_HAL_Driver/Src/stm32f4xx_hal_i2c.c **** 
3239:Drivers/STM32F4xx_HAL_Driver/Src/stm32f4xx_hal_i2c.c ****     /* Wait until TXE flag is set */
3240:Drivers/STM32F4xx_HAL_Driver/Src/stm32f4xx_hal_i2c.c ****     if(I2C_WaitOnFlagUntilTimeout(hi2c, I2C_FLAG_TXE, RESET, Timeout) != HAL_OK)
 7545              		.loc 1 3240 0
 7546 00bc F868     		ldr	r0, [r7, #12]
 7547 00be 2649     		ldr	r1, .L411+4
 7548 00c0 0022     		movs	r2, #0
 7549 00c2 3B6A     		ldr	r3, [r7, #32]
 7550 00c4 FFF7FEFF 		bl	I2C_WaitOnFlagUntilTimeout
 7551 00c8 0346     		mov	r3, r0
 7552 00ca 002B     		cmp	r3, #0
 7553 00cc 01D0     		beq	.L406
3241:Drivers/STM32F4xx_HAL_Driver/Src/stm32f4xx_hal_i2c.c ****     {
3242:Drivers/STM32F4xx_HAL_Driver/Src/stm32f4xx_hal_i2c.c ****       return HAL_TIMEOUT;
 7554              		.loc 1 3242 0
 7555 00ce 0323     		movs	r3, #3
 7556 00d0 3CE0     		b	.L400
 7557              	.L406:
3243:Drivers/STM32F4xx_HAL_Driver/Src/stm32f4xx_hal_i2c.c ****     }
3244:Drivers/STM32F4xx_HAL_Driver/Src/stm32f4xx_hal_i2c.c **** 
3245:Drivers/STM32F4xx_HAL_Driver/Src/stm32f4xx_hal_i2c.c ****     /* Send LSB of Memory Address */
3246:Drivers/STM32F4xx_HAL_Driver/Src/stm32f4xx_hal_i2c.c ****     hi2c->Instance->DR = I2C_MEM_ADD_LSB(MemAddress);
 7558              		.loc 1 3246 0
ARM GAS  /tmp/cc5bMm9J.s 			page 189


 7559 00d2 FB68     		ldr	r3, [r7, #12]
 7560 00d4 1B68     		ldr	r3, [r3]
 7561 00d6 3A89     		ldrh	r2, [r7, #8]	@ movhi
 7562 00d8 D2B2     		uxtb	r2, r2
 7563 00da 1A61     		str	r2, [r3, #16]
 7564              	.L405:
3247:Drivers/STM32F4xx_HAL_Driver/Src/stm32f4xx_hal_i2c.c ****   }
3248:Drivers/STM32F4xx_HAL_Driver/Src/stm32f4xx_hal_i2c.c **** 
3249:Drivers/STM32F4xx_HAL_Driver/Src/stm32f4xx_hal_i2c.c ****   /* Wait until TXE flag is set */
3250:Drivers/STM32F4xx_HAL_Driver/Src/stm32f4xx_hal_i2c.c ****   if(I2C_WaitOnFlagUntilTimeout(hi2c, I2C_FLAG_TXE, RESET, Timeout) != HAL_OK)
 7565              		.loc 1 3250 0
 7566 00dc F868     		ldr	r0, [r7, #12]
 7567 00de 1E49     		ldr	r1, .L411+4
 7568 00e0 0022     		movs	r2, #0
 7569 00e2 3B6A     		ldr	r3, [r7, #32]
 7570 00e4 FFF7FEFF 		bl	I2C_WaitOnFlagUntilTimeout
 7571 00e8 0346     		mov	r3, r0
 7572 00ea 002B     		cmp	r3, #0
 7573 00ec 01D0     		beq	.L407
3251:Drivers/STM32F4xx_HAL_Driver/Src/stm32f4xx_hal_i2c.c ****   {
3252:Drivers/STM32F4xx_HAL_Driver/Src/stm32f4xx_hal_i2c.c ****     return HAL_TIMEOUT;
 7574              		.loc 1 3252 0
 7575 00ee 0323     		movs	r3, #3
 7576 00f0 2CE0     		b	.L400
 7577              	.L407:
3253:Drivers/STM32F4xx_HAL_Driver/Src/stm32f4xx_hal_i2c.c ****   }
3254:Drivers/STM32F4xx_HAL_Driver/Src/stm32f4xx_hal_i2c.c **** 
3255:Drivers/STM32F4xx_HAL_Driver/Src/stm32f4xx_hal_i2c.c ****   /* Generate Restart */
3256:Drivers/STM32F4xx_HAL_Driver/Src/stm32f4xx_hal_i2c.c ****   hi2c->Instance->CR1 |= I2C_CR1_START;
 7578              		.loc 1 3256 0
 7579 00f2 FB68     		ldr	r3, [r7, #12]
 7580 00f4 1B68     		ldr	r3, [r3]
 7581 00f6 FA68     		ldr	r2, [r7, #12]
 7582 00f8 1268     		ldr	r2, [r2]
 7583 00fa 1268     		ldr	r2, [r2]
 7584 00fc 42F48072 		orr	r2, r2, #256
 7585 0100 1A60     		str	r2, [r3]
3257:Drivers/STM32F4xx_HAL_Driver/Src/stm32f4xx_hal_i2c.c **** 
3258:Drivers/STM32F4xx_HAL_Driver/Src/stm32f4xx_hal_i2c.c ****   /* Wait until SB flag is set */
3259:Drivers/STM32F4xx_HAL_Driver/Src/stm32f4xx_hal_i2c.c ****   if(I2C_WaitOnFlagUntilTimeout(hi2c, I2C_FLAG_SB, RESET, Timeout) != HAL_OK)
 7586              		.loc 1 3259 0
 7587 0102 F868     		ldr	r0, [r7, #12]
 7588 0104 4FF00111 		mov	r1, #65537
 7589 0108 0022     		movs	r2, #0
 7590 010a 3B6A     		ldr	r3, [r7, #32]
 7591 010c FFF7FEFF 		bl	I2C_WaitOnFlagUntilTimeout
 7592 0110 0346     		mov	r3, r0
 7593 0112 002B     		cmp	r3, #0
 7594 0114 01D0     		beq	.L408
3260:Drivers/STM32F4xx_HAL_Driver/Src/stm32f4xx_hal_i2c.c ****   {
3261:Drivers/STM32F4xx_HAL_Driver/Src/stm32f4xx_hal_i2c.c ****     return HAL_TIMEOUT;
 7595              		.loc 1 3261 0
 7596 0116 0323     		movs	r3, #3
 7597 0118 18E0     		b	.L400
 7598              	.L408:
3262:Drivers/STM32F4xx_HAL_Driver/Src/stm32f4xx_hal_i2c.c ****   }
3263:Drivers/STM32F4xx_HAL_Driver/Src/stm32f4xx_hal_i2c.c **** 
ARM GAS  /tmp/cc5bMm9J.s 			page 190


3264:Drivers/STM32F4xx_HAL_Driver/Src/stm32f4xx_hal_i2c.c ****   /* Send slave address */
3265:Drivers/STM32F4xx_HAL_Driver/Src/stm32f4xx_hal_i2c.c ****   hi2c->Instance->DR = I2C_7BIT_ADD_READ(DevAddress);
 7599              		.loc 1 3265 0
 7600 011a FB68     		ldr	r3, [r7, #12]
 7601 011c 1B68     		ldr	r3, [r3]
 7602 011e 7A89     		ldrh	r2, [r7, #10]	@ movhi
 7603 0120 D2B2     		uxtb	r2, r2
 7604 0122 42F00102 		orr	r2, r2, #1
 7605 0126 D2B2     		uxtb	r2, r2
 7606 0128 1A61     		str	r2, [r3, #16]
3266:Drivers/STM32F4xx_HAL_Driver/Src/stm32f4xx_hal_i2c.c **** 
3267:Drivers/STM32F4xx_HAL_Driver/Src/stm32f4xx_hal_i2c.c ****   /* Wait until ADDR flag is set */
3268:Drivers/STM32F4xx_HAL_Driver/Src/stm32f4xx_hal_i2c.c ****   if(I2C_WaitOnMasterAddressFlagUntilTimeout(hi2c, I2C_FLAG_ADDR, Timeout) != HAL_OK)
 7607              		.loc 1 3268 0
 7608 012a F868     		ldr	r0, [r7, #12]
 7609 012c 0949     		ldr	r1, .L411
 7610 012e 3A6A     		ldr	r2, [r7, #32]
 7611 0130 FFF7FEFF 		bl	I2C_WaitOnMasterAddressFlagUntilTimeout
 7612 0134 0346     		mov	r3, r0
 7613 0136 002B     		cmp	r3, #0
 7614 0138 07D0     		beq	.L409
3269:Drivers/STM32F4xx_HAL_Driver/Src/stm32f4xx_hal_i2c.c ****   {
3270:Drivers/STM32F4xx_HAL_Driver/Src/stm32f4xx_hal_i2c.c ****     if(hi2c->ErrorCode == HAL_I2C_ERROR_AF)
 7615              		.loc 1 3270 0
 7616 013a FB68     		ldr	r3, [r7, #12]
 7617 013c 9B6B     		ldr	r3, [r3, #56]
 7618 013e 042B     		cmp	r3, #4
 7619 0140 01D1     		bne	.L410
3271:Drivers/STM32F4xx_HAL_Driver/Src/stm32f4xx_hal_i2c.c ****     {
3272:Drivers/STM32F4xx_HAL_Driver/Src/stm32f4xx_hal_i2c.c ****       return HAL_ERROR;
 7620              		.loc 1 3272 0
 7621 0142 0123     		movs	r3, #1
 7622 0144 02E0     		b	.L400
 7623              	.L410:
3273:Drivers/STM32F4xx_HAL_Driver/Src/stm32f4xx_hal_i2c.c ****     }
3274:Drivers/STM32F4xx_HAL_Driver/Src/stm32f4xx_hal_i2c.c ****     else
3275:Drivers/STM32F4xx_HAL_Driver/Src/stm32f4xx_hal_i2c.c ****     {
3276:Drivers/STM32F4xx_HAL_Driver/Src/stm32f4xx_hal_i2c.c ****       return HAL_TIMEOUT;
 7624              		.loc 1 3276 0
 7625 0146 0323     		movs	r3, #3
 7626 0148 00E0     		b	.L400
 7627              	.L409:
3277:Drivers/STM32F4xx_HAL_Driver/Src/stm32f4xx_hal_i2c.c ****     }
3278:Drivers/STM32F4xx_HAL_Driver/Src/stm32f4xx_hal_i2c.c ****   }
3279:Drivers/STM32F4xx_HAL_Driver/Src/stm32f4xx_hal_i2c.c **** 
3280:Drivers/STM32F4xx_HAL_Driver/Src/stm32f4xx_hal_i2c.c ****   return HAL_OK;
 7628              		.loc 1 3280 0
 7629 014a 0023     		movs	r3, #0
 7630              	.L400:
3281:Drivers/STM32F4xx_HAL_Driver/Src/stm32f4xx_hal_i2c.c **** }
 7631              		.loc 1 3281 0
 7632 014c 1846     		mov	r0, r3
 7633 014e 1837     		adds	r7, r7, #24
 7634 0150 BD46     		mov	sp, r7
 7635              		@ sp needed
 7636 0152 80BD     		pop	{r7, pc}
 7637              	.L412:
ARM GAS  /tmp/cc5bMm9J.s 			page 191


 7638              		.align	2
 7639              	.L411:
 7640 0154 02000100 		.word	65538
 7641 0158 80000100 		.word	65664
 7642              		.cfi_endproc
 7643              	.LFE173:
 7645              		.section	.text.I2C_DMAMasterTransmitCplt,"ax",%progbits
 7646              		.align	2
 7647              		.thumb
 7648              		.thumb_func
 7650              	I2C_DMAMasterTransmitCplt:
 7651              	.LFB174:
3282:Drivers/STM32F4xx_HAL_Driver/Src/stm32f4xx_hal_i2c.c **** 
3283:Drivers/STM32F4xx_HAL_Driver/Src/stm32f4xx_hal_i2c.c **** /**
3284:Drivers/STM32F4xx_HAL_Driver/Src/stm32f4xx_hal_i2c.c ****   * @brief  DMA I2C master transmit process complete callback.
3285:Drivers/STM32F4xx_HAL_Driver/Src/stm32f4xx_hal_i2c.c ****   * @param  hdma: DMA handle
3286:Drivers/STM32F4xx_HAL_Driver/Src/stm32f4xx_hal_i2c.c ****   * @retval None
3287:Drivers/STM32F4xx_HAL_Driver/Src/stm32f4xx_hal_i2c.c ****   */
3288:Drivers/STM32F4xx_HAL_Driver/Src/stm32f4xx_hal_i2c.c **** static void I2C_DMAMasterTransmitCplt(DMA_HandleTypeDef *hdma)
3289:Drivers/STM32F4xx_HAL_Driver/Src/stm32f4xx_hal_i2c.c **** {
 7652              		.loc 1 3289 0
 7653              		.cfi_startproc
 7654              		@ args = 0, pretend = 0, frame = 16
 7655              		@ frame_needed = 1, uses_anonymous_args = 0
 7656 0000 80B5     		push	{r7, lr}
 7657              	.LCFI147:
 7658              		.cfi_def_cfa_offset 8
 7659              		.cfi_offset 7, -8
 7660              		.cfi_offset 14, -4
 7661 0002 84B0     		sub	sp, sp, #16
 7662              	.LCFI148:
 7663              		.cfi_def_cfa_offset 24
 7664 0004 00AF     		add	r7, sp, #0
 7665              	.LCFI149:
 7666              		.cfi_def_cfa_register 7
 7667 0006 7860     		str	r0, [r7, #4]
3290:Drivers/STM32F4xx_HAL_Driver/Src/stm32f4xx_hal_i2c.c ****   I2C_HandleTypeDef* hi2c = (I2C_HandleTypeDef*)((DMA_HandleTypeDef*)hdma)->Parent;
 7668              		.loc 1 3290 0
 7669 0008 7B68     		ldr	r3, [r7, #4]
 7670 000a 9B6B     		ldr	r3, [r3, #56]
 7671 000c FB60     		str	r3, [r7, #12]
3291:Drivers/STM32F4xx_HAL_Driver/Src/stm32f4xx_hal_i2c.c **** 
3292:Drivers/STM32F4xx_HAL_Driver/Src/stm32f4xx_hal_i2c.c ****   /* Wait until BTF flag is reset */
3293:Drivers/STM32F4xx_HAL_Driver/Src/stm32f4xx_hal_i2c.c ****   if(I2C_WaitOnFlagUntilTimeout(hi2c, I2C_FLAG_BTF, RESET, I2C_TIMEOUT_FLAG) != HAL_OK)
 7672              		.loc 1 3293 0
 7673 000e F868     		ldr	r0, [r7, #12]
 7674 0010 1949     		ldr	r1, .L417
 7675 0012 0022     		movs	r2, #0
 7676 0014 2323     		movs	r3, #35
 7677 0016 FFF7FEFF 		bl	I2C_WaitOnFlagUntilTimeout
 7678 001a 0346     		mov	r3, r0
 7679 001c 002B     		cmp	r3, #0
 7680 001e 05D0     		beq	.L414
3294:Drivers/STM32F4xx_HAL_Driver/Src/stm32f4xx_hal_i2c.c ****   {
3295:Drivers/STM32F4xx_HAL_Driver/Src/stm32f4xx_hal_i2c.c ****     hi2c->ErrorCode |= HAL_I2C_ERROR_TIMEOUT;
 7681              		.loc 1 3295 0
 7682 0020 FB68     		ldr	r3, [r7, #12]
ARM GAS  /tmp/cc5bMm9J.s 			page 192


 7683 0022 9B6B     		ldr	r3, [r3, #56]
 7684 0024 43F02002 		orr	r2, r3, #32
 7685 0028 FB68     		ldr	r3, [r7, #12]
 7686 002a 9A63     		str	r2, [r3, #56]
 7687              	.L414:
3296:Drivers/STM32F4xx_HAL_Driver/Src/stm32f4xx_hal_i2c.c ****   }
3297:Drivers/STM32F4xx_HAL_Driver/Src/stm32f4xx_hal_i2c.c **** 
3298:Drivers/STM32F4xx_HAL_Driver/Src/stm32f4xx_hal_i2c.c ****   /* Generate Stop */
3299:Drivers/STM32F4xx_HAL_Driver/Src/stm32f4xx_hal_i2c.c ****   hi2c->Instance->CR1 |= I2C_CR1_STOP;
 7688              		.loc 1 3299 0
 7689 002c FB68     		ldr	r3, [r7, #12]
 7690 002e 1B68     		ldr	r3, [r3]
 7691 0030 FA68     		ldr	r2, [r7, #12]
 7692 0032 1268     		ldr	r2, [r2]
 7693 0034 1268     		ldr	r2, [r2]
 7694 0036 42F40072 		orr	r2, r2, #512
 7695 003a 1A60     		str	r2, [r3]
3300:Drivers/STM32F4xx_HAL_Driver/Src/stm32f4xx_hal_i2c.c **** 
3301:Drivers/STM32F4xx_HAL_Driver/Src/stm32f4xx_hal_i2c.c ****   /* Disable DMA Request */
3302:Drivers/STM32F4xx_HAL_Driver/Src/stm32f4xx_hal_i2c.c ****   hi2c->Instance->CR2 &= ~I2C_CR2_DMAEN;
 7696              		.loc 1 3302 0
 7697 003c FB68     		ldr	r3, [r7, #12]
 7698 003e 1B68     		ldr	r3, [r3]
 7699 0040 FA68     		ldr	r2, [r7, #12]
 7700 0042 1268     		ldr	r2, [r2]
 7701 0044 5268     		ldr	r2, [r2, #4]
 7702 0046 22F40062 		bic	r2, r2, #2048
 7703 004a 5A60     		str	r2, [r3, #4]
3303:Drivers/STM32F4xx_HAL_Driver/Src/stm32f4xx_hal_i2c.c **** 
3304:Drivers/STM32F4xx_HAL_Driver/Src/stm32f4xx_hal_i2c.c ****   hi2c->XferCount = 0;
 7704              		.loc 1 3304 0
 7705 004c FB68     		ldr	r3, [r7, #12]
 7706 004e 0022     		movs	r2, #0
 7707 0050 5A85     		strh	r2, [r3, #42]	@ movhi
3305:Drivers/STM32F4xx_HAL_Driver/Src/stm32f4xx_hal_i2c.c **** 
3306:Drivers/STM32F4xx_HAL_Driver/Src/stm32f4xx_hal_i2c.c ****   hi2c->State = HAL_I2C_STATE_READY;
 7708              		.loc 1 3306 0
 7709 0052 FB68     		ldr	r3, [r7, #12]
 7710 0054 0122     		movs	r2, #1
 7711 0056 83F83520 		strb	r2, [r3, #53]
3307:Drivers/STM32F4xx_HAL_Driver/Src/stm32f4xx_hal_i2c.c **** 
3308:Drivers/STM32F4xx_HAL_Driver/Src/stm32f4xx_hal_i2c.c ****   /* Check if Errors has been detected during transfer */
3309:Drivers/STM32F4xx_HAL_Driver/Src/stm32f4xx_hal_i2c.c ****   if(hi2c->ErrorCode != HAL_I2C_ERROR_NONE)
 7712              		.loc 1 3309 0
 7713 005a FB68     		ldr	r3, [r7, #12]
 7714 005c 9B6B     		ldr	r3, [r3, #56]
 7715 005e 002B     		cmp	r3, #0
 7716 0060 03D0     		beq	.L415
3310:Drivers/STM32F4xx_HAL_Driver/Src/stm32f4xx_hal_i2c.c ****   {
3311:Drivers/STM32F4xx_HAL_Driver/Src/stm32f4xx_hal_i2c.c ****     HAL_I2C_ErrorCallback(hi2c);
 7717              		.loc 1 3311 0
 7718 0062 F868     		ldr	r0, [r7, #12]
 7719 0064 FFF7FEFF 		bl	HAL_I2C_ErrorCallback
 7720 0068 02E0     		b	.L413
 7721              	.L415:
3312:Drivers/STM32F4xx_HAL_Driver/Src/stm32f4xx_hal_i2c.c ****   }
3313:Drivers/STM32F4xx_HAL_Driver/Src/stm32f4xx_hal_i2c.c ****   else
ARM GAS  /tmp/cc5bMm9J.s 			page 193


3314:Drivers/STM32F4xx_HAL_Driver/Src/stm32f4xx_hal_i2c.c ****   {
3315:Drivers/STM32F4xx_HAL_Driver/Src/stm32f4xx_hal_i2c.c ****     HAL_I2C_MasterTxCpltCallback(hi2c);
 7722              		.loc 1 3315 0
 7723 006a F868     		ldr	r0, [r7, #12]
 7724 006c FFF7FEFF 		bl	HAL_I2C_MasterTxCpltCallback
 7725              	.L413:
3316:Drivers/STM32F4xx_HAL_Driver/Src/stm32f4xx_hal_i2c.c ****   }
3317:Drivers/STM32F4xx_HAL_Driver/Src/stm32f4xx_hal_i2c.c **** }
 7726              		.loc 1 3317 0
 7727 0070 1037     		adds	r7, r7, #16
 7728 0072 BD46     		mov	sp, r7
 7729              		@ sp needed
 7730 0074 80BD     		pop	{r7, pc}
 7731              	.L418:
 7732 0076 00BF     		.align	2
 7733              	.L417:
 7734 0078 04000100 		.word	65540
 7735              		.cfi_endproc
 7736              	.LFE174:
 7738              		.section	.text.I2C_DMASlaveTransmitCplt,"ax",%progbits
 7739              		.align	2
 7740              		.thumb
 7741              		.thumb_func
 7743              	I2C_DMASlaveTransmitCplt:
 7744              	.LFB175:
3318:Drivers/STM32F4xx_HAL_Driver/Src/stm32f4xx_hal_i2c.c **** 
3319:Drivers/STM32F4xx_HAL_Driver/Src/stm32f4xx_hal_i2c.c **** /**
3320:Drivers/STM32F4xx_HAL_Driver/Src/stm32f4xx_hal_i2c.c ****   * @brief  DMA I2C slave transmit process complete callback.
3321:Drivers/STM32F4xx_HAL_Driver/Src/stm32f4xx_hal_i2c.c ****   * @param  hdma: DMA handle
3322:Drivers/STM32F4xx_HAL_Driver/Src/stm32f4xx_hal_i2c.c ****   * @retval None
3323:Drivers/STM32F4xx_HAL_Driver/Src/stm32f4xx_hal_i2c.c ****   */
3324:Drivers/STM32F4xx_HAL_Driver/Src/stm32f4xx_hal_i2c.c **** static void I2C_DMASlaveTransmitCplt(DMA_HandleTypeDef *hdma)
3325:Drivers/STM32F4xx_HAL_Driver/Src/stm32f4xx_hal_i2c.c **** {
 7745              		.loc 1 3325 0
 7746              		.cfi_startproc
 7747              		@ args = 0, pretend = 0, frame = 16
 7748              		@ frame_needed = 1, uses_anonymous_args = 0
 7749 0000 80B5     		push	{r7, lr}
 7750              	.LCFI150:
 7751              		.cfi_def_cfa_offset 8
 7752              		.cfi_offset 7, -8
 7753              		.cfi_offset 14, -4
 7754 0002 84B0     		sub	sp, sp, #16
 7755              	.LCFI151:
 7756              		.cfi_def_cfa_offset 24
 7757 0004 00AF     		add	r7, sp, #0
 7758              	.LCFI152:
 7759              		.cfi_def_cfa_register 7
 7760 0006 7860     		str	r0, [r7, #4]
3326:Drivers/STM32F4xx_HAL_Driver/Src/stm32f4xx_hal_i2c.c ****   I2C_HandleTypeDef* hi2c = (I2C_HandleTypeDef*)((DMA_HandleTypeDef*)hdma)->Parent;
 7761              		.loc 1 3326 0
 7762 0008 7B68     		ldr	r3, [r7, #4]
 7763 000a 9B6B     		ldr	r3, [r3, #56]
 7764 000c FB60     		str	r3, [r7, #12]
3327:Drivers/STM32F4xx_HAL_Driver/Src/stm32f4xx_hal_i2c.c **** 
3328:Drivers/STM32F4xx_HAL_Driver/Src/stm32f4xx_hal_i2c.c ****   /* Wait until AF flag is reset */
3329:Drivers/STM32F4xx_HAL_Driver/Src/stm32f4xx_hal_i2c.c ****   if(I2C_WaitOnFlagUntilTimeout(hi2c, I2C_FLAG_AF, RESET, I2C_TIMEOUT_FLAG) != HAL_OK)
ARM GAS  /tmp/cc5bMm9J.s 			page 194


 7765              		.loc 1 3329 0
 7766 000e F868     		ldr	r0, [r7, #12]
 7767 0010 4FF48231 		mov	r1, #66560
 7768 0014 0022     		movs	r2, #0
 7769 0016 2323     		movs	r3, #35
 7770 0018 FFF7FEFF 		bl	I2C_WaitOnFlagUntilTimeout
 7771 001c 0346     		mov	r3, r0
 7772 001e 002B     		cmp	r3, #0
 7773 0020 05D0     		beq	.L420
3330:Drivers/STM32F4xx_HAL_Driver/Src/stm32f4xx_hal_i2c.c ****   {
3331:Drivers/STM32F4xx_HAL_Driver/Src/stm32f4xx_hal_i2c.c ****     hi2c->ErrorCode |= HAL_I2C_ERROR_TIMEOUT;
 7774              		.loc 1 3331 0
 7775 0022 FB68     		ldr	r3, [r7, #12]
 7776 0024 9B6B     		ldr	r3, [r3, #56]
 7777 0026 43F02002 		orr	r2, r3, #32
 7778 002a FB68     		ldr	r3, [r7, #12]
 7779 002c 9A63     		str	r2, [r3, #56]
 7780              	.L420:
3332:Drivers/STM32F4xx_HAL_Driver/Src/stm32f4xx_hal_i2c.c ****   }
3333:Drivers/STM32F4xx_HAL_Driver/Src/stm32f4xx_hal_i2c.c **** 
3334:Drivers/STM32F4xx_HAL_Driver/Src/stm32f4xx_hal_i2c.c ****   /* Clear AF flag */
3335:Drivers/STM32F4xx_HAL_Driver/Src/stm32f4xx_hal_i2c.c ****   __HAL_I2C_CLEAR_FLAG(hi2c, I2C_FLAG_AF);
 7781              		.loc 1 3335 0
 7782 002e FB68     		ldr	r3, [r7, #12]
 7783 0030 1B68     		ldr	r3, [r3]
 7784 0032 6FF48062 		mvn	r2, #1024
 7785 0036 5A61     		str	r2, [r3, #20]
3336:Drivers/STM32F4xx_HAL_Driver/Src/stm32f4xx_hal_i2c.c **** 
3337:Drivers/STM32F4xx_HAL_Driver/Src/stm32f4xx_hal_i2c.c ****   /* Disable Address Acknowledge */
3338:Drivers/STM32F4xx_HAL_Driver/Src/stm32f4xx_hal_i2c.c ****   hi2c->Instance->CR1 &= ~I2C_CR1_ACK;
 7786              		.loc 1 3338 0
 7787 0038 FB68     		ldr	r3, [r7, #12]
 7788 003a 1B68     		ldr	r3, [r3]
 7789 003c FA68     		ldr	r2, [r7, #12]
 7790 003e 1268     		ldr	r2, [r2]
 7791 0040 1268     		ldr	r2, [r2]
 7792 0042 22F48062 		bic	r2, r2, #1024
 7793 0046 1A60     		str	r2, [r3]
3339:Drivers/STM32F4xx_HAL_Driver/Src/stm32f4xx_hal_i2c.c **** 
3340:Drivers/STM32F4xx_HAL_Driver/Src/stm32f4xx_hal_i2c.c ****   /* Disable DMA Request */
3341:Drivers/STM32F4xx_HAL_Driver/Src/stm32f4xx_hal_i2c.c ****   hi2c->Instance->CR2 &= ~I2C_CR2_DMAEN;
 7794              		.loc 1 3341 0
 7795 0048 FB68     		ldr	r3, [r7, #12]
 7796 004a 1B68     		ldr	r3, [r3]
 7797 004c FA68     		ldr	r2, [r7, #12]
 7798 004e 1268     		ldr	r2, [r2]
 7799 0050 5268     		ldr	r2, [r2, #4]
 7800 0052 22F40062 		bic	r2, r2, #2048
 7801 0056 5A60     		str	r2, [r3, #4]
3342:Drivers/STM32F4xx_HAL_Driver/Src/stm32f4xx_hal_i2c.c **** 
3343:Drivers/STM32F4xx_HAL_Driver/Src/stm32f4xx_hal_i2c.c ****   hi2c->XferCount = 0;
 7802              		.loc 1 3343 0
 7803 0058 FB68     		ldr	r3, [r7, #12]
 7804 005a 0022     		movs	r2, #0
 7805 005c 5A85     		strh	r2, [r3, #42]	@ movhi
3344:Drivers/STM32F4xx_HAL_Driver/Src/stm32f4xx_hal_i2c.c **** 
3345:Drivers/STM32F4xx_HAL_Driver/Src/stm32f4xx_hal_i2c.c ****   hi2c->State = HAL_I2C_STATE_READY;
ARM GAS  /tmp/cc5bMm9J.s 			page 195


 7806              		.loc 1 3345 0
 7807 005e FB68     		ldr	r3, [r7, #12]
 7808 0060 0122     		movs	r2, #1
 7809 0062 83F83520 		strb	r2, [r3, #53]
3346:Drivers/STM32F4xx_HAL_Driver/Src/stm32f4xx_hal_i2c.c **** 
3347:Drivers/STM32F4xx_HAL_Driver/Src/stm32f4xx_hal_i2c.c ****   /* Check if Errors has been detected during transfer */
3348:Drivers/STM32F4xx_HAL_Driver/Src/stm32f4xx_hal_i2c.c ****   if(hi2c->ErrorCode != HAL_I2C_ERROR_NONE)
 7810              		.loc 1 3348 0
 7811 0066 FB68     		ldr	r3, [r7, #12]
 7812 0068 9B6B     		ldr	r3, [r3, #56]
 7813 006a 002B     		cmp	r3, #0
 7814 006c 03D0     		beq	.L421
3349:Drivers/STM32F4xx_HAL_Driver/Src/stm32f4xx_hal_i2c.c ****   {
3350:Drivers/STM32F4xx_HAL_Driver/Src/stm32f4xx_hal_i2c.c ****     HAL_I2C_ErrorCallback(hi2c);
 7815              		.loc 1 3350 0
 7816 006e F868     		ldr	r0, [r7, #12]
 7817 0070 FFF7FEFF 		bl	HAL_I2C_ErrorCallback
 7818 0074 02E0     		b	.L419
 7819              	.L421:
3351:Drivers/STM32F4xx_HAL_Driver/Src/stm32f4xx_hal_i2c.c ****   }
3352:Drivers/STM32F4xx_HAL_Driver/Src/stm32f4xx_hal_i2c.c ****   else
3353:Drivers/STM32F4xx_HAL_Driver/Src/stm32f4xx_hal_i2c.c ****   {
3354:Drivers/STM32F4xx_HAL_Driver/Src/stm32f4xx_hal_i2c.c ****     HAL_I2C_SlaveTxCpltCallback(hi2c);
 7820              		.loc 1 3354 0
 7821 0076 F868     		ldr	r0, [r7, #12]
 7822 0078 FFF7FEFF 		bl	HAL_I2C_SlaveTxCpltCallback
 7823              	.L419:
3355:Drivers/STM32F4xx_HAL_Driver/Src/stm32f4xx_hal_i2c.c ****   }
3356:Drivers/STM32F4xx_HAL_Driver/Src/stm32f4xx_hal_i2c.c **** }
 7824              		.loc 1 3356 0
 7825 007c 1037     		adds	r7, r7, #16
 7826 007e BD46     		mov	sp, r7
 7827              		@ sp needed
 7828 0080 80BD     		pop	{r7, pc}
 7829              		.cfi_endproc
 7830              	.LFE175:
 7832 0082 00BF     		.section	.text.I2C_DMAMasterReceiveCplt,"ax",%progbits
 7833              		.align	2
 7834              		.thumb
 7835              		.thumb_func
 7837              	I2C_DMAMasterReceiveCplt:
 7838              	.LFB176:
3357:Drivers/STM32F4xx_HAL_Driver/Src/stm32f4xx_hal_i2c.c **** 
3358:Drivers/STM32F4xx_HAL_Driver/Src/stm32f4xx_hal_i2c.c **** /**
3359:Drivers/STM32F4xx_HAL_Driver/Src/stm32f4xx_hal_i2c.c ****   * @brief  DMA I2C master receive process complete callback
3360:Drivers/STM32F4xx_HAL_Driver/Src/stm32f4xx_hal_i2c.c ****   * @param  hdma: DMA handle
3361:Drivers/STM32F4xx_HAL_Driver/Src/stm32f4xx_hal_i2c.c ****   * @retval None
3362:Drivers/STM32F4xx_HAL_Driver/Src/stm32f4xx_hal_i2c.c ****   */
3363:Drivers/STM32F4xx_HAL_Driver/Src/stm32f4xx_hal_i2c.c **** static void I2C_DMAMasterReceiveCplt(DMA_HandleTypeDef *hdma)
3364:Drivers/STM32F4xx_HAL_Driver/Src/stm32f4xx_hal_i2c.c **** {
 7839              		.loc 1 3364 0
 7840              		.cfi_startproc
 7841              		@ args = 0, pretend = 0, frame = 16
 7842              		@ frame_needed = 1, uses_anonymous_args = 0
 7843 0000 80B5     		push	{r7, lr}
 7844              	.LCFI153:
 7845              		.cfi_def_cfa_offset 8
ARM GAS  /tmp/cc5bMm9J.s 			page 196


 7846              		.cfi_offset 7, -8
 7847              		.cfi_offset 14, -4
 7848 0002 84B0     		sub	sp, sp, #16
 7849              	.LCFI154:
 7850              		.cfi_def_cfa_offset 24
 7851 0004 00AF     		add	r7, sp, #0
 7852              	.LCFI155:
 7853              		.cfi_def_cfa_register 7
 7854 0006 7860     		str	r0, [r7, #4]
3365:Drivers/STM32F4xx_HAL_Driver/Src/stm32f4xx_hal_i2c.c ****   I2C_HandleTypeDef* hi2c = (I2C_HandleTypeDef*)((DMA_HandleTypeDef*)hdma)->Parent;
 7855              		.loc 1 3365 0
 7856 0008 7B68     		ldr	r3, [r7, #4]
 7857 000a 9B6B     		ldr	r3, [r3, #56]
 7858 000c FB60     		str	r3, [r7, #12]
3366:Drivers/STM32F4xx_HAL_Driver/Src/stm32f4xx_hal_i2c.c **** 
3367:Drivers/STM32F4xx_HAL_Driver/Src/stm32f4xx_hal_i2c.c ****   /* Disable Acknowledge */
3368:Drivers/STM32F4xx_HAL_Driver/Src/stm32f4xx_hal_i2c.c ****   hi2c->Instance->CR1 &= ~I2C_CR1_ACK;
 7859              		.loc 1 3368 0
 7860 000e FB68     		ldr	r3, [r7, #12]
 7861 0010 1B68     		ldr	r3, [r3]
 7862 0012 FA68     		ldr	r2, [r7, #12]
 7863 0014 1268     		ldr	r2, [r2]
 7864 0016 1268     		ldr	r2, [r2]
 7865 0018 22F48062 		bic	r2, r2, #1024
 7866 001c 1A60     		str	r2, [r3]
3369:Drivers/STM32F4xx_HAL_Driver/Src/stm32f4xx_hal_i2c.c ****   
3370:Drivers/STM32F4xx_HAL_Driver/Src/stm32f4xx_hal_i2c.c ****   /* Generate Stop */
3371:Drivers/STM32F4xx_HAL_Driver/Src/stm32f4xx_hal_i2c.c ****   hi2c->Instance->CR1 |= I2C_CR1_STOP;
 7867              		.loc 1 3371 0
 7868 001e FB68     		ldr	r3, [r7, #12]
 7869 0020 1B68     		ldr	r3, [r3]
 7870 0022 FA68     		ldr	r2, [r7, #12]
 7871 0024 1268     		ldr	r2, [r2]
 7872 0026 1268     		ldr	r2, [r2]
 7873 0028 42F40072 		orr	r2, r2, #512
 7874 002c 1A60     		str	r2, [r3]
3372:Drivers/STM32F4xx_HAL_Driver/Src/stm32f4xx_hal_i2c.c **** 
3373:Drivers/STM32F4xx_HAL_Driver/Src/stm32f4xx_hal_i2c.c ****   /* Disable Last DMA */
3374:Drivers/STM32F4xx_HAL_Driver/Src/stm32f4xx_hal_i2c.c ****   hi2c->Instance->CR2 &= ~I2C_CR2_LAST;
 7875              		.loc 1 3374 0
 7876 002e FB68     		ldr	r3, [r7, #12]
 7877 0030 1B68     		ldr	r3, [r3]
 7878 0032 FA68     		ldr	r2, [r7, #12]
 7879 0034 1268     		ldr	r2, [r2]
 7880 0036 5268     		ldr	r2, [r2, #4]
 7881 0038 22F48052 		bic	r2, r2, #4096
 7882 003c 5A60     		str	r2, [r3, #4]
3375:Drivers/STM32F4xx_HAL_Driver/Src/stm32f4xx_hal_i2c.c **** 
3376:Drivers/STM32F4xx_HAL_Driver/Src/stm32f4xx_hal_i2c.c ****   /* Disable DMA Request */
3377:Drivers/STM32F4xx_HAL_Driver/Src/stm32f4xx_hal_i2c.c ****   hi2c->Instance->CR2 &= ~I2C_CR2_DMAEN;
 7883              		.loc 1 3377 0
 7884 003e FB68     		ldr	r3, [r7, #12]
 7885 0040 1B68     		ldr	r3, [r3]
 7886 0042 FA68     		ldr	r2, [r7, #12]
 7887 0044 1268     		ldr	r2, [r2]
 7888 0046 5268     		ldr	r2, [r2, #4]
 7889 0048 22F40062 		bic	r2, r2, #2048
ARM GAS  /tmp/cc5bMm9J.s 			page 197


 7890 004c 5A60     		str	r2, [r3, #4]
3378:Drivers/STM32F4xx_HAL_Driver/Src/stm32f4xx_hal_i2c.c **** 
3379:Drivers/STM32F4xx_HAL_Driver/Src/stm32f4xx_hal_i2c.c ****   hi2c->XferCount = 0;
 7891              		.loc 1 3379 0
 7892 004e FB68     		ldr	r3, [r7, #12]
 7893 0050 0022     		movs	r2, #0
 7894 0052 5A85     		strh	r2, [r3, #42]	@ movhi
3380:Drivers/STM32F4xx_HAL_Driver/Src/stm32f4xx_hal_i2c.c **** 
3381:Drivers/STM32F4xx_HAL_Driver/Src/stm32f4xx_hal_i2c.c ****   hi2c->State = HAL_I2C_STATE_READY;
 7895              		.loc 1 3381 0
 7896 0054 FB68     		ldr	r3, [r7, #12]
 7897 0056 0122     		movs	r2, #1
 7898 0058 83F83520 		strb	r2, [r3, #53]
3382:Drivers/STM32F4xx_HAL_Driver/Src/stm32f4xx_hal_i2c.c **** 
3383:Drivers/STM32F4xx_HAL_Driver/Src/stm32f4xx_hal_i2c.c ****   /* Check if Errors has been detected during transfer */
3384:Drivers/STM32F4xx_HAL_Driver/Src/stm32f4xx_hal_i2c.c ****   if(hi2c->ErrorCode != HAL_I2C_ERROR_NONE)
 7899              		.loc 1 3384 0
 7900 005c FB68     		ldr	r3, [r7, #12]
 7901 005e 9B6B     		ldr	r3, [r3, #56]
 7902 0060 002B     		cmp	r3, #0
 7903 0062 03D0     		beq	.L424
3385:Drivers/STM32F4xx_HAL_Driver/Src/stm32f4xx_hal_i2c.c ****   {
3386:Drivers/STM32F4xx_HAL_Driver/Src/stm32f4xx_hal_i2c.c ****     HAL_I2C_ErrorCallback(hi2c);
 7904              		.loc 1 3386 0
 7905 0064 F868     		ldr	r0, [r7, #12]
 7906 0066 FFF7FEFF 		bl	HAL_I2C_ErrorCallback
 7907 006a 02E0     		b	.L423
 7908              	.L424:
3387:Drivers/STM32F4xx_HAL_Driver/Src/stm32f4xx_hal_i2c.c ****   }
3388:Drivers/STM32F4xx_HAL_Driver/Src/stm32f4xx_hal_i2c.c ****   else
3389:Drivers/STM32F4xx_HAL_Driver/Src/stm32f4xx_hal_i2c.c ****   {
3390:Drivers/STM32F4xx_HAL_Driver/Src/stm32f4xx_hal_i2c.c ****     HAL_I2C_MasterRxCpltCallback(hi2c);
 7909              		.loc 1 3390 0
 7910 006c F868     		ldr	r0, [r7, #12]
 7911 006e FFF7FEFF 		bl	HAL_I2C_MasterRxCpltCallback
 7912              	.L423:
3391:Drivers/STM32F4xx_HAL_Driver/Src/stm32f4xx_hal_i2c.c ****   }
3392:Drivers/STM32F4xx_HAL_Driver/Src/stm32f4xx_hal_i2c.c **** }
 7913              		.loc 1 3392 0
 7914 0072 1037     		adds	r7, r7, #16
 7915 0074 BD46     		mov	sp, r7
 7916              		@ sp needed
 7917 0076 80BD     		pop	{r7, pc}
 7918              		.cfi_endproc
 7919              	.LFE176:
 7921              		.section	.text.I2C_DMASlaveReceiveCplt,"ax",%progbits
 7922              		.align	2
 7923              		.thumb
 7924              		.thumb_func
 7926              	I2C_DMASlaveReceiveCplt:
 7927              	.LFB177:
3393:Drivers/STM32F4xx_HAL_Driver/Src/stm32f4xx_hal_i2c.c **** 
3394:Drivers/STM32F4xx_HAL_Driver/Src/stm32f4xx_hal_i2c.c **** /**
3395:Drivers/STM32F4xx_HAL_Driver/Src/stm32f4xx_hal_i2c.c ****   * @brief  DMA I2C slave receive process complete callback.
3396:Drivers/STM32F4xx_HAL_Driver/Src/stm32f4xx_hal_i2c.c ****   * @param  hdma: DMA handle
3397:Drivers/STM32F4xx_HAL_Driver/Src/stm32f4xx_hal_i2c.c ****   * @retval None
3398:Drivers/STM32F4xx_HAL_Driver/Src/stm32f4xx_hal_i2c.c ****   */
ARM GAS  /tmp/cc5bMm9J.s 			page 198


3399:Drivers/STM32F4xx_HAL_Driver/Src/stm32f4xx_hal_i2c.c **** static void I2C_DMASlaveReceiveCplt(DMA_HandleTypeDef *hdma)
3400:Drivers/STM32F4xx_HAL_Driver/Src/stm32f4xx_hal_i2c.c **** {
 7928              		.loc 1 3400 0
 7929              		.cfi_startproc
 7930              		@ args = 0, pretend = 0, frame = 16
 7931              		@ frame_needed = 1, uses_anonymous_args = 0
 7932 0000 80B5     		push	{r7, lr}
 7933              	.LCFI156:
 7934              		.cfi_def_cfa_offset 8
 7935              		.cfi_offset 7, -8
 7936              		.cfi_offset 14, -4
 7937 0002 84B0     		sub	sp, sp, #16
 7938              	.LCFI157:
 7939              		.cfi_def_cfa_offset 24
 7940 0004 00AF     		add	r7, sp, #0
 7941              	.LCFI158:
 7942              		.cfi_def_cfa_register 7
 7943 0006 7860     		str	r0, [r7, #4]
3401:Drivers/STM32F4xx_HAL_Driver/Src/stm32f4xx_hal_i2c.c ****   I2C_HandleTypeDef* hi2c = (I2C_HandleTypeDef*)((DMA_HandleTypeDef*)hdma)->Parent;
 7944              		.loc 1 3401 0
 7945 0008 7B68     		ldr	r3, [r7, #4]
 7946 000a 9B6B     		ldr	r3, [r3, #56]
 7947 000c FB60     		str	r3, [r7, #12]
3402:Drivers/STM32F4xx_HAL_Driver/Src/stm32f4xx_hal_i2c.c **** 
3403:Drivers/STM32F4xx_HAL_Driver/Src/stm32f4xx_hal_i2c.c ****   /* Wait until STOPF flag is reset */
3404:Drivers/STM32F4xx_HAL_Driver/Src/stm32f4xx_hal_i2c.c ****   if(I2C_WaitOnFlagUntilTimeout(hi2c, I2C_FLAG_STOPF, RESET, I2C_TIMEOUT_FLAG) != HAL_OK)
 7948              		.loc 1 3404 0
 7949 000e F868     		ldr	r0, [r7, #12]
 7950 0010 1F49     		ldr	r1, .L430
 7951 0012 0022     		movs	r2, #0
 7952 0014 2323     		movs	r3, #35
 7953 0016 FFF7FEFF 		bl	I2C_WaitOnFlagUntilTimeout
 7954 001a 0346     		mov	r3, r0
 7955 001c 002B     		cmp	r3, #0
 7956 001e 05D0     		beq	.L427
3405:Drivers/STM32F4xx_HAL_Driver/Src/stm32f4xx_hal_i2c.c ****   {
3406:Drivers/STM32F4xx_HAL_Driver/Src/stm32f4xx_hal_i2c.c ****     hi2c->ErrorCode |= HAL_I2C_ERROR_TIMEOUT;
 7957              		.loc 1 3406 0
 7958 0020 FB68     		ldr	r3, [r7, #12]
 7959 0022 9B6B     		ldr	r3, [r3, #56]
 7960 0024 43F02002 		orr	r2, r3, #32
 7961 0028 FB68     		ldr	r3, [r7, #12]
 7962 002a 9A63     		str	r2, [r3, #56]
 7963              	.L427:
 7964              	.LBB33:
3407:Drivers/STM32F4xx_HAL_Driver/Src/stm32f4xx_hal_i2c.c ****   }
3408:Drivers/STM32F4xx_HAL_Driver/Src/stm32f4xx_hal_i2c.c **** 
3409:Drivers/STM32F4xx_HAL_Driver/Src/stm32f4xx_hal_i2c.c ****   /* Clear STOPF flag */
3410:Drivers/STM32F4xx_HAL_Driver/Src/stm32f4xx_hal_i2c.c ****   __HAL_I2C_CLEAR_STOPFLAG(hi2c);
 7965              		.loc 1 3410 0
 7966 002c FB68     		ldr	r3, [r7, #12]
 7967 002e 1B68     		ldr	r3, [r3]
 7968 0030 5B69     		ldr	r3, [r3, #20]
 7969 0032 BB60     		str	r3, [r7, #8]
 7970 0034 FB68     		ldr	r3, [r7, #12]
 7971 0036 1B68     		ldr	r3, [r3]
 7972 0038 FA68     		ldr	r2, [r7, #12]
ARM GAS  /tmp/cc5bMm9J.s 			page 199


 7973 003a 1268     		ldr	r2, [r2]
 7974 003c 1268     		ldr	r2, [r2]
 7975 003e 42F00102 		orr	r2, r2, #1
 7976 0042 1A60     		str	r2, [r3]
 7977 0044 BB68     		ldr	r3, [r7, #8]
 7978              	.LBE33:
3411:Drivers/STM32F4xx_HAL_Driver/Src/stm32f4xx_hal_i2c.c **** 
3412:Drivers/STM32F4xx_HAL_Driver/Src/stm32f4xx_hal_i2c.c ****   /* Disable Address Acknowledge */
3413:Drivers/STM32F4xx_HAL_Driver/Src/stm32f4xx_hal_i2c.c ****   hi2c->Instance->CR1 &= ~I2C_CR1_ACK;
 7979              		.loc 1 3413 0
 7980 0046 FB68     		ldr	r3, [r7, #12]
 7981 0048 1B68     		ldr	r3, [r3]
 7982 004a FA68     		ldr	r2, [r7, #12]
 7983 004c 1268     		ldr	r2, [r2]
 7984 004e 1268     		ldr	r2, [r2]
 7985 0050 22F48062 		bic	r2, r2, #1024
 7986 0054 1A60     		str	r2, [r3]
3414:Drivers/STM32F4xx_HAL_Driver/Src/stm32f4xx_hal_i2c.c **** 
3415:Drivers/STM32F4xx_HAL_Driver/Src/stm32f4xx_hal_i2c.c ****   /* Disable DMA Request */
3416:Drivers/STM32F4xx_HAL_Driver/Src/stm32f4xx_hal_i2c.c ****   hi2c->Instance->CR2 &= ~I2C_CR2_DMAEN;
 7987              		.loc 1 3416 0
 7988 0056 FB68     		ldr	r3, [r7, #12]
 7989 0058 1B68     		ldr	r3, [r3]
 7990 005a FA68     		ldr	r2, [r7, #12]
 7991 005c 1268     		ldr	r2, [r2]
 7992 005e 5268     		ldr	r2, [r2, #4]
 7993 0060 22F40062 		bic	r2, r2, #2048
 7994 0064 5A60     		str	r2, [r3, #4]
3417:Drivers/STM32F4xx_HAL_Driver/Src/stm32f4xx_hal_i2c.c **** 
3418:Drivers/STM32F4xx_HAL_Driver/Src/stm32f4xx_hal_i2c.c ****   hi2c->XferCount = 0;
 7995              		.loc 1 3418 0
 7996 0066 FB68     		ldr	r3, [r7, #12]
 7997 0068 0022     		movs	r2, #0
 7998 006a 5A85     		strh	r2, [r3, #42]	@ movhi
3419:Drivers/STM32F4xx_HAL_Driver/Src/stm32f4xx_hal_i2c.c **** 
3420:Drivers/STM32F4xx_HAL_Driver/Src/stm32f4xx_hal_i2c.c ****   hi2c->State = HAL_I2C_STATE_READY;
 7999              		.loc 1 3420 0
 8000 006c FB68     		ldr	r3, [r7, #12]
 8001 006e 0122     		movs	r2, #1
 8002 0070 83F83520 		strb	r2, [r3, #53]
3421:Drivers/STM32F4xx_HAL_Driver/Src/stm32f4xx_hal_i2c.c **** 
3422:Drivers/STM32F4xx_HAL_Driver/Src/stm32f4xx_hal_i2c.c ****   /* Check if Errors has been detected during transfer */
3423:Drivers/STM32F4xx_HAL_Driver/Src/stm32f4xx_hal_i2c.c ****   if(hi2c->ErrorCode != HAL_I2C_ERROR_NONE)
 8003              		.loc 1 3423 0
 8004 0074 FB68     		ldr	r3, [r7, #12]
 8005 0076 9B6B     		ldr	r3, [r3, #56]
 8006 0078 002B     		cmp	r3, #0
 8007 007a 03D0     		beq	.L428
3424:Drivers/STM32F4xx_HAL_Driver/Src/stm32f4xx_hal_i2c.c ****   {
3425:Drivers/STM32F4xx_HAL_Driver/Src/stm32f4xx_hal_i2c.c ****     HAL_I2C_ErrorCallback(hi2c);
 8008              		.loc 1 3425 0
 8009 007c F868     		ldr	r0, [r7, #12]
 8010 007e FFF7FEFF 		bl	HAL_I2C_ErrorCallback
 8011 0082 02E0     		b	.L426
 8012              	.L428:
3426:Drivers/STM32F4xx_HAL_Driver/Src/stm32f4xx_hal_i2c.c ****   }
3427:Drivers/STM32F4xx_HAL_Driver/Src/stm32f4xx_hal_i2c.c ****   else
ARM GAS  /tmp/cc5bMm9J.s 			page 200


3428:Drivers/STM32F4xx_HAL_Driver/Src/stm32f4xx_hal_i2c.c ****   {
3429:Drivers/STM32F4xx_HAL_Driver/Src/stm32f4xx_hal_i2c.c ****     HAL_I2C_SlaveRxCpltCallback(hi2c);
 8013              		.loc 1 3429 0
 8014 0084 F868     		ldr	r0, [r7, #12]
 8015 0086 FFF7FEFF 		bl	HAL_I2C_SlaveRxCpltCallback
 8016              	.L426:
3430:Drivers/STM32F4xx_HAL_Driver/Src/stm32f4xx_hal_i2c.c ****   }
3431:Drivers/STM32F4xx_HAL_Driver/Src/stm32f4xx_hal_i2c.c **** }
 8017              		.loc 1 3431 0
 8018 008a 1037     		adds	r7, r7, #16
 8019 008c BD46     		mov	sp, r7
 8020              		@ sp needed
 8021 008e 80BD     		pop	{r7, pc}
 8022              	.L431:
 8023              		.align	2
 8024              	.L430:
 8025 0090 10000100 		.word	65552
 8026              		.cfi_endproc
 8027              	.LFE177:
 8029              		.section	.text.I2C_DMAMemTransmitCplt,"ax",%progbits
 8030              		.align	2
 8031              		.thumb
 8032              		.thumb_func
 8034              	I2C_DMAMemTransmitCplt:
 8035              	.LFB178:
3432:Drivers/STM32F4xx_HAL_Driver/Src/stm32f4xx_hal_i2c.c **** 
3433:Drivers/STM32F4xx_HAL_Driver/Src/stm32f4xx_hal_i2c.c **** /**
3434:Drivers/STM32F4xx_HAL_Driver/Src/stm32f4xx_hal_i2c.c ****   * @brief  DMA I2C Memory Write process complete callback
3435:Drivers/STM32F4xx_HAL_Driver/Src/stm32f4xx_hal_i2c.c ****   * @param  hdma: DMA handle
3436:Drivers/STM32F4xx_HAL_Driver/Src/stm32f4xx_hal_i2c.c ****   * @retval None
3437:Drivers/STM32F4xx_HAL_Driver/Src/stm32f4xx_hal_i2c.c ****   */
3438:Drivers/STM32F4xx_HAL_Driver/Src/stm32f4xx_hal_i2c.c **** static void I2C_DMAMemTransmitCplt(DMA_HandleTypeDef *hdma)
3439:Drivers/STM32F4xx_HAL_Driver/Src/stm32f4xx_hal_i2c.c **** {
 8036              		.loc 1 3439 0
 8037              		.cfi_startproc
 8038              		@ args = 0, pretend = 0, frame = 16
 8039              		@ frame_needed = 1, uses_anonymous_args = 0
 8040 0000 80B5     		push	{r7, lr}
 8041              	.LCFI159:
 8042              		.cfi_def_cfa_offset 8
 8043              		.cfi_offset 7, -8
 8044              		.cfi_offset 14, -4
 8045 0002 84B0     		sub	sp, sp, #16
 8046              	.LCFI160:
 8047              		.cfi_def_cfa_offset 24
 8048 0004 00AF     		add	r7, sp, #0
 8049              	.LCFI161:
 8050              		.cfi_def_cfa_register 7
 8051 0006 7860     		str	r0, [r7, #4]
3440:Drivers/STM32F4xx_HAL_Driver/Src/stm32f4xx_hal_i2c.c ****   I2C_HandleTypeDef* hi2c = (I2C_HandleTypeDef*)((DMA_HandleTypeDef*)hdma)->Parent;
 8052              		.loc 1 3440 0
 8053 0008 7B68     		ldr	r3, [r7, #4]
 8054 000a 9B6B     		ldr	r3, [r3, #56]
 8055 000c FB60     		str	r3, [r7, #12]
3441:Drivers/STM32F4xx_HAL_Driver/Src/stm32f4xx_hal_i2c.c **** 
3442:Drivers/STM32F4xx_HAL_Driver/Src/stm32f4xx_hal_i2c.c ****   /* Wait until BTF flag is reset */
3443:Drivers/STM32F4xx_HAL_Driver/Src/stm32f4xx_hal_i2c.c ****   if(I2C_WaitOnFlagUntilTimeout(hi2c, I2C_FLAG_BTF, RESET, I2C_TIMEOUT_FLAG) != HAL_OK)
ARM GAS  /tmp/cc5bMm9J.s 			page 201


 8056              		.loc 1 3443 0
 8057 000e F868     		ldr	r0, [r7, #12]
 8058 0010 1949     		ldr	r1, .L436
 8059 0012 0022     		movs	r2, #0
 8060 0014 2323     		movs	r3, #35
 8061 0016 FFF7FEFF 		bl	I2C_WaitOnFlagUntilTimeout
 8062 001a 0346     		mov	r3, r0
 8063 001c 002B     		cmp	r3, #0
 8064 001e 05D0     		beq	.L433
3444:Drivers/STM32F4xx_HAL_Driver/Src/stm32f4xx_hal_i2c.c ****   {
3445:Drivers/STM32F4xx_HAL_Driver/Src/stm32f4xx_hal_i2c.c ****     hi2c->ErrorCode |= HAL_I2C_ERROR_TIMEOUT;
 8065              		.loc 1 3445 0
 8066 0020 FB68     		ldr	r3, [r7, #12]
 8067 0022 9B6B     		ldr	r3, [r3, #56]
 8068 0024 43F02002 		orr	r2, r3, #32
 8069 0028 FB68     		ldr	r3, [r7, #12]
 8070 002a 9A63     		str	r2, [r3, #56]
 8071              	.L433:
3446:Drivers/STM32F4xx_HAL_Driver/Src/stm32f4xx_hal_i2c.c ****   }
3447:Drivers/STM32F4xx_HAL_Driver/Src/stm32f4xx_hal_i2c.c **** 
3448:Drivers/STM32F4xx_HAL_Driver/Src/stm32f4xx_hal_i2c.c ****   /* Generate Stop */
3449:Drivers/STM32F4xx_HAL_Driver/Src/stm32f4xx_hal_i2c.c ****   hi2c->Instance->CR1 |= I2C_CR1_STOP;
 8072              		.loc 1 3449 0
 8073 002c FB68     		ldr	r3, [r7, #12]
 8074 002e 1B68     		ldr	r3, [r3]
 8075 0030 FA68     		ldr	r2, [r7, #12]
 8076 0032 1268     		ldr	r2, [r2]
 8077 0034 1268     		ldr	r2, [r2]
 8078 0036 42F40072 		orr	r2, r2, #512
 8079 003a 1A60     		str	r2, [r3]
3450:Drivers/STM32F4xx_HAL_Driver/Src/stm32f4xx_hal_i2c.c **** 
3451:Drivers/STM32F4xx_HAL_Driver/Src/stm32f4xx_hal_i2c.c ****   /* Disable DMA Request */
3452:Drivers/STM32F4xx_HAL_Driver/Src/stm32f4xx_hal_i2c.c ****   hi2c->Instance->CR2 &= ~I2C_CR2_DMAEN;
 8080              		.loc 1 3452 0
 8081 003c FB68     		ldr	r3, [r7, #12]
 8082 003e 1B68     		ldr	r3, [r3]
 8083 0040 FA68     		ldr	r2, [r7, #12]
 8084 0042 1268     		ldr	r2, [r2]
 8085 0044 5268     		ldr	r2, [r2, #4]
 8086 0046 22F40062 		bic	r2, r2, #2048
 8087 004a 5A60     		str	r2, [r3, #4]
3453:Drivers/STM32F4xx_HAL_Driver/Src/stm32f4xx_hal_i2c.c **** 
3454:Drivers/STM32F4xx_HAL_Driver/Src/stm32f4xx_hal_i2c.c ****   hi2c->XferCount = 0;
 8088              		.loc 1 3454 0
 8089 004c FB68     		ldr	r3, [r7, #12]
 8090 004e 0022     		movs	r2, #0
 8091 0050 5A85     		strh	r2, [r3, #42]	@ movhi
3455:Drivers/STM32F4xx_HAL_Driver/Src/stm32f4xx_hal_i2c.c **** 
3456:Drivers/STM32F4xx_HAL_Driver/Src/stm32f4xx_hal_i2c.c ****   hi2c->State = HAL_I2C_STATE_READY;
 8092              		.loc 1 3456 0
 8093 0052 FB68     		ldr	r3, [r7, #12]
 8094 0054 0122     		movs	r2, #1
 8095 0056 83F83520 		strb	r2, [r3, #53]
3457:Drivers/STM32F4xx_HAL_Driver/Src/stm32f4xx_hal_i2c.c **** 
3458:Drivers/STM32F4xx_HAL_Driver/Src/stm32f4xx_hal_i2c.c ****   /* Check if Errors has been detected during transfer */
3459:Drivers/STM32F4xx_HAL_Driver/Src/stm32f4xx_hal_i2c.c ****   if(hi2c->ErrorCode != HAL_I2C_ERROR_NONE)
 8096              		.loc 1 3459 0
ARM GAS  /tmp/cc5bMm9J.s 			page 202


 8097 005a FB68     		ldr	r3, [r7, #12]
 8098 005c 9B6B     		ldr	r3, [r3, #56]
 8099 005e 002B     		cmp	r3, #0
 8100 0060 03D0     		beq	.L434
3460:Drivers/STM32F4xx_HAL_Driver/Src/stm32f4xx_hal_i2c.c ****   {
3461:Drivers/STM32F4xx_HAL_Driver/Src/stm32f4xx_hal_i2c.c ****     HAL_I2C_ErrorCallback(hi2c);
 8101              		.loc 1 3461 0
 8102 0062 F868     		ldr	r0, [r7, #12]
 8103 0064 FFF7FEFF 		bl	HAL_I2C_ErrorCallback
 8104 0068 02E0     		b	.L432
 8105              	.L434:
3462:Drivers/STM32F4xx_HAL_Driver/Src/stm32f4xx_hal_i2c.c ****   }
3463:Drivers/STM32F4xx_HAL_Driver/Src/stm32f4xx_hal_i2c.c ****   else
3464:Drivers/STM32F4xx_HAL_Driver/Src/stm32f4xx_hal_i2c.c ****   {
3465:Drivers/STM32F4xx_HAL_Driver/Src/stm32f4xx_hal_i2c.c ****     HAL_I2C_MemTxCpltCallback(hi2c);
 8106              		.loc 1 3465 0
 8107 006a F868     		ldr	r0, [r7, #12]
 8108 006c FFF7FEFF 		bl	HAL_I2C_MemTxCpltCallback
 8109              	.L432:
3466:Drivers/STM32F4xx_HAL_Driver/Src/stm32f4xx_hal_i2c.c ****   }
3467:Drivers/STM32F4xx_HAL_Driver/Src/stm32f4xx_hal_i2c.c **** }
 8110              		.loc 1 3467 0
 8111 0070 1037     		adds	r7, r7, #16
 8112 0072 BD46     		mov	sp, r7
 8113              		@ sp needed
 8114 0074 80BD     		pop	{r7, pc}
 8115              	.L437:
 8116 0076 00BF     		.align	2
 8117              	.L436:
 8118 0078 04000100 		.word	65540
 8119              		.cfi_endproc
 8120              	.LFE178:
 8122              		.section	.text.I2C_DMAMemReceiveCplt,"ax",%progbits
 8123              		.align	2
 8124              		.thumb
 8125              		.thumb_func
 8127              	I2C_DMAMemReceiveCplt:
 8128              	.LFB179:
3468:Drivers/STM32F4xx_HAL_Driver/Src/stm32f4xx_hal_i2c.c **** 
3469:Drivers/STM32F4xx_HAL_Driver/Src/stm32f4xx_hal_i2c.c **** /**
3470:Drivers/STM32F4xx_HAL_Driver/Src/stm32f4xx_hal_i2c.c ****   * @brief  DMA I2C Memory Read process complete callback
3471:Drivers/STM32F4xx_HAL_Driver/Src/stm32f4xx_hal_i2c.c ****   * @param  hdma: DMA handle
3472:Drivers/STM32F4xx_HAL_Driver/Src/stm32f4xx_hal_i2c.c ****   * @retval None
3473:Drivers/STM32F4xx_HAL_Driver/Src/stm32f4xx_hal_i2c.c ****   */
3474:Drivers/STM32F4xx_HAL_Driver/Src/stm32f4xx_hal_i2c.c **** static void I2C_DMAMemReceiveCplt(DMA_HandleTypeDef *hdma)
3475:Drivers/STM32F4xx_HAL_Driver/Src/stm32f4xx_hal_i2c.c **** {
 8129              		.loc 1 3475 0
 8130              		.cfi_startproc
 8131              		@ args = 0, pretend = 0, frame = 16
 8132              		@ frame_needed = 1, uses_anonymous_args = 0
 8133 0000 80B5     		push	{r7, lr}
 8134              	.LCFI162:
 8135              		.cfi_def_cfa_offset 8
 8136              		.cfi_offset 7, -8
 8137              		.cfi_offset 14, -4
 8138 0002 84B0     		sub	sp, sp, #16
 8139              	.LCFI163:
ARM GAS  /tmp/cc5bMm9J.s 			page 203


 8140              		.cfi_def_cfa_offset 24
 8141 0004 00AF     		add	r7, sp, #0
 8142              	.LCFI164:
 8143              		.cfi_def_cfa_register 7
 8144 0006 7860     		str	r0, [r7, #4]
3476:Drivers/STM32F4xx_HAL_Driver/Src/stm32f4xx_hal_i2c.c ****   I2C_HandleTypeDef* hi2c = (I2C_HandleTypeDef*)((DMA_HandleTypeDef*)hdma)->Parent;
 8145              		.loc 1 3476 0
 8146 0008 7B68     		ldr	r3, [r7, #4]
 8147 000a 9B6B     		ldr	r3, [r3, #56]
 8148 000c FB60     		str	r3, [r7, #12]
3477:Drivers/STM32F4xx_HAL_Driver/Src/stm32f4xx_hal_i2c.c **** 
3478:Drivers/STM32F4xx_HAL_Driver/Src/stm32f4xx_hal_i2c.c ****   /* Disable Acknowledge */
3479:Drivers/STM32F4xx_HAL_Driver/Src/stm32f4xx_hal_i2c.c ****   hi2c->Instance->CR1 &= ~I2C_CR1_ACK;
 8149              		.loc 1 3479 0
 8150 000e FB68     		ldr	r3, [r7, #12]
 8151 0010 1B68     		ldr	r3, [r3]
 8152 0012 FA68     		ldr	r2, [r7, #12]
 8153 0014 1268     		ldr	r2, [r2]
 8154 0016 1268     		ldr	r2, [r2]
 8155 0018 22F48062 		bic	r2, r2, #1024
 8156 001c 1A60     		str	r2, [r3]
3480:Drivers/STM32F4xx_HAL_Driver/Src/stm32f4xx_hal_i2c.c ****   
3481:Drivers/STM32F4xx_HAL_Driver/Src/stm32f4xx_hal_i2c.c ****   /* Generate Stop */
3482:Drivers/STM32F4xx_HAL_Driver/Src/stm32f4xx_hal_i2c.c ****   hi2c->Instance->CR1 |= I2C_CR1_STOP;
 8157              		.loc 1 3482 0
 8158 001e FB68     		ldr	r3, [r7, #12]
 8159 0020 1B68     		ldr	r3, [r3]
 8160 0022 FA68     		ldr	r2, [r7, #12]
 8161 0024 1268     		ldr	r2, [r2]
 8162 0026 1268     		ldr	r2, [r2]
 8163 0028 42F40072 		orr	r2, r2, #512
 8164 002c 1A60     		str	r2, [r3]
3483:Drivers/STM32F4xx_HAL_Driver/Src/stm32f4xx_hal_i2c.c **** 
3484:Drivers/STM32F4xx_HAL_Driver/Src/stm32f4xx_hal_i2c.c ****   /* Disable Last DMA */
3485:Drivers/STM32F4xx_HAL_Driver/Src/stm32f4xx_hal_i2c.c ****   hi2c->Instance->CR2 &= ~I2C_CR2_LAST;
 8165              		.loc 1 3485 0
 8166 002e FB68     		ldr	r3, [r7, #12]
 8167 0030 1B68     		ldr	r3, [r3]
 8168 0032 FA68     		ldr	r2, [r7, #12]
 8169 0034 1268     		ldr	r2, [r2]
 8170 0036 5268     		ldr	r2, [r2, #4]
 8171 0038 22F48052 		bic	r2, r2, #4096
 8172 003c 5A60     		str	r2, [r3, #4]
3486:Drivers/STM32F4xx_HAL_Driver/Src/stm32f4xx_hal_i2c.c **** 
3487:Drivers/STM32F4xx_HAL_Driver/Src/stm32f4xx_hal_i2c.c ****   /* Disable DMA Request */
3488:Drivers/STM32F4xx_HAL_Driver/Src/stm32f4xx_hal_i2c.c ****   hi2c->Instance->CR2 &= ~I2C_CR2_DMAEN;
 8173              		.loc 1 3488 0
 8174 003e FB68     		ldr	r3, [r7, #12]
 8175 0040 1B68     		ldr	r3, [r3]
 8176 0042 FA68     		ldr	r2, [r7, #12]
 8177 0044 1268     		ldr	r2, [r2]
 8178 0046 5268     		ldr	r2, [r2, #4]
 8179 0048 22F40062 		bic	r2, r2, #2048
 8180 004c 5A60     		str	r2, [r3, #4]
3489:Drivers/STM32F4xx_HAL_Driver/Src/stm32f4xx_hal_i2c.c **** 
3490:Drivers/STM32F4xx_HAL_Driver/Src/stm32f4xx_hal_i2c.c ****   hi2c->XferCount = 0;
 8181              		.loc 1 3490 0
ARM GAS  /tmp/cc5bMm9J.s 			page 204


 8182 004e FB68     		ldr	r3, [r7, #12]
 8183 0050 0022     		movs	r2, #0
 8184 0052 5A85     		strh	r2, [r3, #42]	@ movhi
3491:Drivers/STM32F4xx_HAL_Driver/Src/stm32f4xx_hal_i2c.c **** 
3492:Drivers/STM32F4xx_HAL_Driver/Src/stm32f4xx_hal_i2c.c ****   hi2c->State = HAL_I2C_STATE_READY;
 8185              		.loc 1 3492 0
 8186 0054 FB68     		ldr	r3, [r7, #12]
 8187 0056 0122     		movs	r2, #1
 8188 0058 83F83520 		strb	r2, [r3, #53]
3493:Drivers/STM32F4xx_HAL_Driver/Src/stm32f4xx_hal_i2c.c **** 
3494:Drivers/STM32F4xx_HAL_Driver/Src/stm32f4xx_hal_i2c.c ****   /* Check if Errors has been detected during transfer */
3495:Drivers/STM32F4xx_HAL_Driver/Src/stm32f4xx_hal_i2c.c ****   if(hi2c->ErrorCode != HAL_I2C_ERROR_NONE)
 8189              		.loc 1 3495 0
 8190 005c FB68     		ldr	r3, [r7, #12]
 8191 005e 9B6B     		ldr	r3, [r3, #56]
 8192 0060 002B     		cmp	r3, #0
 8193 0062 03D0     		beq	.L439
3496:Drivers/STM32F4xx_HAL_Driver/Src/stm32f4xx_hal_i2c.c ****   {
3497:Drivers/STM32F4xx_HAL_Driver/Src/stm32f4xx_hal_i2c.c ****     HAL_I2C_ErrorCallback(hi2c);
 8194              		.loc 1 3497 0
 8195 0064 F868     		ldr	r0, [r7, #12]
 8196 0066 FFF7FEFF 		bl	HAL_I2C_ErrorCallback
 8197 006a 02E0     		b	.L438
 8198              	.L439:
3498:Drivers/STM32F4xx_HAL_Driver/Src/stm32f4xx_hal_i2c.c ****   }
3499:Drivers/STM32F4xx_HAL_Driver/Src/stm32f4xx_hal_i2c.c ****   else
3500:Drivers/STM32F4xx_HAL_Driver/Src/stm32f4xx_hal_i2c.c ****   {
3501:Drivers/STM32F4xx_HAL_Driver/Src/stm32f4xx_hal_i2c.c ****     HAL_I2C_MemRxCpltCallback(hi2c);
 8199              		.loc 1 3501 0
 8200 006c F868     		ldr	r0, [r7, #12]
 8201 006e FFF7FEFF 		bl	HAL_I2C_MemRxCpltCallback
 8202              	.L438:
3502:Drivers/STM32F4xx_HAL_Driver/Src/stm32f4xx_hal_i2c.c ****   }
3503:Drivers/STM32F4xx_HAL_Driver/Src/stm32f4xx_hal_i2c.c **** }
 8203              		.loc 1 3503 0
 8204 0072 1037     		adds	r7, r7, #16
 8205 0074 BD46     		mov	sp, r7
 8206              		@ sp needed
 8207 0076 80BD     		pop	{r7, pc}
 8208              		.cfi_endproc
 8209              	.LFE179:
 8211              		.section	.text.I2C_DMAError,"ax",%progbits
 8212              		.align	2
 8213              		.thumb
 8214              		.thumb_func
 8216              	I2C_DMAError:
 8217              	.LFB180:
3504:Drivers/STM32F4xx_HAL_Driver/Src/stm32f4xx_hal_i2c.c **** 
3505:Drivers/STM32F4xx_HAL_Driver/Src/stm32f4xx_hal_i2c.c **** /**
3506:Drivers/STM32F4xx_HAL_Driver/Src/stm32f4xx_hal_i2c.c ****   * @brief  DMA I2C communication error callback.
3507:Drivers/STM32F4xx_HAL_Driver/Src/stm32f4xx_hal_i2c.c ****   * @param  hdma: DMA handle
3508:Drivers/STM32F4xx_HAL_Driver/Src/stm32f4xx_hal_i2c.c ****   * @retval None
3509:Drivers/STM32F4xx_HAL_Driver/Src/stm32f4xx_hal_i2c.c ****   */
3510:Drivers/STM32F4xx_HAL_Driver/Src/stm32f4xx_hal_i2c.c **** static void I2C_DMAError(DMA_HandleTypeDef *hdma)
3511:Drivers/STM32F4xx_HAL_Driver/Src/stm32f4xx_hal_i2c.c **** {
 8218              		.loc 1 3511 0
 8219              		.cfi_startproc
ARM GAS  /tmp/cc5bMm9J.s 			page 205


 8220              		@ args = 0, pretend = 0, frame = 16
 8221              		@ frame_needed = 1, uses_anonymous_args = 0
 8222 0000 80B5     		push	{r7, lr}
 8223              	.LCFI165:
 8224              		.cfi_def_cfa_offset 8
 8225              		.cfi_offset 7, -8
 8226              		.cfi_offset 14, -4
 8227 0002 84B0     		sub	sp, sp, #16
 8228              	.LCFI166:
 8229              		.cfi_def_cfa_offset 24
 8230 0004 00AF     		add	r7, sp, #0
 8231              	.LCFI167:
 8232              		.cfi_def_cfa_register 7
 8233 0006 7860     		str	r0, [r7, #4]
3512:Drivers/STM32F4xx_HAL_Driver/Src/stm32f4xx_hal_i2c.c ****   I2C_HandleTypeDef* hi2c = (I2C_HandleTypeDef*)((DMA_HandleTypeDef*)hdma)->Parent;
 8234              		.loc 1 3512 0
 8235 0008 7B68     		ldr	r3, [r7, #4]
 8236 000a 9B6B     		ldr	r3, [r3, #56]
 8237 000c FB60     		str	r3, [r7, #12]
3513:Drivers/STM32F4xx_HAL_Driver/Src/stm32f4xx_hal_i2c.c **** 
3514:Drivers/STM32F4xx_HAL_Driver/Src/stm32f4xx_hal_i2c.c ****   /* Disable Acknowledge */
3515:Drivers/STM32F4xx_HAL_Driver/Src/stm32f4xx_hal_i2c.c ****   hi2c->Instance->CR1 &= ~I2C_CR1_ACK;
 8238              		.loc 1 3515 0
 8239 000e FB68     		ldr	r3, [r7, #12]
 8240 0010 1B68     		ldr	r3, [r3]
 8241 0012 FA68     		ldr	r2, [r7, #12]
 8242 0014 1268     		ldr	r2, [r2]
 8243 0016 1268     		ldr	r2, [r2]
 8244 0018 22F48062 		bic	r2, r2, #1024
 8245 001c 1A60     		str	r2, [r3]
3516:Drivers/STM32F4xx_HAL_Driver/Src/stm32f4xx_hal_i2c.c **** 
3517:Drivers/STM32F4xx_HAL_Driver/Src/stm32f4xx_hal_i2c.c ****   hi2c->XferCount = 0;
 8246              		.loc 1 3517 0
 8247 001e FB68     		ldr	r3, [r7, #12]
 8248 0020 0022     		movs	r2, #0
 8249 0022 5A85     		strh	r2, [r3, #42]	@ movhi
3518:Drivers/STM32F4xx_HAL_Driver/Src/stm32f4xx_hal_i2c.c **** 
3519:Drivers/STM32F4xx_HAL_Driver/Src/stm32f4xx_hal_i2c.c ****   hi2c->State = HAL_I2C_STATE_READY;
 8250              		.loc 1 3519 0
 8251 0024 FB68     		ldr	r3, [r7, #12]
 8252 0026 0122     		movs	r2, #1
 8253 0028 83F83520 		strb	r2, [r3, #53]
3520:Drivers/STM32F4xx_HAL_Driver/Src/stm32f4xx_hal_i2c.c **** 
3521:Drivers/STM32F4xx_HAL_Driver/Src/stm32f4xx_hal_i2c.c ****   hi2c->ErrorCode |= HAL_I2C_ERROR_DMA;
 8254              		.loc 1 3521 0
 8255 002c FB68     		ldr	r3, [r7, #12]
 8256 002e 9B6B     		ldr	r3, [r3, #56]
 8257 0030 43F01002 		orr	r2, r3, #16
 8258 0034 FB68     		ldr	r3, [r7, #12]
 8259 0036 9A63     		str	r2, [r3, #56]
3522:Drivers/STM32F4xx_HAL_Driver/Src/stm32f4xx_hal_i2c.c **** 
3523:Drivers/STM32F4xx_HAL_Driver/Src/stm32f4xx_hal_i2c.c ****   HAL_I2C_ErrorCallback(hi2c);
 8260              		.loc 1 3523 0
 8261 0038 F868     		ldr	r0, [r7, #12]
 8262 003a FFF7FEFF 		bl	HAL_I2C_ErrorCallback
3524:Drivers/STM32F4xx_HAL_Driver/Src/stm32f4xx_hal_i2c.c **** }
 8263              		.loc 1 3524 0
ARM GAS  /tmp/cc5bMm9J.s 			page 206


 8264 003e 1037     		adds	r7, r7, #16
 8265 0040 BD46     		mov	sp, r7
 8266              		@ sp needed
 8267 0042 80BD     		pop	{r7, pc}
 8268              		.cfi_endproc
 8269              	.LFE180:
 8271              		.section	.text.I2C_WaitOnFlagUntilTimeout,"ax",%progbits
 8272              		.align	2
 8273              		.thumb
 8274              		.thumb_func
 8276              	I2C_WaitOnFlagUntilTimeout:
 8277              	.LFB181:
3525:Drivers/STM32F4xx_HAL_Driver/Src/stm32f4xx_hal_i2c.c **** 
3526:Drivers/STM32F4xx_HAL_Driver/Src/stm32f4xx_hal_i2c.c **** /**
3527:Drivers/STM32F4xx_HAL_Driver/Src/stm32f4xx_hal_i2c.c ****   * @brief  This function handles I2C Communication Timeout.
3528:Drivers/STM32F4xx_HAL_Driver/Src/stm32f4xx_hal_i2c.c ****   * @param  hi2c: pointer to a I2C_HandleTypeDef structure that contains
3529:Drivers/STM32F4xx_HAL_Driver/Src/stm32f4xx_hal_i2c.c ****   *         the configuration information for I2C module
3530:Drivers/STM32F4xx_HAL_Driver/Src/stm32f4xx_hal_i2c.c ****   * @param  Flag: specifies the I2C flag to check.
3531:Drivers/STM32F4xx_HAL_Driver/Src/stm32f4xx_hal_i2c.c ****   * @param  Status: The new Flag status (SET or RESET).
3532:Drivers/STM32F4xx_HAL_Driver/Src/stm32f4xx_hal_i2c.c ****   * @param  Timeout: Timeout duration
3533:Drivers/STM32F4xx_HAL_Driver/Src/stm32f4xx_hal_i2c.c ****   * @retval HAL status
3534:Drivers/STM32F4xx_HAL_Driver/Src/stm32f4xx_hal_i2c.c ****   */
3535:Drivers/STM32F4xx_HAL_Driver/Src/stm32f4xx_hal_i2c.c **** static HAL_StatusTypeDef I2C_WaitOnFlagUntilTimeout(I2C_HandleTypeDef *hi2c, uint32_t Flag, FlagSta
3536:Drivers/STM32F4xx_HAL_Driver/Src/stm32f4xx_hal_i2c.c **** {
 8278              		.loc 1 3536 0
 8279              		.cfi_startproc
 8280              		@ args = 0, pretend = 0, frame = 24
 8281              		@ frame_needed = 1, uses_anonymous_args = 0
 8282 0000 80B5     		push	{r7, lr}
 8283              	.LCFI168:
 8284              		.cfi_def_cfa_offset 8
 8285              		.cfi_offset 7, -8
 8286              		.cfi_offset 14, -4
 8287 0002 86B0     		sub	sp, sp, #24
 8288              	.LCFI169:
 8289              		.cfi_def_cfa_offset 32
 8290 0004 00AF     		add	r7, sp, #0
 8291              	.LCFI170:
 8292              		.cfi_def_cfa_register 7
 8293 0006 F860     		str	r0, [r7, #12]
 8294 0008 B960     		str	r1, [r7, #8]
 8295 000a 3B60     		str	r3, [r7]
 8296 000c 1346     		mov	r3, r2
 8297 000e FB71     		strb	r3, [r7, #7]
3537:Drivers/STM32F4xx_HAL_Driver/Src/stm32f4xx_hal_i2c.c ****   uint32_t tickstart = 0;
 8298              		.loc 1 3537 0
 8299 0010 0023     		movs	r3, #0
 8300 0012 7B61     		str	r3, [r7, #20]
3538:Drivers/STM32F4xx_HAL_Driver/Src/stm32f4xx_hal_i2c.c **** 
3539:Drivers/STM32F4xx_HAL_Driver/Src/stm32f4xx_hal_i2c.c ****   /* Get tick */
3540:Drivers/STM32F4xx_HAL_Driver/Src/stm32f4xx_hal_i2c.c ****   tickstart = HAL_GetTick();
 8301              		.loc 1 3540 0
 8302 0014 FFF7FEFF 		bl	HAL_GetTick
 8303 0018 7861     		str	r0, [r7, #20]
3541:Drivers/STM32F4xx_HAL_Driver/Src/stm32f4xx_hal_i2c.c **** 
3542:Drivers/STM32F4xx_HAL_Driver/Src/stm32f4xx_hal_i2c.c ****   /* Wait until flag is set */
3543:Drivers/STM32F4xx_HAL_Driver/Src/stm32f4xx_hal_i2c.c ****   if(Status == RESET)
ARM GAS  /tmp/cc5bMm9J.s 			page 207


 8304              		.loc 1 3543 0
 8305 001a FB79     		ldrb	r3, [r7, #7]	@ zero_extendqisi2
 8306 001c 002B     		cmp	r3, #0
 8307 001e 3AD1     		bne	.L443
3544:Drivers/STM32F4xx_HAL_Driver/Src/stm32f4xx_hal_i2c.c ****   {
3545:Drivers/STM32F4xx_HAL_Driver/Src/stm32f4xx_hal_i2c.c ****     while(__HAL_I2C_GET_FLAG(hi2c, Flag) == RESET)
 8308              		.loc 1 3545 0
 8309 0020 18E0     		b	.L444
 8310              	.L449:
3546:Drivers/STM32F4xx_HAL_Driver/Src/stm32f4xx_hal_i2c.c ****     {
3547:Drivers/STM32F4xx_HAL_Driver/Src/stm32f4xx_hal_i2c.c ****       /* Check for the Timeout */
3548:Drivers/STM32F4xx_HAL_Driver/Src/stm32f4xx_hal_i2c.c ****       if(Timeout != HAL_MAX_DELAY)
 8311              		.loc 1 3548 0
 8312 0022 3B68     		ldr	r3, [r7]
 8313 0024 B3F1FF3F 		cmp	r3, #-1
 8314 0028 14D0     		beq	.L444
3549:Drivers/STM32F4xx_HAL_Driver/Src/stm32f4xx_hal_i2c.c ****       {
3550:Drivers/STM32F4xx_HAL_Driver/Src/stm32f4xx_hal_i2c.c ****         if((Timeout == 0)||((HAL_GetTick() - tickstart ) > Timeout))
 8315              		.loc 1 3550 0
 8316 002a 3B68     		ldr	r3, [r7]
 8317 002c 002B     		cmp	r3, #0
 8318 002e 07D0     		beq	.L445
 8319              		.loc 1 3550 0 is_stmt 0 discriminator 1
 8320 0030 FFF7FEFF 		bl	HAL_GetTick
 8321 0034 0246     		mov	r2, r0
 8322 0036 7B69     		ldr	r3, [r7, #20]
 8323 0038 D21A     		subs	r2, r2, r3
 8324 003a 3B68     		ldr	r3, [r7]
 8325 003c 9A42     		cmp	r2, r3
 8326 003e 09D9     		bls	.L444
 8327              	.L445:
3551:Drivers/STM32F4xx_HAL_Driver/Src/stm32f4xx_hal_i2c.c ****         {
3552:Drivers/STM32F4xx_HAL_Driver/Src/stm32f4xx_hal_i2c.c ****           hi2c->State= HAL_I2C_STATE_READY;
 8328              		.loc 1 3552 0 is_stmt 1
 8329 0040 FB68     		ldr	r3, [r7, #12]
 8330 0042 0122     		movs	r2, #1
 8331 0044 83F83520 		strb	r2, [r3, #53]
3553:Drivers/STM32F4xx_HAL_Driver/Src/stm32f4xx_hal_i2c.c **** 
3554:Drivers/STM32F4xx_HAL_Driver/Src/stm32f4xx_hal_i2c.c ****           /* Process Unlocked */
3555:Drivers/STM32F4xx_HAL_Driver/Src/stm32f4xx_hal_i2c.c ****           __HAL_UNLOCK(hi2c);
 8332              		.loc 1 3555 0
 8333 0048 FB68     		ldr	r3, [r7, #12]
 8334 004a 0022     		movs	r2, #0
 8335 004c 83F83420 		strb	r2, [r3, #52]
3556:Drivers/STM32F4xx_HAL_Driver/Src/stm32f4xx_hal_i2c.c **** 
3557:Drivers/STM32F4xx_HAL_Driver/Src/stm32f4xx_hal_i2c.c ****           return HAL_TIMEOUT;
 8336              		.loc 1 3557 0
 8337 0050 0323     		movs	r3, #3
 8338 0052 5BE0     		b	.L446
 8339              	.L444:
3545:Drivers/STM32F4xx_HAL_Driver/Src/stm32f4xx_hal_i2c.c ****     {
 8340              		.loc 1 3545 0 discriminator 1
 8341 0054 BB68     		ldr	r3, [r7, #8]
 8342 0056 1B0C     		lsrs	r3, r3, #16
 8343 0058 DBB2     		uxtb	r3, r3
 8344 005a 012B     		cmp	r3, #1
 8345 005c 0CD1     		bne	.L447
ARM GAS  /tmp/cc5bMm9J.s 			page 208


 8346 005e FB68     		ldr	r3, [r7, #12]
 8347 0060 1B68     		ldr	r3, [r3]
 8348 0062 5B69     		ldr	r3, [r3, #20]
 8349 0064 DA43     		mvns	r2, r3
 8350 0066 BB68     		ldr	r3, [r7, #8]
 8351 0068 1340     		ands	r3, r3, r2
 8352 006a 9BB2     		uxth	r3, r3
 8353 006c 002B     		cmp	r3, #0
 8354 006e 0CBF     		ite	eq
 8355 0070 0023     		moveq	r3, #0
 8356 0072 0123     		movne	r3, #1
 8357 0074 DBB2     		uxtb	r3, r3
 8358 0076 0BE0     		b	.L448
 8359              	.L447:
3545:Drivers/STM32F4xx_HAL_Driver/Src/stm32f4xx_hal_i2c.c ****     {
 8360              		.loc 1 3545 0 is_stmt 0 discriminator 2
 8361 0078 FB68     		ldr	r3, [r7, #12]
 8362 007a 1B68     		ldr	r3, [r3]
 8363 007c 9B69     		ldr	r3, [r3, #24]
 8364 007e DA43     		mvns	r2, r3
 8365 0080 BB68     		ldr	r3, [r7, #8]
 8366 0082 1340     		ands	r3, r3, r2
 8367 0084 9BB2     		uxth	r3, r3
 8368 0086 002B     		cmp	r3, #0
 8369 0088 0CBF     		ite	eq
 8370 008a 0023     		moveq	r3, #0
 8371 008c 0123     		movne	r3, #1
 8372 008e DBB2     		uxtb	r3, r3
 8373              	.L448:
3545:Drivers/STM32F4xx_HAL_Driver/Src/stm32f4xx_hal_i2c.c ****     {
 8374              		.loc 1 3545 0 discriminator 3
 8375 0090 002B     		cmp	r3, #0
 8376 0092 C6D1     		bne	.L449
 8377 0094 39E0     		b	.L450
 8378              	.L443:
3558:Drivers/STM32F4xx_HAL_Driver/Src/stm32f4xx_hal_i2c.c ****         }
3559:Drivers/STM32F4xx_HAL_Driver/Src/stm32f4xx_hal_i2c.c ****       }
3560:Drivers/STM32F4xx_HAL_Driver/Src/stm32f4xx_hal_i2c.c ****     }
3561:Drivers/STM32F4xx_HAL_Driver/Src/stm32f4xx_hal_i2c.c ****   }
3562:Drivers/STM32F4xx_HAL_Driver/Src/stm32f4xx_hal_i2c.c ****   else
3563:Drivers/STM32F4xx_HAL_Driver/Src/stm32f4xx_hal_i2c.c ****   {
3564:Drivers/STM32F4xx_HAL_Driver/Src/stm32f4xx_hal_i2c.c ****     while(__HAL_I2C_GET_FLAG(hi2c, Flag) != RESET)
 8379              		.loc 1 3564 0 is_stmt 1
 8380 0096 18E0     		b	.L451
 8381              	.L455:
3565:Drivers/STM32F4xx_HAL_Driver/Src/stm32f4xx_hal_i2c.c ****     {
3566:Drivers/STM32F4xx_HAL_Driver/Src/stm32f4xx_hal_i2c.c ****       /* Check for the Timeout */
3567:Drivers/STM32F4xx_HAL_Driver/Src/stm32f4xx_hal_i2c.c ****       if(Timeout != HAL_MAX_DELAY)
 8382              		.loc 1 3567 0
 8383 0098 3B68     		ldr	r3, [r7]
 8384 009a B3F1FF3F 		cmp	r3, #-1
 8385 009e 14D0     		beq	.L451
3568:Drivers/STM32F4xx_HAL_Driver/Src/stm32f4xx_hal_i2c.c ****       {
3569:Drivers/STM32F4xx_HAL_Driver/Src/stm32f4xx_hal_i2c.c ****         if((Timeout == 0)||((HAL_GetTick() - tickstart ) > Timeout))
 8386              		.loc 1 3569 0
 8387 00a0 3B68     		ldr	r3, [r7]
 8388 00a2 002B     		cmp	r3, #0
ARM GAS  /tmp/cc5bMm9J.s 			page 209


 8389 00a4 07D0     		beq	.L452
 8390              		.loc 1 3569 0 is_stmt 0 discriminator 1
 8391 00a6 FFF7FEFF 		bl	HAL_GetTick
 8392 00aa 0246     		mov	r2, r0
 8393 00ac 7B69     		ldr	r3, [r7, #20]
 8394 00ae D21A     		subs	r2, r2, r3
 8395 00b0 3B68     		ldr	r3, [r7]
 8396 00b2 9A42     		cmp	r2, r3
 8397 00b4 09D9     		bls	.L451
 8398              	.L452:
3570:Drivers/STM32F4xx_HAL_Driver/Src/stm32f4xx_hal_i2c.c ****         {
3571:Drivers/STM32F4xx_HAL_Driver/Src/stm32f4xx_hal_i2c.c ****           hi2c->State= HAL_I2C_STATE_READY;
 8399              		.loc 1 3571 0 is_stmt 1
 8400 00b6 FB68     		ldr	r3, [r7, #12]
 8401 00b8 0122     		movs	r2, #1
 8402 00ba 83F83520 		strb	r2, [r3, #53]
3572:Drivers/STM32F4xx_HAL_Driver/Src/stm32f4xx_hal_i2c.c **** 
3573:Drivers/STM32F4xx_HAL_Driver/Src/stm32f4xx_hal_i2c.c ****           /* Process Unlocked */
3574:Drivers/STM32F4xx_HAL_Driver/Src/stm32f4xx_hal_i2c.c ****           __HAL_UNLOCK(hi2c);
 8403              		.loc 1 3574 0
 8404 00be FB68     		ldr	r3, [r7, #12]
 8405 00c0 0022     		movs	r2, #0
 8406 00c2 83F83420 		strb	r2, [r3, #52]
3575:Drivers/STM32F4xx_HAL_Driver/Src/stm32f4xx_hal_i2c.c **** 
3576:Drivers/STM32F4xx_HAL_Driver/Src/stm32f4xx_hal_i2c.c ****           return HAL_TIMEOUT;
 8407              		.loc 1 3576 0
 8408 00c6 0323     		movs	r3, #3
 8409 00c8 20E0     		b	.L446
 8410              	.L451:
3564:Drivers/STM32F4xx_HAL_Driver/Src/stm32f4xx_hal_i2c.c ****     {
 8411              		.loc 1 3564 0 discriminator 1
 8412 00ca BB68     		ldr	r3, [r7, #8]
 8413 00cc 1B0C     		lsrs	r3, r3, #16
 8414 00ce DBB2     		uxtb	r3, r3
 8415 00d0 012B     		cmp	r3, #1
 8416 00d2 0CD1     		bne	.L453
 8417 00d4 FB68     		ldr	r3, [r7, #12]
 8418 00d6 1B68     		ldr	r3, [r3]
 8419 00d8 5B69     		ldr	r3, [r3, #20]
 8420 00da DA43     		mvns	r2, r3
 8421 00dc BB68     		ldr	r3, [r7, #8]
 8422 00de 1340     		ands	r3, r3, r2
 8423 00e0 9BB2     		uxth	r3, r3
 8424 00e2 002B     		cmp	r3, #0
 8425 00e4 14BF     		ite	ne
 8426 00e6 0023     		movne	r3, #0
 8427 00e8 0123     		moveq	r3, #1
 8428 00ea DBB2     		uxtb	r3, r3
 8429 00ec 0BE0     		b	.L454
 8430              	.L453:
3564:Drivers/STM32F4xx_HAL_Driver/Src/stm32f4xx_hal_i2c.c ****     {
 8431              		.loc 1 3564 0 is_stmt 0 discriminator 2
 8432 00ee FB68     		ldr	r3, [r7, #12]
 8433 00f0 1B68     		ldr	r3, [r3]
 8434 00f2 9B69     		ldr	r3, [r3, #24]
 8435 00f4 DA43     		mvns	r2, r3
 8436 00f6 BB68     		ldr	r3, [r7, #8]
ARM GAS  /tmp/cc5bMm9J.s 			page 210


 8437 00f8 1340     		ands	r3, r3, r2
 8438 00fa 9BB2     		uxth	r3, r3
 8439 00fc 002B     		cmp	r3, #0
 8440 00fe 14BF     		ite	ne
 8441 0100 0023     		movne	r3, #0
 8442 0102 0123     		moveq	r3, #1
 8443 0104 DBB2     		uxtb	r3, r3
 8444              	.L454:
3564:Drivers/STM32F4xx_HAL_Driver/Src/stm32f4xx_hal_i2c.c ****     {
 8445              		.loc 1 3564 0 discriminator 3
 8446 0106 002B     		cmp	r3, #0
 8447 0108 C6D1     		bne	.L455
 8448              	.L450:
3577:Drivers/STM32F4xx_HAL_Driver/Src/stm32f4xx_hal_i2c.c ****         }
3578:Drivers/STM32F4xx_HAL_Driver/Src/stm32f4xx_hal_i2c.c ****       }
3579:Drivers/STM32F4xx_HAL_Driver/Src/stm32f4xx_hal_i2c.c ****     }
3580:Drivers/STM32F4xx_HAL_Driver/Src/stm32f4xx_hal_i2c.c ****   }
3581:Drivers/STM32F4xx_HAL_Driver/Src/stm32f4xx_hal_i2c.c ****   return HAL_OK;
 8449              		.loc 1 3581 0 is_stmt 1
 8450 010a 0023     		movs	r3, #0
 8451              	.L446:
3582:Drivers/STM32F4xx_HAL_Driver/Src/stm32f4xx_hal_i2c.c **** }
 8452              		.loc 1 3582 0
 8453 010c 1846     		mov	r0, r3
 8454 010e 1837     		adds	r7, r7, #24
 8455 0110 BD46     		mov	sp, r7
 8456              		@ sp needed
 8457 0112 80BD     		pop	{r7, pc}
 8458              		.cfi_endproc
 8459              	.LFE181:
 8461              		.section	.text.I2C_WaitOnMasterAddressFlagUntilTimeout,"ax",%progbits
 8462              		.align	2
 8463              		.thumb
 8464              		.thumb_func
 8466              	I2C_WaitOnMasterAddressFlagUntilTimeout:
 8467              	.LFB182:
3583:Drivers/STM32F4xx_HAL_Driver/Src/stm32f4xx_hal_i2c.c **** 
3584:Drivers/STM32F4xx_HAL_Driver/Src/stm32f4xx_hal_i2c.c **** /**
3585:Drivers/STM32F4xx_HAL_Driver/Src/stm32f4xx_hal_i2c.c ****   * @brief  This function handles I2C Communication Timeout for Master addressing phase.
3586:Drivers/STM32F4xx_HAL_Driver/Src/stm32f4xx_hal_i2c.c ****   * @param  hi2c: pointer to a I2C_HandleTypeDef structure that contains
3587:Drivers/STM32F4xx_HAL_Driver/Src/stm32f4xx_hal_i2c.c ****   *         the configuration information for I2C module
3588:Drivers/STM32F4xx_HAL_Driver/Src/stm32f4xx_hal_i2c.c ****   * @param  Flag: specifies the I2C flag to check.
3589:Drivers/STM32F4xx_HAL_Driver/Src/stm32f4xx_hal_i2c.c ****   * @param  Timeout: Timeout duration
3590:Drivers/STM32F4xx_HAL_Driver/Src/stm32f4xx_hal_i2c.c ****   * @retval HAL status
3591:Drivers/STM32F4xx_HAL_Driver/Src/stm32f4xx_hal_i2c.c ****   */
3592:Drivers/STM32F4xx_HAL_Driver/Src/stm32f4xx_hal_i2c.c **** static HAL_StatusTypeDef I2C_WaitOnMasterAddressFlagUntilTimeout(I2C_HandleTypeDef *hi2c, uint32_t 
3593:Drivers/STM32F4xx_HAL_Driver/Src/stm32f4xx_hal_i2c.c **** {
 8468              		.loc 1 3593 0
 8469              		.cfi_startproc
 8470              		@ args = 0, pretend = 0, frame = 24
 8471              		@ frame_needed = 1, uses_anonymous_args = 0
 8472 0000 80B5     		push	{r7, lr}
 8473              	.LCFI171:
 8474              		.cfi_def_cfa_offset 8
 8475              		.cfi_offset 7, -8
 8476              		.cfi_offset 14, -4
 8477 0002 86B0     		sub	sp, sp, #24
ARM GAS  /tmp/cc5bMm9J.s 			page 211


 8478              	.LCFI172:
 8479              		.cfi_def_cfa_offset 32
 8480 0004 00AF     		add	r7, sp, #0
 8481              	.LCFI173:
 8482              		.cfi_def_cfa_register 7
 8483 0006 F860     		str	r0, [r7, #12]
 8484 0008 B960     		str	r1, [r7, #8]
 8485 000a 7A60     		str	r2, [r7, #4]
3594:Drivers/STM32F4xx_HAL_Driver/Src/stm32f4xx_hal_i2c.c ****   uint32_t tickstart = 0;
 8486              		.loc 1 3594 0
 8487 000c 0023     		movs	r3, #0
 8488 000e 7B61     		str	r3, [r7, #20]
3595:Drivers/STM32F4xx_HAL_Driver/Src/stm32f4xx_hal_i2c.c **** 
3596:Drivers/STM32F4xx_HAL_Driver/Src/stm32f4xx_hal_i2c.c ****   /* Get tick */
3597:Drivers/STM32F4xx_HAL_Driver/Src/stm32f4xx_hal_i2c.c ****   tickstart = HAL_GetTick();
 8489              		.loc 1 3597 0
 8490 0010 FFF7FEFF 		bl	HAL_GetTick
 8491 0014 7861     		str	r0, [r7, #20]
3598:Drivers/STM32F4xx_HAL_Driver/Src/stm32f4xx_hal_i2c.c **** 
3599:Drivers/STM32F4xx_HAL_Driver/Src/stm32f4xx_hal_i2c.c ****   while(__HAL_I2C_GET_FLAG(hi2c, Flag) == RESET)
 8492              		.loc 1 3599 0
 8493 0016 39E0     		b	.L457
 8494              	.L463:
3600:Drivers/STM32F4xx_HAL_Driver/Src/stm32f4xx_hal_i2c.c ****   {
3601:Drivers/STM32F4xx_HAL_Driver/Src/stm32f4xx_hal_i2c.c ****     if(__HAL_I2C_GET_FLAG(hi2c, I2C_FLAG_AF) == SET)
 8495              		.loc 1 3601 0
 8496 0018 FB68     		ldr	r3, [r7, #12]
 8497 001a 1B68     		ldr	r3, [r3]
 8498 001c 5B69     		ldr	r3, [r3, #20]
 8499 001e 03F48063 		and	r3, r3, #1024
 8500 0022 002B     		cmp	r3, #0
 8501 0024 19D0     		beq	.L458
3602:Drivers/STM32F4xx_HAL_Driver/Src/stm32f4xx_hal_i2c.c ****     {
3603:Drivers/STM32F4xx_HAL_Driver/Src/stm32f4xx_hal_i2c.c ****       /* Generate Stop */
3604:Drivers/STM32F4xx_HAL_Driver/Src/stm32f4xx_hal_i2c.c ****       hi2c->Instance->CR1 |= I2C_CR1_STOP;
 8502              		.loc 1 3604 0
 8503 0026 FB68     		ldr	r3, [r7, #12]
 8504 0028 1B68     		ldr	r3, [r3]
 8505 002a FA68     		ldr	r2, [r7, #12]
 8506 002c 1268     		ldr	r2, [r2]
 8507 002e 1268     		ldr	r2, [r2]
 8508 0030 42F40072 		orr	r2, r2, #512
 8509 0034 1A60     		str	r2, [r3]
3605:Drivers/STM32F4xx_HAL_Driver/Src/stm32f4xx_hal_i2c.c **** 
3606:Drivers/STM32F4xx_HAL_Driver/Src/stm32f4xx_hal_i2c.c ****       /* Clear AF Flag */
3607:Drivers/STM32F4xx_HAL_Driver/Src/stm32f4xx_hal_i2c.c ****       __HAL_I2C_CLEAR_FLAG(hi2c, I2C_FLAG_AF);
 8510              		.loc 1 3607 0
 8511 0036 FB68     		ldr	r3, [r7, #12]
 8512 0038 1B68     		ldr	r3, [r3]
 8513 003a 6FF48062 		mvn	r2, #1024
 8514 003e 5A61     		str	r2, [r3, #20]
3608:Drivers/STM32F4xx_HAL_Driver/Src/stm32f4xx_hal_i2c.c **** 
3609:Drivers/STM32F4xx_HAL_Driver/Src/stm32f4xx_hal_i2c.c ****       hi2c->ErrorCode = HAL_I2C_ERROR_AF;
 8515              		.loc 1 3609 0
 8516 0040 FB68     		ldr	r3, [r7, #12]
 8517 0042 0422     		movs	r2, #4
 8518 0044 9A63     		str	r2, [r3, #56]
ARM GAS  /tmp/cc5bMm9J.s 			page 212


3610:Drivers/STM32F4xx_HAL_Driver/Src/stm32f4xx_hal_i2c.c ****       hi2c->State= HAL_I2C_STATE_READY;
 8519              		.loc 1 3610 0
 8520 0046 FB68     		ldr	r3, [r7, #12]
 8521 0048 0122     		movs	r2, #1
 8522 004a 83F83520 		strb	r2, [r3, #53]
3611:Drivers/STM32F4xx_HAL_Driver/Src/stm32f4xx_hal_i2c.c **** 
3612:Drivers/STM32F4xx_HAL_Driver/Src/stm32f4xx_hal_i2c.c ****       /* Process Unlocked */
3613:Drivers/STM32F4xx_HAL_Driver/Src/stm32f4xx_hal_i2c.c ****       __HAL_UNLOCK(hi2c);
 8523              		.loc 1 3613 0
 8524 004e FB68     		ldr	r3, [r7, #12]
 8525 0050 0022     		movs	r2, #0
 8526 0052 83F83420 		strb	r2, [r3, #52]
3614:Drivers/STM32F4xx_HAL_Driver/Src/stm32f4xx_hal_i2c.c **** 
3615:Drivers/STM32F4xx_HAL_Driver/Src/stm32f4xx_hal_i2c.c ****       return HAL_ERROR;
 8527              		.loc 1 3615 0
 8528 0056 0123     		movs	r3, #1
 8529 0058 39E0     		b	.L459
 8530              	.L458:
3616:Drivers/STM32F4xx_HAL_Driver/Src/stm32f4xx_hal_i2c.c ****     }
3617:Drivers/STM32F4xx_HAL_Driver/Src/stm32f4xx_hal_i2c.c **** 
3618:Drivers/STM32F4xx_HAL_Driver/Src/stm32f4xx_hal_i2c.c ****     /* Check for the Timeout */
3619:Drivers/STM32F4xx_HAL_Driver/Src/stm32f4xx_hal_i2c.c ****     if(Timeout != HAL_MAX_DELAY)
 8531              		.loc 1 3619 0
 8532 005a 7B68     		ldr	r3, [r7, #4]
 8533 005c B3F1FF3F 		cmp	r3, #-1
 8534 0060 14D0     		beq	.L457
3620:Drivers/STM32F4xx_HAL_Driver/Src/stm32f4xx_hal_i2c.c ****     {
3621:Drivers/STM32F4xx_HAL_Driver/Src/stm32f4xx_hal_i2c.c ****       if((Timeout == 0)||((HAL_GetTick() - tickstart ) > Timeout))
 8535              		.loc 1 3621 0
 8536 0062 7B68     		ldr	r3, [r7, #4]
 8537 0064 002B     		cmp	r3, #0
 8538 0066 07D0     		beq	.L460
 8539              		.loc 1 3621 0 is_stmt 0 discriminator 1
 8540 0068 FFF7FEFF 		bl	HAL_GetTick
 8541 006c 0246     		mov	r2, r0
 8542 006e 7B69     		ldr	r3, [r7, #20]
 8543 0070 D21A     		subs	r2, r2, r3
 8544 0072 7B68     		ldr	r3, [r7, #4]
 8545 0074 9A42     		cmp	r2, r3
 8546 0076 09D9     		bls	.L457
 8547              	.L460:
3622:Drivers/STM32F4xx_HAL_Driver/Src/stm32f4xx_hal_i2c.c ****       {
3623:Drivers/STM32F4xx_HAL_Driver/Src/stm32f4xx_hal_i2c.c ****         hi2c->State= HAL_I2C_STATE_READY;
 8548              		.loc 1 3623 0 is_stmt 1
 8549 0078 FB68     		ldr	r3, [r7, #12]
 8550 007a 0122     		movs	r2, #1
 8551 007c 83F83520 		strb	r2, [r3, #53]
3624:Drivers/STM32F4xx_HAL_Driver/Src/stm32f4xx_hal_i2c.c **** 
3625:Drivers/STM32F4xx_HAL_Driver/Src/stm32f4xx_hal_i2c.c ****         /* Process Unlocked */
3626:Drivers/STM32F4xx_HAL_Driver/Src/stm32f4xx_hal_i2c.c ****         __HAL_UNLOCK(hi2c);
 8552              		.loc 1 3626 0
 8553 0080 FB68     		ldr	r3, [r7, #12]
 8554 0082 0022     		movs	r2, #0
 8555 0084 83F83420 		strb	r2, [r3, #52]
3627:Drivers/STM32F4xx_HAL_Driver/Src/stm32f4xx_hal_i2c.c **** 
3628:Drivers/STM32F4xx_HAL_Driver/Src/stm32f4xx_hal_i2c.c ****         return HAL_TIMEOUT;
 8556              		.loc 1 3628 0
ARM GAS  /tmp/cc5bMm9J.s 			page 213


 8557 0088 0323     		movs	r3, #3
 8558 008a 20E0     		b	.L459
 8559              	.L457:
3599:Drivers/STM32F4xx_HAL_Driver/Src/stm32f4xx_hal_i2c.c ****   {
 8560              		.loc 1 3599 0 discriminator 1
 8561 008c BB68     		ldr	r3, [r7, #8]
 8562 008e 1B0C     		lsrs	r3, r3, #16
 8563 0090 DBB2     		uxtb	r3, r3
 8564 0092 012B     		cmp	r3, #1
 8565 0094 0CD1     		bne	.L461
 8566 0096 FB68     		ldr	r3, [r7, #12]
 8567 0098 1B68     		ldr	r3, [r3]
 8568 009a 5B69     		ldr	r3, [r3, #20]
 8569 009c DA43     		mvns	r2, r3
 8570 009e BB68     		ldr	r3, [r7, #8]
 8571 00a0 1340     		ands	r3, r3, r2
 8572 00a2 9BB2     		uxth	r3, r3
 8573 00a4 002B     		cmp	r3, #0
 8574 00a6 0CBF     		ite	eq
 8575 00a8 0023     		moveq	r3, #0
 8576 00aa 0123     		movne	r3, #1
 8577 00ac DBB2     		uxtb	r3, r3
 8578 00ae 0BE0     		b	.L462
 8579              	.L461:
3599:Drivers/STM32F4xx_HAL_Driver/Src/stm32f4xx_hal_i2c.c ****   {
 8580              		.loc 1 3599 0 is_stmt 0 discriminator 2
 8581 00b0 FB68     		ldr	r3, [r7, #12]
 8582 00b2 1B68     		ldr	r3, [r3]
 8583 00b4 9B69     		ldr	r3, [r3, #24]
 8584 00b6 DA43     		mvns	r2, r3
 8585 00b8 BB68     		ldr	r3, [r7, #8]
 8586 00ba 1340     		ands	r3, r3, r2
 8587 00bc 9BB2     		uxth	r3, r3
 8588 00be 002B     		cmp	r3, #0
 8589 00c0 0CBF     		ite	eq
 8590 00c2 0023     		moveq	r3, #0
 8591 00c4 0123     		movne	r3, #1
 8592 00c6 DBB2     		uxtb	r3, r3
 8593              	.L462:
3599:Drivers/STM32F4xx_HAL_Driver/Src/stm32f4xx_hal_i2c.c ****   {
 8594              		.loc 1 3599 0 discriminator 3
 8595 00c8 002B     		cmp	r3, #0
 8596 00ca A5D1     		bne	.L463
3629:Drivers/STM32F4xx_HAL_Driver/Src/stm32f4xx_hal_i2c.c ****       }
3630:Drivers/STM32F4xx_HAL_Driver/Src/stm32f4xx_hal_i2c.c ****     }
3631:Drivers/STM32F4xx_HAL_Driver/Src/stm32f4xx_hal_i2c.c ****   }
3632:Drivers/STM32F4xx_HAL_Driver/Src/stm32f4xx_hal_i2c.c ****   return HAL_OK;
 8597              		.loc 1 3632 0 is_stmt 1
 8598 00cc 0023     		movs	r3, #0
 8599              	.L459:
3633:Drivers/STM32F4xx_HAL_Driver/Src/stm32f4xx_hal_i2c.c **** }
 8600              		.loc 1 3633 0
 8601 00ce 1846     		mov	r0, r3
 8602 00d0 1837     		adds	r7, r7, #24
 8603 00d2 BD46     		mov	sp, r7
 8604              		@ sp needed
 8605 00d4 80BD     		pop	{r7, pc}
ARM GAS  /tmp/cc5bMm9J.s 			page 214


 8606              		.cfi_endproc
 8607              	.LFE182:
 8609 00d6 00BF     		.text
 8610              	.Letext0:
 8611              		.file 2 "/usr/include/newlib/machine/_default_types.h"
 8612              		.file 3 "/usr/include/newlib/stdint.h"
 8613              		.file 4 "Drivers/CMSIS/Device/ST/STM32F4xx/Include/stm32f429xx.h"
 8614              		.file 5 "Drivers/CMSIS/Device/ST/STM32F4xx/Include/stm32f4xx.h"
 8615              		.file 6 "Drivers/STM32F4xx_HAL_Driver/Inc/stm32f4xx_hal_def.h"
 8616              		.file 7 "Drivers/STM32F4xx_HAL_Driver/Inc/stm32f4xx_hal_dma.h"
 8617              		.file 8 "Drivers/STM32F4xx_HAL_Driver/Inc/stm32f4xx_hal_i2c.h"
 8618              		.file 9 "Drivers/CMSIS/Include/core_cm4.h"
ARM GAS  /tmp/cc5bMm9J.s 			page 215


DEFINED SYMBOLS
                            *ABS*:0000000000000000 stm32f4xx_hal_i2c.c
     /tmp/cc5bMm9J.s:20     .text.HAL_I2C_Init:0000000000000000 $t
     /tmp/cc5bMm9J.s:25     .text.HAL_I2C_Init:0000000000000000 HAL_I2C_Init
     /tmp/cc5bMm9J.s:362    .text.HAL_I2C_MspInit:0000000000000000 HAL_I2C_MspInit
     /tmp/cc5bMm9J.s:279    .text.HAL_I2C_Init:00000000000001a8 $d
     /tmp/cc5bMm9J.s:286    .text.HAL_I2C_DeInit:0000000000000000 $t
     /tmp/cc5bMm9J.s:291    .text.HAL_I2C_DeInit:0000000000000000 HAL_I2C_DeInit
     /tmp/cc5bMm9J.s:395    .text.HAL_I2C_MspDeInit:0000000000000000 HAL_I2C_MspDeInit
     /tmp/cc5bMm9J.s:357    .text.HAL_I2C_MspInit:0000000000000000 $t
     /tmp/cc5bMm9J.s:390    .text.HAL_I2C_MspDeInit:0000000000000000 $t
     /tmp/cc5bMm9J.s:423    .text.HAL_I2C_Master_Transmit:0000000000000000 $t
     /tmp/cc5bMm9J.s:428    .text.HAL_I2C_Master_Transmit:0000000000000000 HAL_I2C_Master_Transmit
     /tmp/cc5bMm9J.s:8276   .text.I2C_WaitOnFlagUntilTimeout:0000000000000000 I2C_WaitOnFlagUntilTimeout
     /tmp/cc5bMm9J.s:6918   .text.I2C_MasterRequestWrite:0000000000000000 I2C_MasterRequestWrite
     /tmp/cc5bMm9J.s:654    .text.HAL_I2C_Master_Transmit:000000000000015c $d
     /tmp/cc5bMm9J.s:660    .text.HAL_I2C_Master_Receive:0000000000000000 $t
     /tmp/cc5bMm9J.s:665    .text.HAL_I2C_Master_Receive:0000000000000000 HAL_I2C_Master_Receive
     /tmp/cc5bMm9J.s:7055   .text.I2C_MasterRequestRead:0000000000000000 I2C_MasterRequestRead
     /tmp/cc5bMm9J.s:1058   .text.HAL_I2C_Master_Receive:0000000000000284 $d
     /tmp/cc5bMm9J.s:1063   .text.HAL_I2C_Master_Receive:0000000000000290 $t
     /tmp/cc5bMm9J.s:1125   .text.HAL_I2C_Slave_Transmit:0000000000000000 $t
     /tmp/cc5bMm9J.s:1130   .text.HAL_I2C_Slave_Transmit:0000000000000000 HAL_I2C_Slave_Transmit
     /tmp/cc5bMm9J.s:1384   .text.HAL_I2C_Slave_Transmit:0000000000000190 $d
     /tmp/cc5bMm9J.s:1391   .text.HAL_I2C_Slave_Receive:0000000000000000 $t
     /tmp/cc5bMm9J.s:1396   .text.HAL_I2C_Slave_Receive:0000000000000000 HAL_I2C_Slave_Receive
     /tmp/cc5bMm9J.s:1630   .text.HAL_I2C_Slave_Receive:0000000000000170 $d
     /tmp/cc5bMm9J.s:1638   .text.HAL_I2C_Master_Transmit_IT:0000000000000000 $t
     /tmp/cc5bMm9J.s:1643   .text.HAL_I2C_Master_Transmit_IT:0000000000000000 HAL_I2C_Master_Transmit_IT
     /tmp/cc5bMm9J.s:1808   .text.HAL_I2C_Master_Transmit_IT:00000000000000f4 $d
     /tmp/cc5bMm9J.s:1813   .text.HAL_I2C_Master_Receive_IT:0000000000000000 $t
     /tmp/cc5bMm9J.s:1818   .text.HAL_I2C_Master_Receive_IT:0000000000000000 HAL_I2C_Master_Receive_IT
     /tmp/cc5bMm9J.s:2064   .text.HAL_I2C_Master_Receive_IT:0000000000000184 $d
     /tmp/cc5bMm9J.s:2069   .text.HAL_I2C_Slave_Transmit_IT:0000000000000000 $t
     /tmp/cc5bMm9J.s:2074   .text.HAL_I2C_Slave_Transmit_IT:0000000000000000 HAL_I2C_Slave_Transmit_IT
     /tmp/cc5bMm9J.s:2204   .text.HAL_I2C_Slave_Transmit_IT:00000000000000c0 $d
     /tmp/cc5bMm9J.s:2209   .text.HAL_I2C_Slave_Receive_IT:0000000000000000 $t
     /tmp/cc5bMm9J.s:2214   .text.HAL_I2C_Slave_Receive_IT:0000000000000000 HAL_I2C_Slave_Receive_IT
     /tmp/cc5bMm9J.s:2344   .text.HAL_I2C_Slave_Receive_IT:00000000000000c0 $d
     /tmp/cc5bMm9J.s:2349   .text.HAL_I2C_Master_Transmit_DMA:0000000000000000 $t
     /tmp/cc5bMm9J.s:2354   .text.HAL_I2C_Master_Transmit_DMA:0000000000000000 HAL_I2C_Master_Transmit_DMA
     /tmp/cc5bMm9J.s:2539   .text.HAL_I2C_Master_Transmit_DMA:0000000000000118 $d
     /tmp/cc5bMm9J.s:7650   .text.I2C_DMAMasterTransmitCplt:0000000000000000 I2C_DMAMasterTransmitCplt
     /tmp/cc5bMm9J.s:8216   .text.I2C_DMAError:0000000000000000 I2C_DMAError
     /tmp/cc5bMm9J.s:2546   .text.HAL_I2C_Master_Receive_DMA:0000000000000000 $t
     /tmp/cc5bMm9J.s:2551   .text.HAL_I2C_Master_Receive_DMA:0000000000000000 HAL_I2C_Master_Receive_DMA
     /tmp/cc5bMm9J.s:2759   .text.HAL_I2C_Master_Receive_DMA:0000000000000144 $d
     /tmp/cc5bMm9J.s:7837   .text.I2C_DMAMasterReceiveCplt:0000000000000000 I2C_DMAMasterReceiveCplt
     /tmp/cc5bMm9J.s:2766   .text.HAL_I2C_Slave_Transmit_DMA:0000000000000000 $t
     /tmp/cc5bMm9J.s:2771   .text.HAL_I2C_Slave_Transmit_DMA:0000000000000000 HAL_I2C_Slave_Transmit_DMA
     /tmp/cc5bMm9J.s:2991   .text.HAL_I2C_Slave_Transmit_DMA:0000000000000158 $d
     /tmp/cc5bMm9J.s:7743   .text.I2C_DMASlaveTransmitCplt:0000000000000000 I2C_DMASlaveTransmitCplt
     /tmp/cc5bMm9J.s:2999   .text.HAL_I2C_Slave_Receive_DMA:0000000000000000 $t
     /tmp/cc5bMm9J.s:3004   .text.HAL_I2C_Slave_Receive_DMA:0000000000000000 HAL_I2C_Slave_Receive_DMA
     /tmp/cc5bMm9J.s:3179   .text.HAL_I2C_Slave_Receive_DMA:000000000000010c $d
     /tmp/cc5bMm9J.s:7926   .text.I2C_DMASlaveReceiveCplt:0000000000000000 I2C_DMASlaveReceiveCplt
     /tmp/cc5bMm9J.s:3187   .text.HAL_I2C_Mem_Write:0000000000000000 $t
ARM GAS  /tmp/cc5bMm9J.s 			page 216


     /tmp/cc5bMm9J.s:3192   .text.HAL_I2C_Mem_Write:0000000000000000 HAL_I2C_Mem_Write
     /tmp/cc5bMm9J.s:7265   .text.I2C_RequestMemoryWrite:0000000000000000 I2C_RequestMemoryWrite
     /tmp/cc5bMm9J.s:3407   .text.HAL_I2C_Mem_Write:000000000000014c $d
     /tmp/cc5bMm9J.s:3413   .text.HAL_I2C_Mem_Read:0000000000000000 $t
     /tmp/cc5bMm9J.s:3418   .text.HAL_I2C_Mem_Read:0000000000000000 HAL_I2C_Mem_Read
     /tmp/cc5bMm9J.s:7422   .text.I2C_RequestMemoryRead:0000000000000000 I2C_RequestMemoryRead
     /tmp/cc5bMm9J.s:3804   .text.HAL_I2C_Mem_Read:0000000000000274 $d
     /tmp/cc5bMm9J.s:3809   .text.HAL_I2C_Mem_Read:0000000000000280 $t
     /tmp/cc5bMm9J.s:3871   .text.HAL_I2C_Mem_Write_IT:0000000000000000 $t
     /tmp/cc5bMm9J.s:3876   .text.HAL_I2C_Mem_Write_IT:0000000000000000 HAL_I2C_Mem_Write_IT
     /tmp/cc5bMm9J.s:4030   .text.HAL_I2C_Mem_Write_IT:00000000000000e4 $d
     /tmp/cc5bMm9J.s:4035   .text.HAL_I2C_Mem_Read_IT:0000000000000000 $t
     /tmp/cc5bMm9J.s:4040   .text.HAL_I2C_Mem_Read_IT:0000000000000000 HAL_I2C_Mem_Read_IT
     /tmp/cc5bMm9J.s:4287   .text.HAL_I2C_Mem_Read_IT:0000000000000184 $d
     /tmp/cc5bMm9J.s:4292   .text.HAL_I2C_Mem_Write_DMA:0000000000000000 $t
     /tmp/cc5bMm9J.s:4297   .text.HAL_I2C_Mem_Write_DMA:0000000000000000 HAL_I2C_Mem_Write_DMA
     /tmp/cc5bMm9J.s:4471   .text.HAL_I2C_Mem_Write_DMA:0000000000000108 $d
     /tmp/cc5bMm9J.s:8034   .text.I2C_DMAMemTransmitCplt:0000000000000000 I2C_DMAMemTransmitCplt
     /tmp/cc5bMm9J.s:4478   .text.HAL_I2C_Mem_Read_DMA:0000000000000000 $t
     /tmp/cc5bMm9J.s:4483   .text.HAL_I2C_Mem_Read_DMA:0000000000000000 HAL_I2C_Mem_Read_DMA
     /tmp/cc5bMm9J.s:4692   .text.HAL_I2C_Mem_Read_DMA:0000000000000144 $d
     /tmp/cc5bMm9J.s:8127   .text.I2C_DMAMemReceiveCplt:0000000000000000 I2C_DMAMemReceiveCplt
     /tmp/cc5bMm9J.s:4699   .text.HAL_I2C_IsDeviceReady:0000000000000000 $t
     /tmp/cc5bMm9J.s:4704   .text.HAL_I2C_IsDeviceReady:0000000000000000 HAL_I2C_IsDeviceReady
     /tmp/cc5bMm9J.s:5019   .text.HAL_I2C_IsDeviceReady:000000000000021c $d
     /tmp/cc5bMm9J.s:5024   .text.HAL_I2C_EV_IRQHandler:0000000000000000 $t
     /tmp/cc5bMm9J.s:5029   .text.HAL_I2C_EV_IRQHandler:0000000000000000 HAL_I2C_EV_IRQHandler
     /tmp/cc5bMm9J.s:6019   .text.I2C_MasterTransmit_TXE:0000000000000000 I2C_MasterTransmit_TXE
     /tmp/cc5bMm9J.s:6087   .text.I2C_MasterTransmit_BTF:0000000000000000 I2C_MasterTransmit_BTF
     /tmp/cc5bMm9J.s:6186   .text.I2C_MasterReceive_RXNE:0000000000000000 I2C_MasterReceive_RXNE
     /tmp/cc5bMm9J.s:6322   .text.I2C_MasterReceive_BTF:0000000000000000 I2C_MasterReceive_BTF
     /tmp/cc5bMm9J.s:6737   .text.I2C_Slave_ADDR:0000000000000000 I2C_Slave_ADDR
     /tmp/cc5bMm9J.s:6784   .text.I2C_Slave_STOPF:0000000000000000 I2C_Slave_STOPF
     /tmp/cc5bMm9J.s:6495   .text.I2C_SlaveTransmit_TXE:0000000000000000 I2C_SlaveTransmit_TXE
     /tmp/cc5bMm9J.s:6555   .text.I2C_SlaveTransmit_BTF:0000000000000000 I2C_SlaveTransmit_BTF
     /tmp/cc5bMm9J.s:6615   .text.I2C_SlaveReceive_RXNE:0000000000000000 I2C_SlaveReceive_RXNE
     /tmp/cc5bMm9J.s:6676   .text.I2C_SlaveReceive_BTF:0000000000000000 I2C_SlaveReceive_BTF
     /tmp/cc5bMm9J.s:5444   .text.HAL_I2C_ER_IRQHandler:0000000000000000 $t
     /tmp/cc5bMm9J.s:5449   .text.HAL_I2C_ER_IRQHandler:0000000000000000 HAL_I2C_ER_IRQHandler
     /tmp/cc5bMm9J.s:6856   .text.I2C_Slave_AF:0000000000000000 I2C_Slave_AF
     /tmp/cc5bMm9J.s:5912   .text.HAL_I2C_ErrorCallback:0000000000000000 HAL_I2C_ErrorCallback
     /tmp/cc5bMm9J.s:5709   .text.HAL_I2C_MasterTxCpltCallback:0000000000000000 $t
     /tmp/cc5bMm9J.s:5714   .text.HAL_I2C_MasterTxCpltCallback:0000000000000000 HAL_I2C_MasterTxCpltCallback
     /tmp/cc5bMm9J.s:5742   .text.HAL_I2C_MasterRxCpltCallback:0000000000000000 $t
     /tmp/cc5bMm9J.s:5747   .text.HAL_I2C_MasterRxCpltCallback:0000000000000000 HAL_I2C_MasterRxCpltCallback
     /tmp/cc5bMm9J.s:5775   .text.HAL_I2C_SlaveTxCpltCallback:0000000000000000 $t
     /tmp/cc5bMm9J.s:5780   .text.HAL_I2C_SlaveTxCpltCallback:0000000000000000 HAL_I2C_SlaveTxCpltCallback
     /tmp/cc5bMm9J.s:5808   .text.HAL_I2C_SlaveRxCpltCallback:0000000000000000 $t
     /tmp/cc5bMm9J.s:5813   .text.HAL_I2C_SlaveRxCpltCallback:0000000000000000 HAL_I2C_SlaveRxCpltCallback
     /tmp/cc5bMm9J.s:5841   .text.HAL_I2C_MemTxCpltCallback:0000000000000000 $t
     /tmp/cc5bMm9J.s:5846   .text.HAL_I2C_MemTxCpltCallback:0000000000000000 HAL_I2C_MemTxCpltCallback
     /tmp/cc5bMm9J.s:5874   .text.HAL_I2C_MemRxCpltCallback:0000000000000000 $t
     /tmp/cc5bMm9J.s:5879   .text.HAL_I2C_MemRxCpltCallback:0000000000000000 HAL_I2C_MemRxCpltCallback
     /tmp/cc5bMm9J.s:5907   .text.HAL_I2C_ErrorCallback:0000000000000000 $t
     /tmp/cc5bMm9J.s:5940   .text.HAL_I2C_GetState:0000000000000000 $t
     /tmp/cc5bMm9J.s:5945   .text.HAL_I2C_GetState:0000000000000000 HAL_I2C_GetState
     /tmp/cc5bMm9J.s:5978   .text.HAL_I2C_GetError:0000000000000000 $t
ARM GAS  /tmp/cc5bMm9J.s 			page 217


     /tmp/cc5bMm9J.s:5983   .text.HAL_I2C_GetError:0000000000000000 HAL_I2C_GetError
     /tmp/cc5bMm9J.s:6015   .text.I2C_MasterTransmit_TXE:0000000000000000 $t
     /tmp/cc5bMm9J.s:6083   .text.I2C_MasterTransmit_BTF:0000000000000000 $t
     /tmp/cc5bMm9J.s:6182   .text.I2C_MasterReceive_RXNE:0000000000000000 $t
     /tmp/cc5bMm9J.s:6318   .text.I2C_MasterReceive_BTF:0000000000000000 $t
     /tmp/cc5bMm9J.s:6491   .text.I2C_SlaveTransmit_TXE:0000000000000000 $t
     /tmp/cc5bMm9J.s:6551   .text.I2C_SlaveTransmit_BTF:0000000000000000 $t
     /tmp/cc5bMm9J.s:6611   .text.I2C_SlaveReceive_RXNE:0000000000000000 $t
     /tmp/cc5bMm9J.s:6672   .text.I2C_SlaveReceive_BTF:0000000000000000 $t
     /tmp/cc5bMm9J.s:6733   .text.I2C_Slave_ADDR:0000000000000000 $t
     /tmp/cc5bMm9J.s:6780   .text.I2C_Slave_STOPF:0000000000000000 $t
     /tmp/cc5bMm9J.s:6852   .text.I2C_Slave_AF:0000000000000000 $t
     /tmp/cc5bMm9J.s:6914   .text.I2C_MasterRequestWrite:0000000000000000 $t
     /tmp/cc5bMm9J.s:8466   .text.I2C_WaitOnMasterAddressFlagUntilTimeout:0000000000000000 I2C_WaitOnMasterAddressFlagUntilTimeout
     /tmp/cc5bMm9J.s:7045   .text.I2C_MasterRequestWrite:00000000000000bc $d
     /tmp/cc5bMm9J.s:7051   .text.I2C_MasterRequestRead:0000000000000000 $t
     /tmp/cc5bMm9J.s:7255   .text.I2C_MasterRequestRead:000000000000013c $d
     /tmp/cc5bMm9J.s:7261   .text.I2C_RequestMemoryWrite:0000000000000000 $t
     /tmp/cc5bMm9J.s:7412   .text.I2C_RequestMemoryWrite:00000000000000d8 $d
     /tmp/cc5bMm9J.s:7418   .text.I2C_RequestMemoryRead:0000000000000000 $t
     /tmp/cc5bMm9J.s:7640   .text.I2C_RequestMemoryRead:0000000000000154 $d
     /tmp/cc5bMm9J.s:7646   .text.I2C_DMAMasterTransmitCplt:0000000000000000 $t
     /tmp/cc5bMm9J.s:7734   .text.I2C_DMAMasterTransmitCplt:0000000000000078 $d
     /tmp/cc5bMm9J.s:7739   .text.I2C_DMASlaveTransmitCplt:0000000000000000 $t
     /tmp/cc5bMm9J.s:7833   .text.I2C_DMAMasterReceiveCplt:0000000000000000 $t
     /tmp/cc5bMm9J.s:7922   .text.I2C_DMASlaveReceiveCplt:0000000000000000 $t
     /tmp/cc5bMm9J.s:8025   .text.I2C_DMASlaveReceiveCplt:0000000000000090 $d
     /tmp/cc5bMm9J.s:8030   .text.I2C_DMAMemTransmitCplt:0000000000000000 $t
     /tmp/cc5bMm9J.s:8118   .text.I2C_DMAMemTransmitCplt:0000000000000078 $d
     /tmp/cc5bMm9J.s:8123   .text.I2C_DMAMemReceiveCplt:0000000000000000 $t
     /tmp/cc5bMm9J.s:8212   .text.I2C_DMAError:0000000000000000 $t
     /tmp/cc5bMm9J.s:8272   .text.I2C_WaitOnFlagUntilTimeout:0000000000000000 $t
     /tmp/cc5bMm9J.s:8462   .text.I2C_WaitOnMasterAddressFlagUntilTimeout:0000000000000000 $t
                     .debug_frame:0000000000000010 $d

UNDEFINED SYMBOLS
HAL_RCC_GetPCLK1Freq
HAL_DMA_Start_IT
HAL_GetTick
