ARM GAS  /tmp/cc5bMm9J.s 			page 1


   1              		.syntax unified
   2              		.cpu cortex-m4
   3              		.eabi_attribute 27, 3
   4              		.fpu fpv4-sp-d16
   5              		.eabi_attribute 20, 1
   6              		.eabi_attribute 21, 1
   7              		.eabi_attribute 23, 3
   8              		.eabi_attribute 24, 1
   9              		.eabi_attribute 25, 1
  10              		.eabi_attribute 26, 1
  11              		.eabi_attribute 30, 6
  12              		.eabi_attribute 34, 1
  13              		.eabi_attribute 18, 4
  14              		.thumb
  15              		.file	"stm32f4xx_hal_i2c.c"
  16              		.text
  17              	.Ltext0:
  18              		.cfi_sections	.debug_frame
  19              		.section	.text.HAL_I2C_Init,"ax",%progbits
  20              		.align	2
  21              		.global	HAL_I2C_Init
  22              		.thumb
  23              		.thumb_func
  25              	HAL_I2C_Init:
  26              	.LFB125:
  27              		.file 1 "Drivers/STM32F4xx_HAL_Driver/Src/stm32f4xx_hal_i2c.c"
   1:Drivers/STM32F4xx_HAL_Driver/Src/stm32f4xx_hal_i2c.c **** /**
   2:Drivers/STM32F4xx_HAL_Driver/Src/stm32f4xx_hal_i2c.c ****   ******************************************************************************
   3:Drivers/STM32F4xx_HAL_Driver/Src/stm32f4xx_hal_i2c.c ****   * @file    stm32f4xx_hal_i2c.c
   4:Drivers/STM32F4xx_HAL_Driver/Src/stm32f4xx_hal_i2c.c ****   * @author  MCD Application Team
   5:Drivers/STM32F4xx_HAL_Driver/Src/stm32f4xx_hal_i2c.c ****   * @version V1.4.1
   6:Drivers/STM32F4xx_HAL_Driver/Src/stm32f4xx_hal_i2c.c ****   * @date    09-October-2015
   7:Drivers/STM32F4xx_HAL_Driver/Src/stm32f4xx_hal_i2c.c ****   * @brief   I2C HAL module driver.
   8:Drivers/STM32F4xx_HAL_Driver/Src/stm32f4xx_hal_i2c.c ****   *          This file provides firmware functions to manage the following
   9:Drivers/STM32F4xx_HAL_Driver/Src/stm32f4xx_hal_i2c.c ****   *          functionalities of the Inter Integrated Circuit (I2C) peripheral:
  10:Drivers/STM32F4xx_HAL_Driver/Src/stm32f4xx_hal_i2c.c ****   *           + Initialization and de-initialization functions
  11:Drivers/STM32F4xx_HAL_Driver/Src/stm32f4xx_hal_i2c.c ****   *           + IO operation functions
  12:Drivers/STM32F4xx_HAL_Driver/Src/stm32f4xx_hal_i2c.c ****   *           + Peripheral Control functions
  13:Drivers/STM32F4xx_HAL_Driver/Src/stm32f4xx_hal_i2c.c ****   *           + Peripheral State functions
  14:Drivers/STM32F4xx_HAL_Driver/Src/stm32f4xx_hal_i2c.c ****   *
  15:Drivers/STM32F4xx_HAL_Driver/Src/stm32f4xx_hal_i2c.c ****   @verbatim
  16:Drivers/STM32F4xx_HAL_Driver/Src/stm32f4xx_hal_i2c.c ****   ==============================================================================
  17:Drivers/STM32F4xx_HAL_Driver/Src/stm32f4xx_hal_i2c.c ****                         ##### How to use this driver #####
  18:Drivers/STM32F4xx_HAL_Driver/Src/stm32f4xx_hal_i2c.c ****   ==============================================================================
  19:Drivers/STM32F4xx_HAL_Driver/Src/stm32f4xx_hal_i2c.c ****   [..]
  20:Drivers/STM32F4xx_HAL_Driver/Src/stm32f4xx_hal_i2c.c ****     The I2C HAL driver can be used as follows:
  21:Drivers/STM32F4xx_HAL_Driver/Src/stm32f4xx_hal_i2c.c **** 
  22:Drivers/STM32F4xx_HAL_Driver/Src/stm32f4xx_hal_i2c.c ****     (#) Declare a I2C_HandleTypeDef handle structure, for example:
  23:Drivers/STM32F4xx_HAL_Driver/Src/stm32f4xx_hal_i2c.c ****         I2C_HandleTypeDef  hi2c;
  24:Drivers/STM32F4xx_HAL_Driver/Src/stm32f4xx_hal_i2c.c **** 
  25:Drivers/STM32F4xx_HAL_Driver/Src/stm32f4xx_hal_i2c.c ****     (#)Initialize the I2C low level resources by implement the HAL_I2C_MspInit() API:
  26:Drivers/STM32F4xx_HAL_Driver/Src/stm32f4xx_hal_i2c.c ****         (##) Enable the I2Cx interface clock
  27:Drivers/STM32F4xx_HAL_Driver/Src/stm32f4xx_hal_i2c.c ****         (##) I2C pins configuration
  28:Drivers/STM32F4xx_HAL_Driver/Src/stm32f4xx_hal_i2c.c ****             (+++) Enable the clock for the I2C GPIOs
  29:Drivers/STM32F4xx_HAL_Driver/Src/stm32f4xx_hal_i2c.c ****             (+++) Configure I2C pins as alternate function open-drain
  30:Drivers/STM32F4xx_HAL_Driver/Src/stm32f4xx_hal_i2c.c ****         (##) NVIC configuration if you need to use interrupt process
  31:Drivers/STM32F4xx_HAL_Driver/Src/stm32f4xx_hal_i2c.c ****             (+++) Configure the I2Cx interrupt priority
ARM GAS  /tmp/cc5bMm9J.s 			page 2


  32:Drivers/STM32F4xx_HAL_Driver/Src/stm32f4xx_hal_i2c.c ****             (+++) Enable the NVIC I2C IRQ Channel
  33:Drivers/STM32F4xx_HAL_Driver/Src/stm32f4xx_hal_i2c.c ****         (##) DMA Configuration if you need to use DMA process
  34:Drivers/STM32F4xx_HAL_Driver/Src/stm32f4xx_hal_i2c.c ****             (+++) Declare a DMA_HandleTypeDef handle structure for the transmit or receive stream
  35:Drivers/STM32F4xx_HAL_Driver/Src/stm32f4xx_hal_i2c.c ****             (+++) Enable the DMAx interface clock using
  36:Drivers/STM32F4xx_HAL_Driver/Src/stm32f4xx_hal_i2c.c ****             (+++) Configure the DMA handle parameters
  37:Drivers/STM32F4xx_HAL_Driver/Src/stm32f4xx_hal_i2c.c ****             (+++) Configure the DMA Tx or Rx Stream
  38:Drivers/STM32F4xx_HAL_Driver/Src/stm32f4xx_hal_i2c.c ****             (+++) Associate the initialized DMA handle to the hi2c DMA Tx or Rx handle
  39:Drivers/STM32F4xx_HAL_Driver/Src/stm32f4xx_hal_i2c.c ****             (+++) Configure the priority and enable the NVIC for the transfer complete interrupt on
  40:Drivers/STM32F4xx_HAL_Driver/Src/stm32f4xx_hal_i2c.c ****                   the DMA Tx or Rx Stream
  41:Drivers/STM32F4xx_HAL_Driver/Src/stm32f4xx_hal_i2c.c **** 
  42:Drivers/STM32F4xx_HAL_Driver/Src/stm32f4xx_hal_i2c.c ****     (#) Configure the Communication Speed, Duty cycle, Addressing mode, Own Address1,
  43:Drivers/STM32F4xx_HAL_Driver/Src/stm32f4xx_hal_i2c.c ****         Dual Addressing mode, Own Address2, General call and Nostretch mode in the hi2c Init struct
  44:Drivers/STM32F4xx_HAL_Driver/Src/stm32f4xx_hal_i2c.c **** 
  45:Drivers/STM32F4xx_HAL_Driver/Src/stm32f4xx_hal_i2c.c ****     (#) Initialize the I2C registers by calling the HAL_I2C_Init(), configures also the low level H
  46:Drivers/STM32F4xx_HAL_Driver/Src/stm32f4xx_hal_i2c.c ****         (GPIO, CLOCK, NVIC...etc) by calling the customized HAL_I2C_MspInit(&hi2c) API.
  47:Drivers/STM32F4xx_HAL_Driver/Src/stm32f4xx_hal_i2c.c **** 
  48:Drivers/STM32F4xx_HAL_Driver/Src/stm32f4xx_hal_i2c.c ****     (#) To check if target device is ready for communication, use the function HAL_I2C_IsDeviceRead
  49:Drivers/STM32F4xx_HAL_Driver/Src/stm32f4xx_hal_i2c.c **** 
  50:Drivers/STM32F4xx_HAL_Driver/Src/stm32f4xx_hal_i2c.c ****     (#) For I2C IO and IO MEM operations, three operation modes are available within this driver :
  51:Drivers/STM32F4xx_HAL_Driver/Src/stm32f4xx_hal_i2c.c **** 
  52:Drivers/STM32F4xx_HAL_Driver/Src/stm32f4xx_hal_i2c.c ****     *** Polling mode IO operation ***
  53:Drivers/STM32F4xx_HAL_Driver/Src/stm32f4xx_hal_i2c.c ****     =================================
  54:Drivers/STM32F4xx_HAL_Driver/Src/stm32f4xx_hal_i2c.c ****     [..]
  55:Drivers/STM32F4xx_HAL_Driver/Src/stm32f4xx_hal_i2c.c ****       (+) Transmit in master mode an amount of data in blocking mode using HAL_I2C_Master_Transmit(
  56:Drivers/STM32F4xx_HAL_Driver/Src/stm32f4xx_hal_i2c.c ****       (+) Receive in master mode an amount of data in blocking mode using HAL_I2C_Master_Receive()
  57:Drivers/STM32F4xx_HAL_Driver/Src/stm32f4xx_hal_i2c.c ****       (+) Transmit in slave mode an amount of data in blocking mode using HAL_I2C_Slave_Transmit()
  58:Drivers/STM32F4xx_HAL_Driver/Src/stm32f4xx_hal_i2c.c ****       (+) Receive in slave mode an amount of data in blocking mode using HAL_I2C_Slave_Receive()
  59:Drivers/STM32F4xx_HAL_Driver/Src/stm32f4xx_hal_i2c.c **** 
  60:Drivers/STM32F4xx_HAL_Driver/Src/stm32f4xx_hal_i2c.c ****     *** Polling mode IO MEM operation ***
  61:Drivers/STM32F4xx_HAL_Driver/Src/stm32f4xx_hal_i2c.c ****     =====================================
  62:Drivers/STM32F4xx_HAL_Driver/Src/stm32f4xx_hal_i2c.c ****     [..]
  63:Drivers/STM32F4xx_HAL_Driver/Src/stm32f4xx_hal_i2c.c ****       (+) Write an amount of data in blocking mode to a specific memory address using HAL_I2C_Mem_W
  64:Drivers/STM32F4xx_HAL_Driver/Src/stm32f4xx_hal_i2c.c ****       (+) Read an amount of data in blocking mode from a specific memory address using HAL_I2C_Mem_
  65:Drivers/STM32F4xx_HAL_Driver/Src/stm32f4xx_hal_i2c.c **** 
  66:Drivers/STM32F4xx_HAL_Driver/Src/stm32f4xx_hal_i2c.c **** 
  67:Drivers/STM32F4xx_HAL_Driver/Src/stm32f4xx_hal_i2c.c ****     *** Interrupt mode IO operation ***
  68:Drivers/STM32F4xx_HAL_Driver/Src/stm32f4xx_hal_i2c.c ****     ===================================
  69:Drivers/STM32F4xx_HAL_Driver/Src/stm32f4xx_hal_i2c.c ****     [..]
  70:Drivers/STM32F4xx_HAL_Driver/Src/stm32f4xx_hal_i2c.c ****       (+) Transmit in master mode an amount of data in non blocking mode using HAL_I2C_Master_Trans
  71:Drivers/STM32F4xx_HAL_Driver/Src/stm32f4xx_hal_i2c.c ****       (+) At transmission end of transfer HAL_I2C_MasterTxCpltCallback is executed and user can
  72:Drivers/STM32F4xx_HAL_Driver/Src/stm32f4xx_hal_i2c.c ****            add his own code by customization of function pointer HAL_I2C_MasterTxCpltCallback
  73:Drivers/STM32F4xx_HAL_Driver/Src/stm32f4xx_hal_i2c.c ****       (+) Receive in master mode an amount of data in non blocking mode using HAL_I2C_Master_Receiv
  74:Drivers/STM32F4xx_HAL_Driver/Src/stm32f4xx_hal_i2c.c ****       (+) At reception end of transfer HAL_I2C_MasterRxCpltCallback is executed and user can
  75:Drivers/STM32F4xx_HAL_Driver/Src/stm32f4xx_hal_i2c.c ****            add his own code by customization of function pointer HAL_I2C_MasterRxCpltCallback
  76:Drivers/STM32F4xx_HAL_Driver/Src/stm32f4xx_hal_i2c.c ****       (+) Transmit in slave mode an amount of data in non blocking mode using HAL_I2C_Slave_Transmi
  77:Drivers/STM32F4xx_HAL_Driver/Src/stm32f4xx_hal_i2c.c ****       (+) At transmission end of transfer HAL_I2C_SlaveTxCpltCallback is executed and user can
  78:Drivers/STM32F4xx_HAL_Driver/Src/stm32f4xx_hal_i2c.c ****            add his own code by customization of function pointer HAL_I2C_SlaveTxCpltCallback
  79:Drivers/STM32F4xx_HAL_Driver/Src/stm32f4xx_hal_i2c.c ****       (+) Receive in slave mode an amount of data in non blocking mode using HAL_I2C_Slave_Receive_
  80:Drivers/STM32F4xx_HAL_Driver/Src/stm32f4xx_hal_i2c.c ****       (+) At reception end of transfer HAL_I2C_SlaveRxCpltCallback is executed and user can
  81:Drivers/STM32F4xx_HAL_Driver/Src/stm32f4xx_hal_i2c.c ****            add his own code by customization of function pointer HAL_I2C_SlaveRxCpltCallback
  82:Drivers/STM32F4xx_HAL_Driver/Src/stm32f4xx_hal_i2c.c ****       (+) In case of transfer Error, HAL_I2C_ErrorCallback() function is executed and user can
  83:Drivers/STM32F4xx_HAL_Driver/Src/stm32f4xx_hal_i2c.c ****            add his own code by customization of function pointer HAL_I2C_ErrorCallback
  84:Drivers/STM32F4xx_HAL_Driver/Src/stm32f4xx_hal_i2c.c **** 
  85:Drivers/STM32F4xx_HAL_Driver/Src/stm32f4xx_hal_i2c.c ****     *** Interrupt mode IO MEM operation ***
  86:Drivers/STM32F4xx_HAL_Driver/Src/stm32f4xx_hal_i2c.c ****     =======================================
  87:Drivers/STM32F4xx_HAL_Driver/Src/stm32f4xx_hal_i2c.c ****     [..]
  88:Drivers/STM32F4xx_HAL_Driver/Src/stm32f4xx_hal_i2c.c ****       (+) Write an amount of data in no-blocking mode with Interrupt to a specific memory address u
ARM GAS  /tmp/cc5bMm9J.s 			page 3


  89:Drivers/STM32F4xx_HAL_Driver/Src/stm32f4xx_hal_i2c.c ****           HAL_I2C_Mem_Write_IT()
  90:Drivers/STM32F4xx_HAL_Driver/Src/stm32f4xx_hal_i2c.c ****       (+) At MEM end of write transfer HAL_I2C_MemTxCpltCallback is executed and user can
  91:Drivers/STM32F4xx_HAL_Driver/Src/stm32f4xx_hal_i2c.c ****            add his own code by customization of function pointer HAL_I2C_MemTxCpltCallback
  92:Drivers/STM32F4xx_HAL_Driver/Src/stm32f4xx_hal_i2c.c ****       (+) Read an amount of data in no-blocking mode with Interrupt from a specific memory address 
  93:Drivers/STM32F4xx_HAL_Driver/Src/stm32f4xx_hal_i2c.c ****           HAL_I2C_Mem_Read_IT()
  94:Drivers/STM32F4xx_HAL_Driver/Src/stm32f4xx_hal_i2c.c ****       (+) At MEM end of read transfer HAL_I2C_MemRxCpltCallback is executed and user can
  95:Drivers/STM32F4xx_HAL_Driver/Src/stm32f4xx_hal_i2c.c ****            add his own code by customization of function pointer HAL_I2C_MemRxCpltCallback
  96:Drivers/STM32F4xx_HAL_Driver/Src/stm32f4xx_hal_i2c.c ****       (+) In case of transfer Error, HAL_I2C_ErrorCallback() function is executed and user can
  97:Drivers/STM32F4xx_HAL_Driver/Src/stm32f4xx_hal_i2c.c ****            add his own code by customization of function pointer HAL_I2C_ErrorCallback
  98:Drivers/STM32F4xx_HAL_Driver/Src/stm32f4xx_hal_i2c.c **** 
  99:Drivers/STM32F4xx_HAL_Driver/Src/stm32f4xx_hal_i2c.c ****     *** DMA mode IO operation ***
 100:Drivers/STM32F4xx_HAL_Driver/Src/stm32f4xx_hal_i2c.c ****     ==============================
 101:Drivers/STM32F4xx_HAL_Driver/Src/stm32f4xx_hal_i2c.c ****     [..]
 102:Drivers/STM32F4xx_HAL_Driver/Src/stm32f4xx_hal_i2c.c ****       (+) Transmit in master mode an amount of data in non blocking mode (DMA) using
 103:Drivers/STM32F4xx_HAL_Driver/Src/stm32f4xx_hal_i2c.c ****           HAL_I2C_Master_Transmit_DMA()
 104:Drivers/STM32F4xx_HAL_Driver/Src/stm32f4xx_hal_i2c.c ****       (+) At transmission end of transfer HAL_I2C_MasterTxCpltCallback is executed and user can
 105:Drivers/STM32F4xx_HAL_Driver/Src/stm32f4xx_hal_i2c.c ****            add his own code by customization of function pointer HAL_I2C_MasterTxCpltCallback
 106:Drivers/STM32F4xx_HAL_Driver/Src/stm32f4xx_hal_i2c.c ****       (+) Receive in master mode an amount of data in non blocking mode (DMA) using
 107:Drivers/STM32F4xx_HAL_Driver/Src/stm32f4xx_hal_i2c.c ****           HAL_I2C_Master_Receive_DMA()
 108:Drivers/STM32F4xx_HAL_Driver/Src/stm32f4xx_hal_i2c.c ****       (+) At reception end of transfer HAL_I2C_MasterRxCpltCallback is executed and user can
 109:Drivers/STM32F4xx_HAL_Driver/Src/stm32f4xx_hal_i2c.c ****            add his own code by customization of function pointer HAL_I2C_MasterRxCpltCallback
 110:Drivers/STM32F4xx_HAL_Driver/Src/stm32f4xx_hal_i2c.c ****       (+) Transmit in slave mode an amount of data in non blocking mode (DMA) using
 111:Drivers/STM32F4xx_HAL_Driver/Src/stm32f4xx_hal_i2c.c ****           HAL_I2C_Slave_Transmit_DMA()
 112:Drivers/STM32F4xx_HAL_Driver/Src/stm32f4xx_hal_i2c.c ****       (+) At transmission end of transfer HAL_I2C_SlaveTxCpltCallback is executed and user can
 113:Drivers/STM32F4xx_HAL_Driver/Src/stm32f4xx_hal_i2c.c ****            add his own code by customization of function pointer HAL_I2C_SlaveTxCpltCallback
 114:Drivers/STM32F4xx_HAL_Driver/Src/stm32f4xx_hal_i2c.c ****       (+) Receive in slave mode an amount of data in non blocking mode (DMA) using
 115:Drivers/STM32F4xx_HAL_Driver/Src/stm32f4xx_hal_i2c.c ****           HAL_I2C_Slave_Receive_DMA()
 116:Drivers/STM32F4xx_HAL_Driver/Src/stm32f4xx_hal_i2c.c ****       (+) At reception end of transfer HAL_I2C_SlaveRxCpltCallback is executed and user can
 117:Drivers/STM32F4xx_HAL_Driver/Src/stm32f4xx_hal_i2c.c ****            add his own code by customization of function pointer HAL_I2C_SlaveRxCpltCallback
 118:Drivers/STM32F4xx_HAL_Driver/Src/stm32f4xx_hal_i2c.c ****       (+) In case of transfer Error, HAL_I2C_ErrorCallback() function is executed and user can
 119:Drivers/STM32F4xx_HAL_Driver/Src/stm32f4xx_hal_i2c.c ****            add his own code by customization of function pointer HAL_I2C_ErrorCallback
 120:Drivers/STM32F4xx_HAL_Driver/Src/stm32f4xx_hal_i2c.c **** 
 121:Drivers/STM32F4xx_HAL_Driver/Src/stm32f4xx_hal_i2c.c ****     *** DMA mode IO MEM operation ***
 122:Drivers/STM32F4xx_HAL_Driver/Src/stm32f4xx_hal_i2c.c ****     =================================
 123:Drivers/STM32F4xx_HAL_Driver/Src/stm32f4xx_hal_i2c.c ****     [..]
 124:Drivers/STM32F4xx_HAL_Driver/Src/stm32f4xx_hal_i2c.c ****       (+) Write an amount of data in no-blocking mode with DMA to a specific memory address using
 125:Drivers/STM32F4xx_HAL_Driver/Src/stm32f4xx_hal_i2c.c ****           HAL_I2C_Mem_Write_DMA()
 126:Drivers/STM32F4xx_HAL_Driver/Src/stm32f4xx_hal_i2c.c ****       (+) At MEM end of write transfer HAL_I2C_MemTxCpltCallback is executed and user can
 127:Drivers/STM32F4xx_HAL_Driver/Src/stm32f4xx_hal_i2c.c ****            add his own code by customization of function pointer HAL_I2C_MemTxCpltCallback
 128:Drivers/STM32F4xx_HAL_Driver/Src/stm32f4xx_hal_i2c.c ****       (+) Read an amount of data in no-blocking mode with DMA from a specific memory address using
 129:Drivers/STM32F4xx_HAL_Driver/Src/stm32f4xx_hal_i2c.c ****           HAL_I2C_Mem_Read_DMA()
 130:Drivers/STM32F4xx_HAL_Driver/Src/stm32f4xx_hal_i2c.c ****       (+) At MEM end of read transfer HAL_I2C_MemRxCpltCallback is executed and user can
 131:Drivers/STM32F4xx_HAL_Driver/Src/stm32f4xx_hal_i2c.c ****            add his own code by customization of function pointer HAL_I2C_MemRxCpltCallback
 132:Drivers/STM32F4xx_HAL_Driver/Src/stm32f4xx_hal_i2c.c ****       (+) In case of transfer Error, HAL_I2C_ErrorCallback() function is executed and user can
 133:Drivers/STM32F4xx_HAL_Driver/Src/stm32f4xx_hal_i2c.c ****            add his own code by customization of function pointer HAL_I2C_ErrorCallback
 134:Drivers/STM32F4xx_HAL_Driver/Src/stm32f4xx_hal_i2c.c **** 
 135:Drivers/STM32F4xx_HAL_Driver/Src/stm32f4xx_hal_i2c.c **** 
 136:Drivers/STM32F4xx_HAL_Driver/Src/stm32f4xx_hal_i2c.c ****      *** I2C HAL driver macros list ***
 137:Drivers/STM32F4xx_HAL_Driver/Src/stm32f4xx_hal_i2c.c ****      ==================================
 138:Drivers/STM32F4xx_HAL_Driver/Src/stm32f4xx_hal_i2c.c ****      [..]
 139:Drivers/STM32F4xx_HAL_Driver/Src/stm32f4xx_hal_i2c.c ****        Below the list of most used macros in I2C HAL driver.
 140:Drivers/STM32F4xx_HAL_Driver/Src/stm32f4xx_hal_i2c.c **** 
 141:Drivers/STM32F4xx_HAL_Driver/Src/stm32f4xx_hal_i2c.c ****       (+) __HAL_I2C_ENABLE: Enable the I2C peripheral
 142:Drivers/STM32F4xx_HAL_Driver/Src/stm32f4xx_hal_i2c.c ****       (+) __HAL_I2C_DISABLE: Disable the I2C peripheral
 143:Drivers/STM32F4xx_HAL_Driver/Src/stm32f4xx_hal_i2c.c ****       (+) __HAL_I2C_GET_FLAG : Checks whether the specified I2C flag is set or not
 144:Drivers/STM32F4xx_HAL_Driver/Src/stm32f4xx_hal_i2c.c ****       (+) __HAL_I2C_CLEAR_FLAG : Clear the specified I2C pending flag
 145:Drivers/STM32F4xx_HAL_Driver/Src/stm32f4xx_hal_i2c.c ****       (+) __HAL_I2C_ENABLE_IT: Enable the specified I2C interrupt
ARM GAS  /tmp/cc5bMm9J.s 			page 4


 146:Drivers/STM32F4xx_HAL_Driver/Src/stm32f4xx_hal_i2c.c ****       (+) __HAL_I2C_DISABLE_IT: Disable the specified I2C interrupt
 147:Drivers/STM32F4xx_HAL_Driver/Src/stm32f4xx_hal_i2c.c **** 
 148:Drivers/STM32F4xx_HAL_Driver/Src/stm32f4xx_hal_i2c.c ****      [..]
 149:Drivers/STM32F4xx_HAL_Driver/Src/stm32f4xx_hal_i2c.c ****        (@) You can refer to the I2C HAL driver header file for more useful macros
 150:Drivers/STM32F4xx_HAL_Driver/Src/stm32f4xx_hal_i2c.c **** 
 151:Drivers/STM32F4xx_HAL_Driver/Src/stm32f4xx_hal_i2c.c **** 
 152:Drivers/STM32F4xx_HAL_Driver/Src/stm32f4xx_hal_i2c.c ****   @endverbatim
 153:Drivers/STM32F4xx_HAL_Driver/Src/stm32f4xx_hal_i2c.c ****   ******************************************************************************
 154:Drivers/STM32F4xx_HAL_Driver/Src/stm32f4xx_hal_i2c.c ****   * @attention
 155:Drivers/STM32F4xx_HAL_Driver/Src/stm32f4xx_hal_i2c.c ****   *
 156:Drivers/STM32F4xx_HAL_Driver/Src/stm32f4xx_hal_i2c.c ****   * <h2><center>&copy; COPYRIGHT(c) 2015 STMicroelectronics</center></h2>
 157:Drivers/STM32F4xx_HAL_Driver/Src/stm32f4xx_hal_i2c.c ****   *
 158:Drivers/STM32F4xx_HAL_Driver/Src/stm32f4xx_hal_i2c.c ****   * Redistribution and use in source and binary forms, with or without modification,
 159:Drivers/STM32F4xx_HAL_Driver/Src/stm32f4xx_hal_i2c.c ****   * are permitted provided that the following conditions are met:
 160:Drivers/STM32F4xx_HAL_Driver/Src/stm32f4xx_hal_i2c.c ****   *   1. Redistributions of source code must retain the above copyright notice,
 161:Drivers/STM32F4xx_HAL_Driver/Src/stm32f4xx_hal_i2c.c ****   *      this list of conditions and the following disclaimer.
 162:Drivers/STM32F4xx_HAL_Driver/Src/stm32f4xx_hal_i2c.c ****   *   2. Redistributions in binary form must reproduce the above copyright notice,
 163:Drivers/STM32F4xx_HAL_Driver/Src/stm32f4xx_hal_i2c.c ****   *      this list of conditions and the following disclaimer in the documentation
 164:Drivers/STM32F4xx_HAL_Driver/Src/stm32f4xx_hal_i2c.c ****   *      and/or other materials provided with the distribution.
 165:Drivers/STM32F4xx_HAL_Driver/Src/stm32f4xx_hal_i2c.c ****   *   3. Neither the name of STMicroelectronics nor the names of its contributors
 166:Drivers/STM32F4xx_HAL_Driver/Src/stm32f4xx_hal_i2c.c ****   *      may be used to endorse or promote products derived from this software
 167:Drivers/STM32F4xx_HAL_Driver/Src/stm32f4xx_hal_i2c.c ****   *      without specific prior written permission.
 168:Drivers/STM32F4xx_HAL_Driver/Src/stm32f4xx_hal_i2c.c ****   *
 169:Drivers/STM32F4xx_HAL_Driver/Src/stm32f4xx_hal_i2c.c ****   * THIS SOFTWARE IS PROVIDED BY THE COPYRIGHT HOLDERS AND CONTRIBUTORS "AS IS"
 170:Drivers/STM32F4xx_HAL_Driver/Src/stm32f4xx_hal_i2c.c ****   * AND ANY EXPRESS OR IMPLIED WARRANTIES, INCLUDING, BUT NOT LIMITED TO, THE
 171:Drivers/STM32F4xx_HAL_Driver/Src/stm32f4xx_hal_i2c.c ****   * IMPLIED WARRANTIES OF MERCHANTABILITY AND FITNESS FOR A PARTICULAR PURPOSE ARE
 172:Drivers/STM32F4xx_HAL_Driver/Src/stm32f4xx_hal_i2c.c ****   * DISCLAIMED. IN NO EVENT SHALL THE COPYRIGHT HOLDER OR CONTRIBUTORS BE LIABLE
 173:Drivers/STM32F4xx_HAL_Driver/Src/stm32f4xx_hal_i2c.c ****   * FOR ANY DIRECT, INDIRECT, INCIDENTAL, SPECIAL, EXEMPLARY, OR CONSEQUENTIAL
 174:Drivers/STM32F4xx_HAL_Driver/Src/stm32f4xx_hal_i2c.c ****   * DAMAGES (INCLUDING, BUT NOT LIMITED TO, PROCUREMENT OF SUBSTITUTE GOODS OR
 175:Drivers/STM32F4xx_HAL_Driver/Src/stm32f4xx_hal_i2c.c ****   * SERVICES; LOSS OF USE, DATA, OR PROFITS; OR BUSINESS INTERRUPTION) HOWEVER
 176:Drivers/STM32F4xx_HAL_Driver/Src/stm32f4xx_hal_i2c.c ****   * CAUSED AND ON ANY THEORY OF LIABILITY, WHETHER IN CONTRACT, STRICT LIABILITY,
 177:Drivers/STM32F4xx_HAL_Driver/Src/stm32f4xx_hal_i2c.c ****   * OR TORT (INCLUDING NEGLIGENCE OR OTHERWISE) ARISING IN ANY WAY OUT OF THE USE
 178:Drivers/STM32F4xx_HAL_Driver/Src/stm32f4xx_hal_i2c.c ****   * OF THIS SOFTWARE, EVEN IF ADVISED OF THE POSSIBILITY OF SUCH DAMAGE.
 179:Drivers/STM32F4xx_HAL_Driver/Src/stm32f4xx_hal_i2c.c ****   *
 180:Drivers/STM32F4xx_HAL_Driver/Src/stm32f4xx_hal_i2c.c ****   ******************************************************************************
 181:Drivers/STM32F4xx_HAL_Driver/Src/stm32f4xx_hal_i2c.c ****   */
 182:Drivers/STM32F4xx_HAL_Driver/Src/stm32f4xx_hal_i2c.c **** 
 183:Drivers/STM32F4xx_HAL_Driver/Src/stm32f4xx_hal_i2c.c **** /* Includes ------------------------------------------------------------------*/
 184:Drivers/STM32F4xx_HAL_Driver/Src/stm32f4xx_hal_i2c.c **** #include "stm32f4xx_hal.h"
 185:Drivers/STM32F4xx_HAL_Driver/Src/stm32f4xx_hal_i2c.c **** 
 186:Drivers/STM32F4xx_HAL_Driver/Src/stm32f4xx_hal_i2c.c **** /** @addtogroup STM32F4xx_HAL_Driver
 187:Drivers/STM32F4xx_HAL_Driver/Src/stm32f4xx_hal_i2c.c ****   * @{
 188:Drivers/STM32F4xx_HAL_Driver/Src/stm32f4xx_hal_i2c.c ****   */
 189:Drivers/STM32F4xx_HAL_Driver/Src/stm32f4xx_hal_i2c.c **** 
 190:Drivers/STM32F4xx_HAL_Driver/Src/stm32f4xx_hal_i2c.c **** /** @defgroup I2C I2C
 191:Drivers/STM32F4xx_HAL_Driver/Src/stm32f4xx_hal_i2c.c ****   * @brief I2C HAL module driver
 192:Drivers/STM32F4xx_HAL_Driver/Src/stm32f4xx_hal_i2c.c ****   * @{
 193:Drivers/STM32F4xx_HAL_Driver/Src/stm32f4xx_hal_i2c.c ****   */
 194:Drivers/STM32F4xx_HAL_Driver/Src/stm32f4xx_hal_i2c.c **** 
 195:Drivers/STM32F4xx_HAL_Driver/Src/stm32f4xx_hal_i2c.c **** #ifdef HAL_I2C_MODULE_ENABLED
 196:Drivers/STM32F4xx_HAL_Driver/Src/stm32f4xx_hal_i2c.c **** 
 197:Drivers/STM32F4xx_HAL_Driver/Src/stm32f4xx_hal_i2c.c **** /* Private typedef -----------------------------------------------------------*/
 198:Drivers/STM32F4xx_HAL_Driver/Src/stm32f4xx_hal_i2c.c **** /* Private define ------------------------------------------------------------*/
 199:Drivers/STM32F4xx_HAL_Driver/Src/stm32f4xx_hal_i2c.c **** /** @addtogroup I2C_Private_Constants
 200:Drivers/STM32F4xx_HAL_Driver/Src/stm32f4xx_hal_i2c.c ****   * @{
 201:Drivers/STM32F4xx_HAL_Driver/Src/stm32f4xx_hal_i2c.c ****   */    
 202:Drivers/STM32F4xx_HAL_Driver/Src/stm32f4xx_hal_i2c.c **** #define I2C_TIMEOUT_FLAG          ((uint32_t)35)     /* 35 ms */
ARM GAS  /tmp/cc5bMm9J.s 			page 5


 203:Drivers/STM32F4xx_HAL_Driver/Src/stm32f4xx_hal_i2c.c **** #define I2C_TIMEOUT_ADDR_SLAVE    ((uint32_t)10000)  /* 10 s  */
 204:Drivers/STM32F4xx_HAL_Driver/Src/stm32f4xx_hal_i2c.c **** #define I2C_TIMEOUT_BUSY_FLAG     ((uint32_t)10000)  /* 10 s  */
 205:Drivers/STM32F4xx_HAL_Driver/Src/stm32f4xx_hal_i2c.c **** /**
 206:Drivers/STM32F4xx_HAL_Driver/Src/stm32f4xx_hal_i2c.c ****   * @}
 207:Drivers/STM32F4xx_HAL_Driver/Src/stm32f4xx_hal_i2c.c ****   */
 208:Drivers/STM32F4xx_HAL_Driver/Src/stm32f4xx_hal_i2c.c **** 
 209:Drivers/STM32F4xx_HAL_Driver/Src/stm32f4xx_hal_i2c.c **** /* Private macro -------------------------------------------------------------*/
 210:Drivers/STM32F4xx_HAL_Driver/Src/stm32f4xx_hal_i2c.c **** /* Private variables ---------------------------------------------------------*/
 211:Drivers/STM32F4xx_HAL_Driver/Src/stm32f4xx_hal_i2c.c **** /* Private function prototypes -----------------------------------------------*/
 212:Drivers/STM32F4xx_HAL_Driver/Src/stm32f4xx_hal_i2c.c **** /** @addtogroup I2C_Private_Functions
 213:Drivers/STM32F4xx_HAL_Driver/Src/stm32f4xx_hal_i2c.c ****   * @{
 214:Drivers/STM32F4xx_HAL_Driver/Src/stm32f4xx_hal_i2c.c ****   */
 215:Drivers/STM32F4xx_HAL_Driver/Src/stm32f4xx_hal_i2c.c **** static void I2C_DMAMasterTransmitCplt(DMA_HandleTypeDef *hdma);
 216:Drivers/STM32F4xx_HAL_Driver/Src/stm32f4xx_hal_i2c.c **** static void I2C_DMAMasterReceiveCplt(DMA_HandleTypeDef *hdma);
 217:Drivers/STM32F4xx_HAL_Driver/Src/stm32f4xx_hal_i2c.c **** static void I2C_DMASlaveTransmitCplt(DMA_HandleTypeDef *hdma);
 218:Drivers/STM32F4xx_HAL_Driver/Src/stm32f4xx_hal_i2c.c **** static void I2C_DMASlaveReceiveCplt(DMA_HandleTypeDef *hdma);
 219:Drivers/STM32F4xx_HAL_Driver/Src/stm32f4xx_hal_i2c.c **** static void I2C_DMAMemTransmitCplt(DMA_HandleTypeDef *hdma);
 220:Drivers/STM32F4xx_HAL_Driver/Src/stm32f4xx_hal_i2c.c **** static void I2C_DMAMemReceiveCplt(DMA_HandleTypeDef *hdma);
 221:Drivers/STM32F4xx_HAL_Driver/Src/stm32f4xx_hal_i2c.c **** static void I2C_DMAError(DMA_HandleTypeDef *hdma);
 222:Drivers/STM32F4xx_HAL_Driver/Src/stm32f4xx_hal_i2c.c **** 
 223:Drivers/STM32F4xx_HAL_Driver/Src/stm32f4xx_hal_i2c.c **** static HAL_StatusTypeDef I2C_MasterRequestWrite(I2C_HandleTypeDef *hi2c, uint16_t DevAddress, uint3
 224:Drivers/STM32F4xx_HAL_Driver/Src/stm32f4xx_hal_i2c.c **** static HAL_StatusTypeDef I2C_MasterRequestRead(I2C_HandleTypeDef *hi2c, uint16_t DevAddress, uint32
 225:Drivers/STM32F4xx_HAL_Driver/Src/stm32f4xx_hal_i2c.c **** static HAL_StatusTypeDef I2C_RequestMemoryWrite(I2C_HandleTypeDef *hi2c, uint16_t DevAddress, uint1
 226:Drivers/STM32F4xx_HAL_Driver/Src/stm32f4xx_hal_i2c.c **** static HAL_StatusTypeDef I2C_RequestMemoryRead(I2C_HandleTypeDef *hi2c, uint16_t DevAddress, uint16
 227:Drivers/STM32F4xx_HAL_Driver/Src/stm32f4xx_hal_i2c.c **** static HAL_StatusTypeDef I2C_WaitOnFlagUntilTimeout(I2C_HandleTypeDef *hi2c, uint32_t Flag, FlagSta
 228:Drivers/STM32F4xx_HAL_Driver/Src/stm32f4xx_hal_i2c.c **** static HAL_StatusTypeDef I2C_WaitOnMasterAddressFlagUntilTimeout(I2C_HandleTypeDef *hi2c, uint32_t 
 229:Drivers/STM32F4xx_HAL_Driver/Src/stm32f4xx_hal_i2c.c **** 
 230:Drivers/STM32F4xx_HAL_Driver/Src/stm32f4xx_hal_i2c.c **** static HAL_StatusTypeDef I2C_MasterTransmit_TXE(I2C_HandleTypeDef *hi2c);
 231:Drivers/STM32F4xx_HAL_Driver/Src/stm32f4xx_hal_i2c.c **** static HAL_StatusTypeDef I2C_MasterTransmit_BTF(I2C_HandleTypeDef *hi2c);
 232:Drivers/STM32F4xx_HAL_Driver/Src/stm32f4xx_hal_i2c.c **** static HAL_StatusTypeDef I2C_MasterReceive_RXNE(I2C_HandleTypeDef *hi2c);
 233:Drivers/STM32F4xx_HAL_Driver/Src/stm32f4xx_hal_i2c.c **** static HAL_StatusTypeDef I2C_MasterReceive_BTF(I2C_HandleTypeDef *hi2c);
 234:Drivers/STM32F4xx_HAL_Driver/Src/stm32f4xx_hal_i2c.c **** 
 235:Drivers/STM32F4xx_HAL_Driver/Src/stm32f4xx_hal_i2c.c **** static HAL_StatusTypeDef I2C_SlaveTransmit_TXE(I2C_HandleTypeDef *hi2c);
 236:Drivers/STM32F4xx_HAL_Driver/Src/stm32f4xx_hal_i2c.c **** static HAL_StatusTypeDef I2C_SlaveTransmit_BTF(I2C_HandleTypeDef *hi2c);
 237:Drivers/STM32F4xx_HAL_Driver/Src/stm32f4xx_hal_i2c.c **** static HAL_StatusTypeDef I2C_SlaveReceive_RXNE(I2C_HandleTypeDef *hi2c);
 238:Drivers/STM32F4xx_HAL_Driver/Src/stm32f4xx_hal_i2c.c **** static HAL_StatusTypeDef I2C_SlaveReceive_BTF(I2C_HandleTypeDef *hi2c);
 239:Drivers/STM32F4xx_HAL_Driver/Src/stm32f4xx_hal_i2c.c **** static HAL_StatusTypeDef I2C_Slave_ADDR(I2C_HandleTypeDef *hi2c);
 240:Drivers/STM32F4xx_HAL_Driver/Src/stm32f4xx_hal_i2c.c **** static HAL_StatusTypeDef I2C_Slave_STOPF(I2C_HandleTypeDef *hi2c);
 241:Drivers/STM32F4xx_HAL_Driver/Src/stm32f4xx_hal_i2c.c **** static HAL_StatusTypeDef I2C_Slave_AF(I2C_HandleTypeDef *hi2c);
 242:Drivers/STM32F4xx_HAL_Driver/Src/stm32f4xx_hal_i2c.c **** /**
 243:Drivers/STM32F4xx_HAL_Driver/Src/stm32f4xx_hal_i2c.c ****   * @}
 244:Drivers/STM32F4xx_HAL_Driver/Src/stm32f4xx_hal_i2c.c ****   */
 245:Drivers/STM32F4xx_HAL_Driver/Src/stm32f4xx_hal_i2c.c **** 
 246:Drivers/STM32F4xx_HAL_Driver/Src/stm32f4xx_hal_i2c.c **** /* Exported functions --------------------------------------------------------*/
 247:Drivers/STM32F4xx_HAL_Driver/Src/stm32f4xx_hal_i2c.c **** /** @defgroup I2C_Exported_Functions I2C Exported Functions
 248:Drivers/STM32F4xx_HAL_Driver/Src/stm32f4xx_hal_i2c.c ****   * @{
 249:Drivers/STM32F4xx_HAL_Driver/Src/stm32f4xx_hal_i2c.c ****   */
 250:Drivers/STM32F4xx_HAL_Driver/Src/stm32f4xx_hal_i2c.c **** 
 251:Drivers/STM32F4xx_HAL_Driver/Src/stm32f4xx_hal_i2c.c **** /** @defgroup I2C_Exported_Functions_Group1 Initialization and de-initialization functions
 252:Drivers/STM32F4xx_HAL_Driver/Src/stm32f4xx_hal_i2c.c ****  *  @brief    Initialization and Configuration functions
 253:Drivers/STM32F4xx_HAL_Driver/Src/stm32f4xx_hal_i2c.c ****  *
 254:Drivers/STM32F4xx_HAL_Driver/Src/stm32f4xx_hal_i2c.c **** @verbatim
 255:Drivers/STM32F4xx_HAL_Driver/Src/stm32f4xx_hal_i2c.c ****  ===============================================================================
 256:Drivers/STM32F4xx_HAL_Driver/Src/stm32f4xx_hal_i2c.c ****               ##### Initialization and de-initialization functions #####
 257:Drivers/STM32F4xx_HAL_Driver/Src/stm32f4xx_hal_i2c.c ****  ===============================================================================
 258:Drivers/STM32F4xx_HAL_Driver/Src/stm32f4xx_hal_i2c.c ****     [..]  This subsection provides a set of functions allowing to initialize and
 259:Drivers/STM32F4xx_HAL_Driver/Src/stm32f4xx_hal_i2c.c ****           de-initialize the I2Cx peripheral:
ARM GAS  /tmp/cc5bMm9J.s 			page 6


 260:Drivers/STM32F4xx_HAL_Driver/Src/stm32f4xx_hal_i2c.c **** 
 261:Drivers/STM32F4xx_HAL_Driver/Src/stm32f4xx_hal_i2c.c ****       (+) User must Implement HAL_I2C_MspInit() function in which he configures
 262:Drivers/STM32F4xx_HAL_Driver/Src/stm32f4xx_hal_i2c.c ****           all related peripherals resources (CLOCK, GPIO, DMA, IT and NVIC).
 263:Drivers/STM32F4xx_HAL_Driver/Src/stm32f4xx_hal_i2c.c **** 
 264:Drivers/STM32F4xx_HAL_Driver/Src/stm32f4xx_hal_i2c.c ****       (+) Call the function HAL_I2C_Init() to configure the selected device with
 265:Drivers/STM32F4xx_HAL_Driver/Src/stm32f4xx_hal_i2c.c ****           the selected configuration:
 266:Drivers/STM32F4xx_HAL_Driver/Src/stm32f4xx_hal_i2c.c ****         (++) Communication Speed
 267:Drivers/STM32F4xx_HAL_Driver/Src/stm32f4xx_hal_i2c.c ****         (++) Duty cycle
 268:Drivers/STM32F4xx_HAL_Driver/Src/stm32f4xx_hal_i2c.c ****         (++) Addressing mode
 269:Drivers/STM32F4xx_HAL_Driver/Src/stm32f4xx_hal_i2c.c ****         (++) Own Address 1
 270:Drivers/STM32F4xx_HAL_Driver/Src/stm32f4xx_hal_i2c.c ****         (++) Dual Addressing mode
 271:Drivers/STM32F4xx_HAL_Driver/Src/stm32f4xx_hal_i2c.c ****         (++) Own Address 2
 272:Drivers/STM32F4xx_HAL_Driver/Src/stm32f4xx_hal_i2c.c ****         (++) General call mode
 273:Drivers/STM32F4xx_HAL_Driver/Src/stm32f4xx_hal_i2c.c ****         (++) Nostretch mode
 274:Drivers/STM32F4xx_HAL_Driver/Src/stm32f4xx_hal_i2c.c **** 
 275:Drivers/STM32F4xx_HAL_Driver/Src/stm32f4xx_hal_i2c.c ****       (+) Call the function HAL_I2C_DeInit() to restore the default configuration
 276:Drivers/STM32F4xx_HAL_Driver/Src/stm32f4xx_hal_i2c.c ****           of the selected I2Cx peripheral.
 277:Drivers/STM32F4xx_HAL_Driver/Src/stm32f4xx_hal_i2c.c **** 
 278:Drivers/STM32F4xx_HAL_Driver/Src/stm32f4xx_hal_i2c.c **** @endverbatim
 279:Drivers/STM32F4xx_HAL_Driver/Src/stm32f4xx_hal_i2c.c ****   * @{
 280:Drivers/STM32F4xx_HAL_Driver/Src/stm32f4xx_hal_i2c.c ****   */
 281:Drivers/STM32F4xx_HAL_Driver/Src/stm32f4xx_hal_i2c.c **** 
 282:Drivers/STM32F4xx_HAL_Driver/Src/stm32f4xx_hal_i2c.c **** /**
 283:Drivers/STM32F4xx_HAL_Driver/Src/stm32f4xx_hal_i2c.c ****   * @brief  Initializes the I2C according to the specified parameters
 284:Drivers/STM32F4xx_HAL_Driver/Src/stm32f4xx_hal_i2c.c ****   *         in the I2C_InitTypeDef and create the associated handle.
 285:Drivers/STM32F4xx_HAL_Driver/Src/stm32f4xx_hal_i2c.c ****   * @param  hi2c: pointer to a I2C_HandleTypeDef structure that contains
 286:Drivers/STM32F4xx_HAL_Driver/Src/stm32f4xx_hal_i2c.c ****   *         the configuration information for I2C module
 287:Drivers/STM32F4xx_HAL_Driver/Src/stm32f4xx_hal_i2c.c ****   * @retval HAL status
 288:Drivers/STM32F4xx_HAL_Driver/Src/stm32f4xx_hal_i2c.c ****   */
 289:Drivers/STM32F4xx_HAL_Driver/Src/stm32f4xx_hal_i2c.c **** HAL_StatusTypeDef HAL_I2C_Init(I2C_HandleTypeDef *hi2c)
 290:Drivers/STM32F4xx_HAL_Driver/Src/stm32f4xx_hal_i2c.c **** {
  28              		.loc 1 290 0
  29              		.cfi_startproc
  30              		@ args = 0, pretend = 0, frame = 16
  31              		@ frame_needed = 1, uses_anonymous_args = 0
  32 0000 80B5     		push	{r7, lr}
  33              	.LCFI0:
  34              		.cfi_def_cfa_offset 8
  35              		.cfi_offset 7, -8
  36              		.cfi_offset 14, -4
  37 0002 84B0     		sub	sp, sp, #16
  38              	.LCFI1:
  39              		.cfi_def_cfa_offset 24
  40 0004 00AF     		add	r7, sp, #0
  41              	.LCFI2:
  42              		.cfi_def_cfa_register 7
  43 0006 7860     		str	r0, [r7, #4]
 291:Drivers/STM32F4xx_HAL_Driver/Src/stm32f4xx_hal_i2c.c ****   uint32_t freqrange = 0;
  44              		.loc 1 291 0
  45 0008 0023     		movs	r3, #0
  46 000a FB60     		str	r3, [r7, #12]
 292:Drivers/STM32F4xx_HAL_Driver/Src/stm32f4xx_hal_i2c.c ****   uint32_t pclk1 = 0;
  47              		.loc 1 292 0
  48 000c 0023     		movs	r3, #0
  49 000e BB60     		str	r3, [r7, #8]
 293:Drivers/STM32F4xx_HAL_Driver/Src/stm32f4xx_hal_i2c.c **** 
 294:Drivers/STM32F4xx_HAL_Driver/Src/stm32f4xx_hal_i2c.c ****   /* Check the I2C handle allocation */
ARM GAS  /tmp/cc5bMm9J.s 			page 7


 295:Drivers/STM32F4xx_HAL_Driver/Src/stm32f4xx_hal_i2c.c ****   if(hi2c == NULL)
  50              		.loc 1 295 0
  51 0010 7B68     		ldr	r3, [r7, #4]
  52 0012 002B     		cmp	r3, #0
  53 0014 01D1     		bne	.L2
 296:Drivers/STM32F4xx_HAL_Driver/Src/stm32f4xx_hal_i2c.c ****   {
 297:Drivers/STM32F4xx_HAL_Driver/Src/stm32f4xx_hal_i2c.c ****     return HAL_ERROR;
  54              		.loc 1 297 0
  55 0016 0123     		movs	r3, #1
  56 0018 C1E0     		b	.L3
  57              	.L2:
 298:Drivers/STM32F4xx_HAL_Driver/Src/stm32f4xx_hal_i2c.c ****   }
 299:Drivers/STM32F4xx_HAL_Driver/Src/stm32f4xx_hal_i2c.c **** 
 300:Drivers/STM32F4xx_HAL_Driver/Src/stm32f4xx_hal_i2c.c ****   /* Check the parameters */
 301:Drivers/STM32F4xx_HAL_Driver/Src/stm32f4xx_hal_i2c.c ****   assert_param(IS_I2C_ALL_INSTANCE(hi2c->Instance));
 302:Drivers/STM32F4xx_HAL_Driver/Src/stm32f4xx_hal_i2c.c ****   assert_param(IS_I2C_CLOCK_SPEED(hi2c->Init.ClockSpeed));
 303:Drivers/STM32F4xx_HAL_Driver/Src/stm32f4xx_hal_i2c.c ****   assert_param(IS_I2C_DUTY_CYCLE(hi2c->Init.DutyCycle));
 304:Drivers/STM32F4xx_HAL_Driver/Src/stm32f4xx_hal_i2c.c ****   assert_param(IS_I2C_OWN_ADDRESS1(hi2c->Init.OwnAddress1));
 305:Drivers/STM32F4xx_HAL_Driver/Src/stm32f4xx_hal_i2c.c ****   assert_param(IS_I2C_ADDRESSING_MODE(hi2c->Init.AddressingMode));
 306:Drivers/STM32F4xx_HAL_Driver/Src/stm32f4xx_hal_i2c.c ****   assert_param(IS_I2C_DUAL_ADDRESS(hi2c->Init.DualAddressMode));
 307:Drivers/STM32F4xx_HAL_Driver/Src/stm32f4xx_hal_i2c.c ****   assert_param(IS_I2C_OWN_ADDRESS2(hi2c->Init.OwnAddress2));
 308:Drivers/STM32F4xx_HAL_Driver/Src/stm32f4xx_hal_i2c.c ****   assert_param(IS_I2C_GENERAL_CALL(hi2c->Init.GeneralCallMode));
 309:Drivers/STM32F4xx_HAL_Driver/Src/stm32f4xx_hal_i2c.c ****   assert_param(IS_I2C_NO_STRETCH(hi2c->Init.NoStretchMode));
 310:Drivers/STM32F4xx_HAL_Driver/Src/stm32f4xx_hal_i2c.c **** 
 311:Drivers/STM32F4xx_HAL_Driver/Src/stm32f4xx_hal_i2c.c ****   if(hi2c->State == HAL_I2C_STATE_RESET)
  58              		.loc 1 311 0
  59 001a 7B68     		ldr	r3, [r7, #4]
  60 001c 93F83530 		ldrb	r3, [r3, #53]
  61 0020 DBB2     		uxtb	r3, r3
  62 0022 002B     		cmp	r3, #0
  63 0024 06D1     		bne	.L4
 312:Drivers/STM32F4xx_HAL_Driver/Src/stm32f4xx_hal_i2c.c ****   {
 313:Drivers/STM32F4xx_HAL_Driver/Src/stm32f4xx_hal_i2c.c ****     /* Allocate lock resource and initialize it */
 314:Drivers/STM32F4xx_HAL_Driver/Src/stm32f4xx_hal_i2c.c ****     hi2c->Lock = HAL_UNLOCKED;
  64              		.loc 1 314 0
  65 0026 7B68     		ldr	r3, [r7, #4]
  66 0028 0022     		movs	r2, #0
  67 002a 83F83420 		strb	r2, [r3, #52]
 315:Drivers/STM32F4xx_HAL_Driver/Src/stm32f4xx_hal_i2c.c ****     /* Init the low level hardware : GPIO, CLOCK, NVIC */
 316:Drivers/STM32F4xx_HAL_Driver/Src/stm32f4xx_hal_i2c.c ****     HAL_I2C_MspInit(hi2c);
  68              		.loc 1 316 0
  69 002e 7868     		ldr	r0, [r7, #4]
  70 0030 FFF7FEFF 		bl	HAL_I2C_MspInit
  71              	.L4:
 317:Drivers/STM32F4xx_HAL_Driver/Src/stm32f4xx_hal_i2c.c ****   }
 318:Drivers/STM32F4xx_HAL_Driver/Src/stm32f4xx_hal_i2c.c **** 
 319:Drivers/STM32F4xx_HAL_Driver/Src/stm32f4xx_hal_i2c.c ****   hi2c->State = HAL_I2C_STATE_BUSY;
  72              		.loc 1 319 0
  73 0034 7B68     		ldr	r3, [r7, #4]
  74 0036 0222     		movs	r2, #2
  75 0038 83F83520 		strb	r2, [r3, #53]
 320:Drivers/STM32F4xx_HAL_Driver/Src/stm32f4xx_hal_i2c.c **** 
 321:Drivers/STM32F4xx_HAL_Driver/Src/stm32f4xx_hal_i2c.c ****   /* Disable the selected I2C peripheral */
 322:Drivers/STM32F4xx_HAL_Driver/Src/stm32f4xx_hal_i2c.c ****   __HAL_I2C_DISABLE(hi2c);
  76              		.loc 1 322 0
  77 003c 7B68     		ldr	r3, [r7, #4]
  78 003e 1B68     		ldr	r3, [r3]
ARM GAS  /tmp/cc5bMm9J.s 			page 8


  79 0040 7A68     		ldr	r2, [r7, #4]
  80 0042 1268     		ldr	r2, [r2]
  81 0044 1268     		ldr	r2, [r2]
  82 0046 22F00102 		bic	r2, r2, #1
  83 004a 1A60     		str	r2, [r3]
 323:Drivers/STM32F4xx_HAL_Driver/Src/stm32f4xx_hal_i2c.c **** 
 324:Drivers/STM32F4xx_HAL_Driver/Src/stm32f4xx_hal_i2c.c ****   /* Get PCLK1 frequency */
 325:Drivers/STM32F4xx_HAL_Driver/Src/stm32f4xx_hal_i2c.c ****   pclk1 = HAL_RCC_GetPCLK1Freq();
  84              		.loc 1 325 0
  85 004c FFF7FEFF 		bl	HAL_RCC_GetPCLK1Freq
  86 0050 B860     		str	r0, [r7, #8]
 326:Drivers/STM32F4xx_HAL_Driver/Src/stm32f4xx_hal_i2c.c **** 
 327:Drivers/STM32F4xx_HAL_Driver/Src/stm32f4xx_hal_i2c.c ****   /* Calculate frequency range */
 328:Drivers/STM32F4xx_HAL_Driver/Src/stm32f4xx_hal_i2c.c ****   freqrange = I2C_FREQRANGE(pclk1);
  87              		.loc 1 328 0
  88 0052 BA68     		ldr	r2, [r7, #8]
  89 0054 544B     		ldr	r3, .L17
  90 0056 A3FB0203 		umull	r0, r3, r3, r2
  91 005a 9B0C     		lsrs	r3, r3, #18
  92 005c FB60     		str	r3, [r7, #12]
 329:Drivers/STM32F4xx_HAL_Driver/Src/stm32f4xx_hal_i2c.c **** 
 330:Drivers/STM32F4xx_HAL_Driver/Src/stm32f4xx_hal_i2c.c ****   /*---------------------------- I2Cx CR2 Configuration ----------------------*/
 331:Drivers/STM32F4xx_HAL_Driver/Src/stm32f4xx_hal_i2c.c ****   /* Configure I2Cx: Frequency range */
 332:Drivers/STM32F4xx_HAL_Driver/Src/stm32f4xx_hal_i2c.c ****   hi2c->Instance->CR2 = freqrange;
  93              		.loc 1 332 0
  94 005e 7B68     		ldr	r3, [r7, #4]
  95 0060 1B68     		ldr	r3, [r3]
  96 0062 FA68     		ldr	r2, [r7, #12]
  97 0064 5A60     		str	r2, [r3, #4]
 333:Drivers/STM32F4xx_HAL_Driver/Src/stm32f4xx_hal_i2c.c **** 
 334:Drivers/STM32F4xx_HAL_Driver/Src/stm32f4xx_hal_i2c.c ****   /*---------------------------- I2Cx TRISE Configuration --------------------*/
 335:Drivers/STM32F4xx_HAL_Driver/Src/stm32f4xx_hal_i2c.c ****   /* Configure I2Cx: Rise Time */
 336:Drivers/STM32F4xx_HAL_Driver/Src/stm32f4xx_hal_i2c.c ****   hi2c->Instance->TRISE = I2C_RISE_TIME(freqrange, hi2c->Init.ClockSpeed);
  98              		.loc 1 336 0
  99 0066 7B68     		ldr	r3, [r7, #4]
 100 0068 1A68     		ldr	r2, [r3]
 101 006a 7B68     		ldr	r3, [r7, #4]
 102 006c 5968     		ldr	r1, [r3, #4]
 103 006e 4F4B     		ldr	r3, .L17+4
 104 0070 9942     		cmp	r1, r3
 105 0072 02D8     		bhi	.L5
 106              		.loc 1 336 0 is_stmt 0 discriminator 1
 107 0074 FB68     		ldr	r3, [r7, #12]
 108 0076 0133     		adds	r3, r3, #1
 109 0078 09E0     		b	.L6
 110              	.L5:
 111              		.loc 1 336 0 discriminator 2
 112 007a FB68     		ldr	r3, [r7, #12]
 113 007c 4FF49671 		mov	r1, #300
 114 0080 01FB03F1 		mul	r1, r1, r3
 115 0084 4A4B     		ldr	r3, .L17+8
 116 0086 A3FB0103 		umull	r0, r3, r3, r1
 117 008a 9B09     		lsrs	r3, r3, #6
 118 008c 0133     		adds	r3, r3, #1
 119              	.L6:
 120              		.loc 1 336 0 discriminator 3
 121 008e 1362     		str	r3, [r2, #32]
ARM GAS  /tmp/cc5bMm9J.s 			page 9


 337:Drivers/STM32F4xx_HAL_Driver/Src/stm32f4xx_hal_i2c.c **** 
 338:Drivers/STM32F4xx_HAL_Driver/Src/stm32f4xx_hal_i2c.c ****   /*---------------------------- I2Cx CCR Configuration ----------------------*/
 339:Drivers/STM32F4xx_HAL_Driver/Src/stm32f4xx_hal_i2c.c ****   /* Configure I2Cx: Speed */
 340:Drivers/STM32F4xx_HAL_Driver/Src/stm32f4xx_hal_i2c.c ****   hi2c->Instance->CCR = I2C_SPEED(pclk1, hi2c->Init.ClockSpeed, hi2c->Init.DutyCycle);
 122              		.loc 1 340 0 is_stmt 1 discriminator 3
 123 0090 7B68     		ldr	r3, [r7, #4]
 124 0092 1968     		ldr	r1, [r3]
 125 0094 7B68     		ldr	r3, [r7, #4]
 126 0096 5A68     		ldr	r2, [r3, #4]
 127 0098 444B     		ldr	r3, .L17+4
 128 009a 9A42     		cmp	r2, r3
 129 009c 12D8     		bhi	.L7
 130              		.loc 1 340 0 is_stmt 0 discriminator 1
 131 009e 7B68     		ldr	r3, [r7, #4]
 132 00a0 5B68     		ldr	r3, [r3, #4]
 133 00a2 5B00     		lsls	r3, r3, #1
 134 00a4 BA68     		ldr	r2, [r7, #8]
 135 00a6 B2FBF3F3 		udiv	r3, r2, r3
 136 00aa C3F30B03 		ubfx	r3, r3, #0, #12
 137 00ae 032B     		cmp	r3, #3
 138 00b0 06D9     		bls	.L8
 139 00b2 7B68     		ldr	r3, [r7, #4]
 140 00b4 5B68     		ldr	r3, [r3, #4]
 141 00b6 5B00     		lsls	r3, r3, #1
 142 00b8 BA68     		ldr	r2, [r7, #8]
 143 00ba B2FBF3F3 		udiv	r3, r2, r3
 144 00be 45E0     		b	.L10
 145              	.L8:
 146              		.loc 1 340 0 discriminator 2
 147 00c0 0423     		movs	r3, #4
 148 00c2 43E0     		b	.L10
 149              	.L7:
 150 00c4 7B68     		ldr	r3, [r7, #4]
 151 00c6 9B68     		ldr	r3, [r3, #8]
 152 00c8 002B     		cmp	r3, #0
 153 00ca 0FD1     		bne	.L11
 154              		.loc 1 340 0 discriminator 1
 155 00cc 7B68     		ldr	r3, [r7, #4]
 156 00ce 5A68     		ldr	r2, [r3, #4]
 157 00d0 1346     		mov	r3, r2
 158 00d2 5B00     		lsls	r3, r3, #1
 159 00d4 1344     		add	r3, r3, r2
 160 00d6 BA68     		ldr	r2, [r7, #8]
 161 00d8 B2FBF3F3 		udiv	r3, r2, r3
 162 00dc C3F30B03 		ubfx	r3, r3, #0, #12
 163 00e0 002B     		cmp	r3, #0
 164 00e2 14BF     		ite	ne
 165 00e4 0023     		movne	r3, #0
 166 00e6 0123     		moveq	r3, #1
 167 00e8 DBB2     		uxtb	r3, r3
 168 00ea 10E0     		b	.L12
 169              	.L11:
 170              		.loc 1 340 0 discriminator 2
 171 00ec 7B68     		ldr	r3, [r7, #4]
 172 00ee 5A68     		ldr	r2, [r3, #4]
 173 00f0 1346     		mov	r3, r2
 174 00f2 9B00     		lsls	r3, r3, #2
ARM GAS  /tmp/cc5bMm9J.s 			page 10


 175 00f4 1344     		add	r3, r3, r2
 176 00f6 9A00     		lsls	r2, r3, #2
 177 00f8 1344     		add	r3, r3, r2
 178 00fa BA68     		ldr	r2, [r7, #8]
 179 00fc B2FBF3F3 		udiv	r3, r2, r3
 180 0100 C3F30B03 		ubfx	r3, r3, #0, #12
 181 0104 002B     		cmp	r3, #0
 182 0106 14BF     		ite	ne
 183 0108 0023     		movne	r3, #0
 184 010a 0123     		moveq	r3, #1
 185 010c DBB2     		uxtb	r3, r3
 186              	.L12:
 187              		.loc 1 340 0 discriminator 3
 188 010e 002B     		cmp	r3, #0
 189 0110 01D0     		beq	.L13
 190              		.loc 1 340 0 discriminator 1
 191 0112 0123     		movs	r3, #1
 192 0114 1AE0     		b	.L10
 193              	.L13:
 194              		.loc 1 340 0 discriminator 2
 195 0116 7B68     		ldr	r3, [r7, #4]
 196 0118 9B68     		ldr	r3, [r3, #8]
 197 011a 002B     		cmp	r3, #0
 198 011c 0AD1     		bne	.L15
 199              		.loc 1 340 0 discriminator 1
 200 011e 7B68     		ldr	r3, [r7, #4]
 201 0120 5A68     		ldr	r2, [r3, #4]
 202 0122 1346     		mov	r3, r2
 203 0124 5B00     		lsls	r3, r3, #1
 204 0126 1344     		add	r3, r3, r2
 205 0128 BA68     		ldr	r2, [r7, #8]
 206 012a B2FBF3F3 		udiv	r3, r2, r3
 207 012e 43F40043 		orr	r3, r3, #32768
 208 0132 0BE0     		b	.L10
 209              	.L15:
 210              		.loc 1 340 0 discriminator 2
 211 0134 7B68     		ldr	r3, [r7, #4]
 212 0136 5A68     		ldr	r2, [r3, #4]
 213 0138 1346     		mov	r3, r2
 214 013a 9B00     		lsls	r3, r3, #2
 215 013c 1344     		add	r3, r3, r2
 216 013e 9A00     		lsls	r2, r3, #2
 217 0140 1344     		add	r3, r3, r2
 218 0142 BA68     		ldr	r2, [r7, #8]
 219 0144 B2FBF3F3 		udiv	r3, r2, r3
 220 0148 43F44043 		orr	r3, r3, #49152
 221              	.L10:
 222              		.loc 1 340 0 discriminator 3
 223 014c CB61     		str	r3, [r1, #28]
 341:Drivers/STM32F4xx_HAL_Driver/Src/stm32f4xx_hal_i2c.c **** 
 342:Drivers/STM32F4xx_HAL_Driver/Src/stm32f4xx_hal_i2c.c ****   /*---------------------------- I2Cx CR1 Configuration ----------------------*/
 343:Drivers/STM32F4xx_HAL_Driver/Src/stm32f4xx_hal_i2c.c ****   /* Configure I2Cx: Generalcall and NoStretch mode */
 344:Drivers/STM32F4xx_HAL_Driver/Src/stm32f4xx_hal_i2c.c ****   hi2c->Instance->CR1 = (hi2c->Init.GeneralCallMode | hi2c->Init.NoStretchMode);
 224              		.loc 1 344 0 is_stmt 1 discriminator 3
 225 014e 7B68     		ldr	r3, [r7, #4]
 226 0150 1B68     		ldr	r3, [r3]
 227 0152 7A68     		ldr	r2, [r7, #4]
ARM GAS  /tmp/cc5bMm9J.s 			page 11


 228 0154 D169     		ldr	r1, [r2, #28]
 229 0156 7A68     		ldr	r2, [r7, #4]
 230 0158 126A     		ldr	r2, [r2, #32]
 231 015a 0A43     		orrs	r2, r2, r1
 232 015c 1A60     		str	r2, [r3]
 345:Drivers/STM32F4xx_HAL_Driver/Src/stm32f4xx_hal_i2c.c **** 
 346:Drivers/STM32F4xx_HAL_Driver/Src/stm32f4xx_hal_i2c.c ****   /*---------------------------- I2Cx OAR1 Configuration ---------------------*/
 347:Drivers/STM32F4xx_HAL_Driver/Src/stm32f4xx_hal_i2c.c ****   /* Configure I2Cx: Own Address1 and addressing mode */
 348:Drivers/STM32F4xx_HAL_Driver/Src/stm32f4xx_hal_i2c.c ****   hi2c->Instance->OAR1 = (hi2c->Init.AddressingMode | hi2c->Init.OwnAddress1);
 233              		.loc 1 348 0 discriminator 3
 234 015e 7B68     		ldr	r3, [r7, #4]
 235 0160 1B68     		ldr	r3, [r3]
 236 0162 7A68     		ldr	r2, [r7, #4]
 237 0164 1169     		ldr	r1, [r2, #16]
 238 0166 7A68     		ldr	r2, [r7, #4]
 239 0168 D268     		ldr	r2, [r2, #12]
 240 016a 0A43     		orrs	r2, r2, r1
 241 016c 9A60     		str	r2, [r3, #8]
 349:Drivers/STM32F4xx_HAL_Driver/Src/stm32f4xx_hal_i2c.c **** 
 350:Drivers/STM32F4xx_HAL_Driver/Src/stm32f4xx_hal_i2c.c ****   /*---------------------------- I2Cx OAR2 Configuration ---------------------*/
 351:Drivers/STM32F4xx_HAL_Driver/Src/stm32f4xx_hal_i2c.c ****   /* Configure I2Cx: Dual mode and Own Address2 */
 352:Drivers/STM32F4xx_HAL_Driver/Src/stm32f4xx_hal_i2c.c ****   hi2c->Instance->OAR2 = (hi2c->Init.DualAddressMode | hi2c->Init.OwnAddress2);
 242              		.loc 1 352 0 discriminator 3
 243 016e 7B68     		ldr	r3, [r7, #4]
 244 0170 1B68     		ldr	r3, [r3]
 245 0172 7A68     		ldr	r2, [r7, #4]
 246 0174 5169     		ldr	r1, [r2, #20]
 247 0176 7A68     		ldr	r2, [r7, #4]
 248 0178 9269     		ldr	r2, [r2, #24]
 249 017a 0A43     		orrs	r2, r2, r1
 250 017c DA60     		str	r2, [r3, #12]
 353:Drivers/STM32F4xx_HAL_Driver/Src/stm32f4xx_hal_i2c.c **** 
 354:Drivers/STM32F4xx_HAL_Driver/Src/stm32f4xx_hal_i2c.c ****   /* Enable the selected I2C peripheral */
 355:Drivers/STM32F4xx_HAL_Driver/Src/stm32f4xx_hal_i2c.c ****   __HAL_I2C_ENABLE(hi2c);
 251              		.loc 1 355 0 discriminator 3
 252 017e 7B68     		ldr	r3, [r7, #4]
 253 0180 1B68     		ldr	r3, [r3]
 254 0182 7A68     		ldr	r2, [r7, #4]
 255 0184 1268     		ldr	r2, [r2]
 256 0186 1268     		ldr	r2, [r2]
 257 0188 42F00102 		orr	r2, r2, #1
 258 018c 1A60     		str	r2, [r3]
 356:Drivers/STM32F4xx_HAL_Driver/Src/stm32f4xx_hal_i2c.c **** 
 357:Drivers/STM32F4xx_HAL_Driver/Src/stm32f4xx_hal_i2c.c ****   hi2c->ErrorCode = HAL_I2C_ERROR_NONE;
 259              		.loc 1 357 0 discriminator 3
 260 018e 7B68     		ldr	r3, [r7, #4]
 261 0190 0022     		movs	r2, #0
 262 0192 9A63     		str	r2, [r3, #56]
 358:Drivers/STM32F4xx_HAL_Driver/Src/stm32f4xx_hal_i2c.c ****   hi2c->State = HAL_I2C_STATE_READY;
 263              		.loc 1 358 0 discriminator 3
 264 0194 7B68     		ldr	r3, [r7, #4]
 265 0196 0122     		movs	r2, #1
 266 0198 83F83520 		strb	r2, [r3, #53]
 359:Drivers/STM32F4xx_HAL_Driver/Src/stm32f4xx_hal_i2c.c **** 
 360:Drivers/STM32F4xx_HAL_Driver/Src/stm32f4xx_hal_i2c.c ****   return HAL_OK;
 267              		.loc 1 360 0 discriminator 3
 268 019c 0023     		movs	r3, #0
ARM GAS  /tmp/cc5bMm9J.s 			page 12


 269              	.L3:
 361:Drivers/STM32F4xx_HAL_Driver/Src/stm32f4xx_hal_i2c.c **** }
 270              		.loc 1 361 0
 271 019e 1846     		mov	r0, r3
 272 01a0 1037     		adds	r7, r7, #16
 273 01a2 BD46     		mov	sp, r7
 274              		@ sp needed
 275 01a4 80BD     		pop	{r7, pc}
 276              	.L18:
 277 01a6 00BF     		.align	2
 278              	.L17:
 279 01a8 83DE1B43 		.word	1125899907
 280 01ac A0860100 		.word	100000
 281 01b0 D34D6210 		.word	274877907
 282              		.cfi_endproc
 283              	.LFE125:
 285              		.section	.text.HAL_I2C_DeInit,"ax",%progbits
 286              		.align	2
 287              		.global	HAL_I2C_DeInit
 288              		.thumb
 289              		.thumb_func
 291              	HAL_I2C_DeInit:
 292              	.LFB126:
 362:Drivers/STM32F4xx_HAL_Driver/Src/stm32f4xx_hal_i2c.c **** 
 363:Drivers/STM32F4xx_HAL_Driver/Src/stm32f4xx_hal_i2c.c **** /**
 364:Drivers/STM32F4xx_HAL_Driver/Src/stm32f4xx_hal_i2c.c ****   * @brief  DeInitializes the I2C peripheral.
 365:Drivers/STM32F4xx_HAL_Driver/Src/stm32f4xx_hal_i2c.c ****   * @param  hi2c: pointer to a I2C_HandleTypeDef structure that contains
 366:Drivers/STM32F4xx_HAL_Driver/Src/stm32f4xx_hal_i2c.c ****   *         the configuration information for I2C module
 367:Drivers/STM32F4xx_HAL_Driver/Src/stm32f4xx_hal_i2c.c ****   * @retval HAL status
 368:Drivers/STM32F4xx_HAL_Driver/Src/stm32f4xx_hal_i2c.c ****   */
 369:Drivers/STM32F4xx_HAL_Driver/Src/stm32f4xx_hal_i2c.c **** HAL_StatusTypeDef HAL_I2C_DeInit(I2C_HandleTypeDef *hi2c)
 370:Drivers/STM32F4xx_HAL_Driver/Src/stm32f4xx_hal_i2c.c **** {
 293              		.loc 1 370 0
 294              		.cfi_startproc
 295              		@ args = 0, pretend = 0, frame = 8
 296              		@ frame_needed = 1, uses_anonymous_args = 0
 297 0000 80B5     		push	{r7, lr}
 298              	.LCFI3:
 299              		.cfi_def_cfa_offset 8
 300              		.cfi_offset 7, -8
 301              		.cfi_offset 14, -4
 302 0002 82B0     		sub	sp, sp, #8
 303              	.LCFI4:
 304              		.cfi_def_cfa_offset 16
 305 0004 00AF     		add	r7, sp, #0
 306              	.LCFI5:
 307              		.cfi_def_cfa_register 7
 308 0006 7860     		str	r0, [r7, #4]
 371:Drivers/STM32F4xx_HAL_Driver/Src/stm32f4xx_hal_i2c.c ****   /* Check the I2C handle allocation */
 372:Drivers/STM32F4xx_HAL_Driver/Src/stm32f4xx_hal_i2c.c ****   if(hi2c == NULL)
 309              		.loc 1 372 0
 310 0008 7B68     		ldr	r3, [r7, #4]
 311 000a 002B     		cmp	r3, #0
 312 000c 01D1     		bne	.L20
 373:Drivers/STM32F4xx_HAL_Driver/Src/stm32f4xx_hal_i2c.c ****   {
 374:Drivers/STM32F4xx_HAL_Driver/Src/stm32f4xx_hal_i2c.c ****     return HAL_ERROR;
 313              		.loc 1 374 0
ARM GAS  /tmp/cc5bMm9J.s 			page 13


 314 000e 0123     		movs	r3, #1
 315 0010 1AE0     		b	.L21
 316              	.L20:
 375:Drivers/STM32F4xx_HAL_Driver/Src/stm32f4xx_hal_i2c.c ****   }
 376:Drivers/STM32F4xx_HAL_Driver/Src/stm32f4xx_hal_i2c.c **** 
 377:Drivers/STM32F4xx_HAL_Driver/Src/stm32f4xx_hal_i2c.c ****   /* Check the parameters */
 378:Drivers/STM32F4xx_HAL_Driver/Src/stm32f4xx_hal_i2c.c ****   assert_param(IS_I2C_ALL_INSTANCE(hi2c->Instance));
 379:Drivers/STM32F4xx_HAL_Driver/Src/stm32f4xx_hal_i2c.c **** 
 380:Drivers/STM32F4xx_HAL_Driver/Src/stm32f4xx_hal_i2c.c ****   hi2c->State = HAL_I2C_STATE_BUSY;
 317              		.loc 1 380 0
 318 0012 7B68     		ldr	r3, [r7, #4]
 319 0014 0222     		movs	r2, #2
 320 0016 83F83520 		strb	r2, [r3, #53]
 381:Drivers/STM32F4xx_HAL_Driver/Src/stm32f4xx_hal_i2c.c **** 
 382:Drivers/STM32F4xx_HAL_Driver/Src/stm32f4xx_hal_i2c.c ****   /* Disable the I2C Peripheral Clock */
 383:Drivers/STM32F4xx_HAL_Driver/Src/stm32f4xx_hal_i2c.c ****   __HAL_I2C_DISABLE(hi2c);
 321              		.loc 1 383 0
 322 001a 7B68     		ldr	r3, [r7, #4]
 323 001c 1B68     		ldr	r3, [r3]
 324 001e 7A68     		ldr	r2, [r7, #4]
 325 0020 1268     		ldr	r2, [r2]
 326 0022 1268     		ldr	r2, [r2]
 327 0024 22F00102 		bic	r2, r2, #1
 328 0028 1A60     		str	r2, [r3]
 384:Drivers/STM32F4xx_HAL_Driver/Src/stm32f4xx_hal_i2c.c **** 
 385:Drivers/STM32F4xx_HAL_Driver/Src/stm32f4xx_hal_i2c.c ****   /* DeInit the low level hardware: GPIO, CLOCK, NVIC */
 386:Drivers/STM32F4xx_HAL_Driver/Src/stm32f4xx_hal_i2c.c ****   HAL_I2C_MspDeInit(hi2c);
 329              		.loc 1 386 0
 330 002a 7868     		ldr	r0, [r7, #4]
 331 002c FFF7FEFF 		bl	HAL_I2C_MspDeInit
 387:Drivers/STM32F4xx_HAL_Driver/Src/stm32f4xx_hal_i2c.c **** 
 388:Drivers/STM32F4xx_HAL_Driver/Src/stm32f4xx_hal_i2c.c ****   hi2c->ErrorCode = HAL_I2C_ERROR_NONE;
 332              		.loc 1 388 0
 333 0030 7B68     		ldr	r3, [r7, #4]
 334 0032 0022     		movs	r2, #0
 335 0034 9A63     		str	r2, [r3, #56]
 389:Drivers/STM32F4xx_HAL_Driver/Src/stm32f4xx_hal_i2c.c **** 
 390:Drivers/STM32F4xx_HAL_Driver/Src/stm32f4xx_hal_i2c.c ****   hi2c->State = HAL_I2C_STATE_RESET;
 336              		.loc 1 390 0
 337 0036 7B68     		ldr	r3, [r7, #4]
 338 0038 0022     		movs	r2, #0
 339 003a 83F83520 		strb	r2, [r3, #53]
 391:Drivers/STM32F4xx_HAL_Driver/Src/stm32f4xx_hal_i2c.c **** 
 392:Drivers/STM32F4xx_HAL_Driver/Src/stm32f4xx_hal_i2c.c ****   /* Release Lock */
 393:Drivers/STM32F4xx_HAL_Driver/Src/stm32f4xx_hal_i2c.c ****   __HAL_UNLOCK(hi2c);
 340              		.loc 1 393 0
 341 003e 7B68     		ldr	r3, [r7, #4]
 342 0040 0022     		movs	r2, #0
 343 0042 83F83420 		strb	r2, [r3, #52]
 394:Drivers/STM32F4xx_HAL_Driver/Src/stm32f4xx_hal_i2c.c **** 
 395:Drivers/STM32F4xx_HAL_Driver/Src/stm32f4xx_hal_i2c.c ****   return HAL_OK;
 344              		.loc 1 395 0
 345 0046 0023     		movs	r3, #0
 346              	.L21:
 396:Drivers/STM32F4xx_HAL_Driver/Src/stm32f4xx_hal_i2c.c **** }
 347              		.loc 1 396 0
 348 0048 1846     		mov	r0, r3
ARM GAS  /tmp/cc5bMm9J.s 			page 14


 349 004a 0837     		adds	r7, r7, #8
 350 004c BD46     		mov	sp, r7
 351              		@ sp needed
 352 004e 80BD     		pop	{r7, pc}
 353              		.cfi_endproc
 354              	.LFE126:
 356              		.section	.text.HAL_I2C_MspInit,"ax",%progbits
 357              		.align	2
 358              		.weak	HAL_I2C_MspInit
 359              		.thumb
 360              		.thumb_func
 362              	HAL_I2C_MspInit:
 363              	.LFB127:
 397:Drivers/STM32F4xx_HAL_Driver/Src/stm32f4xx_hal_i2c.c **** 
 398:Drivers/STM32F4xx_HAL_Driver/Src/stm32f4xx_hal_i2c.c **** /**
 399:Drivers/STM32F4xx_HAL_Driver/Src/stm32f4xx_hal_i2c.c ****   * @brief I2C MSP Init.
 400:Drivers/STM32F4xx_HAL_Driver/Src/stm32f4xx_hal_i2c.c ****   * @param  hi2c: pointer to a I2C_HandleTypeDef structure that contains
 401:Drivers/STM32F4xx_HAL_Driver/Src/stm32f4xx_hal_i2c.c ****   *         the configuration information for I2C module
 402:Drivers/STM32F4xx_HAL_Driver/Src/stm32f4xx_hal_i2c.c ****   * @retval None
 403:Drivers/STM32F4xx_HAL_Driver/Src/stm32f4xx_hal_i2c.c ****   */
 404:Drivers/STM32F4xx_HAL_Driver/Src/stm32f4xx_hal_i2c.c ****  __weak void HAL_I2C_MspInit(I2C_HandleTypeDef *hi2c)
 405:Drivers/STM32F4xx_HAL_Driver/Src/stm32f4xx_hal_i2c.c **** {
 364              		.loc 1 405 0
 365              		.cfi_startproc
 366              		@ args = 0, pretend = 0, frame = 8
 367              		@ frame_needed = 1, uses_anonymous_args = 0
 368              		@ link register save eliminated.
 369 0000 80B4     		push	{r7}
 370              	.LCFI6:
 371              		.cfi_def_cfa_offset 4
 372              		.cfi_offset 7, -4
 373 0002 83B0     		sub	sp, sp, #12
 374              	.LCFI7:
 375              		.cfi_def_cfa_offset 16
 376 0004 00AF     		add	r7, sp, #0
 377              	.LCFI8:
 378              		.cfi_def_cfa_register 7
 379 0006 7860     		str	r0, [r7, #4]
 406:Drivers/STM32F4xx_HAL_Driver/Src/stm32f4xx_hal_i2c.c ****   /* NOTE : This function Should not be modified, when the callback is needed,
 407:Drivers/STM32F4xx_HAL_Driver/Src/stm32f4xx_hal_i2c.c ****             the HAL_I2C_MspInit could be implemented in the user file
 408:Drivers/STM32F4xx_HAL_Driver/Src/stm32f4xx_hal_i2c.c ****    */
 409:Drivers/STM32F4xx_HAL_Driver/Src/stm32f4xx_hal_i2c.c **** }
 380              		.loc 1 409 0
 381 0008 0C37     		adds	r7, r7, #12
 382 000a BD46     		mov	sp, r7
 383              		@ sp needed
 384 000c 5DF8047B 		ldr	r7, [sp], #4
 385 0010 7047     		bx	lr
 386              		.cfi_endproc
 387              	.LFE127:
 389 0012 00BF     		.section	.text.HAL_I2C_MspDeInit,"ax",%progbits
 390              		.align	2
 391              		.weak	HAL_I2C_MspDeInit
 392              		.thumb
 393              		.thumb_func
 395              	HAL_I2C_MspDeInit:
 396              	.LFB128:
ARM GAS  /tmp/cc5bMm9J.s 			page 15


 410:Drivers/STM32F4xx_HAL_Driver/Src/stm32f4xx_hal_i2c.c **** 
 411:Drivers/STM32F4xx_HAL_Driver/Src/stm32f4xx_hal_i2c.c **** /**
 412:Drivers/STM32F4xx_HAL_Driver/Src/stm32f4xx_hal_i2c.c ****   * @brief I2C MSP DeInit
 413:Drivers/STM32F4xx_HAL_Driver/Src/stm32f4xx_hal_i2c.c ****   * @param  hi2c: pointer to a I2C_HandleTypeDef structure that contains
 414:Drivers/STM32F4xx_HAL_Driver/Src/stm32f4xx_hal_i2c.c ****   *         the configuration information for I2C module
 415:Drivers/STM32F4xx_HAL_Driver/Src/stm32f4xx_hal_i2c.c ****   * @retval None
 416:Drivers/STM32F4xx_HAL_Driver/Src/stm32f4xx_hal_i2c.c ****   */
 417:Drivers/STM32F4xx_HAL_Driver/Src/stm32f4xx_hal_i2c.c ****  __weak void HAL_I2C_MspDeInit(I2C_HandleTypeDef *hi2c)
 418:Drivers/STM32F4xx_HAL_Driver/Src/stm32f4xx_hal_i2c.c **** {
 397              		.loc 1 418 0
 398              		.cfi_startproc
 399              		@ args = 0, pretend = 0, frame = 8
 400              		@ frame_needed = 1, uses_anonymous_args = 0
 401              		@ link register save eliminated.
 402 0000 80B4     		push	{r7}
 403              	.LCFI9:
 404              		.cfi_def_cfa_offset 4
 405              		.cfi_offset 7, -4
 406 0002 83B0     		sub	sp, sp, #12
 407              	.LCFI10:
 408              		.cfi_def_cfa_offset 16
 409 0004 00AF     		add	r7, sp, #0
 410              	.LCFI11:
 411              		.cfi_def_cfa_register 7
 412 0006 7860     		str	r0, [r7, #4]
 419:Drivers/STM32F4xx_HAL_Driver/Src/stm32f4xx_hal_i2c.c ****   /* NOTE : This function Should not be modified, when the callback is needed,
 420:Drivers/STM32F4xx_HAL_Driver/Src/stm32f4xx_hal_i2c.c ****             the HAL_I2C_MspDeInit could be implemented in the user file
 421:Drivers/STM32F4xx_HAL_Driver/Src/stm32f4xx_hal_i2c.c ****    */
 422:Drivers/STM32F4xx_HAL_Driver/Src/stm32f4xx_hal_i2c.c **** }
 413              		.loc 1 422 0
 414 0008 0C37     		adds	r7, r7, #12
 415 000a BD46     		mov	sp, r7
 416              		@ sp needed
 417 000c 5DF8047B 		ldr	r7, [sp], #4
 418 0010 7047     		bx	lr
 419              		.cfi_endproc
 420              	.LFE128:
 422 0012 00BF     		.section	.text.HAL_I2C_Master_Transmit,"ax",%progbits
 423              		.align	2
 424              		.global	HAL_I2C_Master_Transmit
 425              		.thumb
 426              		.thumb_func
 428              	HAL_I2C_Master_Transmit:
 429              	.LFB129:
 423:Drivers/STM32F4xx_HAL_Driver/Src/stm32f4xx_hal_i2c.c **** 
 424:Drivers/STM32F4xx_HAL_Driver/Src/stm32f4xx_hal_i2c.c **** /**
 425:Drivers/STM32F4xx_HAL_Driver/Src/stm32f4xx_hal_i2c.c ****   * @}
 426:Drivers/STM32F4xx_HAL_Driver/Src/stm32f4xx_hal_i2c.c ****   */
 427:Drivers/STM32F4xx_HAL_Driver/Src/stm32f4xx_hal_i2c.c **** 
 428:Drivers/STM32F4xx_HAL_Driver/Src/stm32f4xx_hal_i2c.c **** /** @defgroup I2C_Exported_Functions_Group2 IO operation functions
 429:Drivers/STM32F4xx_HAL_Driver/Src/stm32f4xx_hal_i2c.c ****  *  @brief   Data transfers functions
 430:Drivers/STM32F4xx_HAL_Driver/Src/stm32f4xx_hal_i2c.c ****  *
 431:Drivers/STM32F4xx_HAL_Driver/Src/stm32f4xx_hal_i2c.c **** @verbatim
 432:Drivers/STM32F4xx_HAL_Driver/Src/stm32f4xx_hal_i2c.c ****  ===============================================================================
 433:Drivers/STM32F4xx_HAL_Driver/Src/stm32f4xx_hal_i2c.c ****                       ##### IO operation functions #####
 434:Drivers/STM32F4xx_HAL_Driver/Src/stm32f4xx_hal_i2c.c ****  ===============================================================================
 435:Drivers/STM32F4xx_HAL_Driver/Src/stm32f4xx_hal_i2c.c ****     [..]
ARM GAS  /tmp/cc5bMm9J.s 			page 16


 436:Drivers/STM32F4xx_HAL_Driver/Src/stm32f4xx_hal_i2c.c ****     This subsection provides a set of functions allowing to manage the I2C data
 437:Drivers/STM32F4xx_HAL_Driver/Src/stm32f4xx_hal_i2c.c ****     transfers.
 438:Drivers/STM32F4xx_HAL_Driver/Src/stm32f4xx_hal_i2c.c **** 
 439:Drivers/STM32F4xx_HAL_Driver/Src/stm32f4xx_hal_i2c.c ****     (#) There are two modes of transfer:
 440:Drivers/STM32F4xx_HAL_Driver/Src/stm32f4xx_hal_i2c.c ****        (++) Blocking mode : The communication is performed in the polling mode.
 441:Drivers/STM32F4xx_HAL_Driver/Src/stm32f4xx_hal_i2c.c ****             The status of all data processing is returned by the same function
 442:Drivers/STM32F4xx_HAL_Driver/Src/stm32f4xx_hal_i2c.c ****             after finishing transfer.
 443:Drivers/STM32F4xx_HAL_Driver/Src/stm32f4xx_hal_i2c.c ****        (++) No-Blocking mode : The communication is performed using Interrupts
 444:Drivers/STM32F4xx_HAL_Driver/Src/stm32f4xx_hal_i2c.c ****             or DMA. These functions return the status of the transfer startup.
 445:Drivers/STM32F4xx_HAL_Driver/Src/stm32f4xx_hal_i2c.c ****             The end of the data processing will be indicated through the
 446:Drivers/STM32F4xx_HAL_Driver/Src/stm32f4xx_hal_i2c.c ****             dedicated I2C IRQ when using Interrupt mode or the DMA IRQ when
 447:Drivers/STM32F4xx_HAL_Driver/Src/stm32f4xx_hal_i2c.c ****             using DMA mode.
 448:Drivers/STM32F4xx_HAL_Driver/Src/stm32f4xx_hal_i2c.c **** 
 449:Drivers/STM32F4xx_HAL_Driver/Src/stm32f4xx_hal_i2c.c ****     (#) Blocking mode functions are :
 450:Drivers/STM32F4xx_HAL_Driver/Src/stm32f4xx_hal_i2c.c ****         (++) HAL_I2C_Master_Transmit()
 451:Drivers/STM32F4xx_HAL_Driver/Src/stm32f4xx_hal_i2c.c ****         (++) HAL_I2C_Master_Receive()
 452:Drivers/STM32F4xx_HAL_Driver/Src/stm32f4xx_hal_i2c.c ****         (++) HAL_I2C_Slave_Transmit()
 453:Drivers/STM32F4xx_HAL_Driver/Src/stm32f4xx_hal_i2c.c ****         (++) HAL_I2C_Slave_Receive()
 454:Drivers/STM32F4xx_HAL_Driver/Src/stm32f4xx_hal_i2c.c ****         (++) HAL_I2C_Mem_Write()
 455:Drivers/STM32F4xx_HAL_Driver/Src/stm32f4xx_hal_i2c.c ****         (++) HAL_I2C_Mem_Read()
 456:Drivers/STM32F4xx_HAL_Driver/Src/stm32f4xx_hal_i2c.c ****         (++) HAL_I2C_IsDeviceReady()
 457:Drivers/STM32F4xx_HAL_Driver/Src/stm32f4xx_hal_i2c.c **** 
 458:Drivers/STM32F4xx_HAL_Driver/Src/stm32f4xx_hal_i2c.c ****     (#) No-Blocking mode functions with Interrupt are :
 459:Drivers/STM32F4xx_HAL_Driver/Src/stm32f4xx_hal_i2c.c ****         (++) HAL_I2C_Master_Transmit_IT()
 460:Drivers/STM32F4xx_HAL_Driver/Src/stm32f4xx_hal_i2c.c ****         (++) HAL_I2C_Master_Receive_IT()
 461:Drivers/STM32F4xx_HAL_Driver/Src/stm32f4xx_hal_i2c.c ****         (++) HAL_I2C_Slave_Transmit_IT()
 462:Drivers/STM32F4xx_HAL_Driver/Src/stm32f4xx_hal_i2c.c ****         (++) HAL_I2C_Slave_Receive_IT()
 463:Drivers/STM32F4xx_HAL_Driver/Src/stm32f4xx_hal_i2c.c ****         (++) HAL_I2C_Mem_Write_IT()
 464:Drivers/STM32F4xx_HAL_Driver/Src/stm32f4xx_hal_i2c.c ****         (++) HAL_I2C_Mem_Read_IT()
 465:Drivers/STM32F4xx_HAL_Driver/Src/stm32f4xx_hal_i2c.c **** 
 466:Drivers/STM32F4xx_HAL_Driver/Src/stm32f4xx_hal_i2c.c ****     (#) No-Blocking mode functions with DMA are :
 467:Drivers/STM32F4xx_HAL_Driver/Src/stm32f4xx_hal_i2c.c ****         (++) HAL_I2C_Master_Transmit_DMA()
 468:Drivers/STM32F4xx_HAL_Driver/Src/stm32f4xx_hal_i2c.c ****         (++) HAL_I2C_Master_Receive_DMA()
 469:Drivers/STM32F4xx_HAL_Driver/Src/stm32f4xx_hal_i2c.c ****         (++) HAL_I2C_Slave_Transmit_DMA()
 470:Drivers/STM32F4xx_HAL_Driver/Src/stm32f4xx_hal_i2c.c ****         (++) HAL_I2C_Slave_Receive_DMA()
 471:Drivers/STM32F4xx_HAL_Driver/Src/stm32f4xx_hal_i2c.c ****         (++) HAL_I2C_Mem_Write_DMA()
 472:Drivers/STM32F4xx_HAL_Driver/Src/stm32f4xx_hal_i2c.c ****         (++) HAL_I2C_Mem_Read_DMA()
 473:Drivers/STM32F4xx_HAL_Driver/Src/stm32f4xx_hal_i2c.c **** 
 474:Drivers/STM32F4xx_HAL_Driver/Src/stm32f4xx_hal_i2c.c ****     (#) A set of Transfer Complete Callbacks are provided in non Blocking mode:
 475:Drivers/STM32F4xx_HAL_Driver/Src/stm32f4xx_hal_i2c.c ****         (++) HAL_I2C_MemTxCpltCallback()
 476:Drivers/STM32F4xx_HAL_Driver/Src/stm32f4xx_hal_i2c.c ****         (++) HAL_I2C_MemRxCpltCallback()
 477:Drivers/STM32F4xx_HAL_Driver/Src/stm32f4xx_hal_i2c.c ****         (++) HAL_I2C_MasterTxCpltCallback()
 478:Drivers/STM32F4xx_HAL_Driver/Src/stm32f4xx_hal_i2c.c ****         (++) HAL_I2C_MasterRxCpltCallback()
 479:Drivers/STM32F4xx_HAL_Driver/Src/stm32f4xx_hal_i2c.c ****         (++) HAL_I2C_SlaveTxCpltCallback()
 480:Drivers/STM32F4xx_HAL_Driver/Src/stm32f4xx_hal_i2c.c ****         (++) HAL_I2C_SlaveRxCpltCallback()
 481:Drivers/STM32F4xx_HAL_Driver/Src/stm32f4xx_hal_i2c.c ****         (++) HAL_I2C_ErrorCallback()
 482:Drivers/STM32F4xx_HAL_Driver/Src/stm32f4xx_hal_i2c.c **** 
 483:Drivers/STM32F4xx_HAL_Driver/Src/stm32f4xx_hal_i2c.c **** @endverbatim
 484:Drivers/STM32F4xx_HAL_Driver/Src/stm32f4xx_hal_i2c.c ****   * @{
 485:Drivers/STM32F4xx_HAL_Driver/Src/stm32f4xx_hal_i2c.c ****   */
 486:Drivers/STM32F4xx_HAL_Driver/Src/stm32f4xx_hal_i2c.c **** 
 487:Drivers/STM32F4xx_HAL_Driver/Src/stm32f4xx_hal_i2c.c **** /**
 488:Drivers/STM32F4xx_HAL_Driver/Src/stm32f4xx_hal_i2c.c ****   * @brief  Transmits in master mode an amount of data in blocking mode.
 489:Drivers/STM32F4xx_HAL_Driver/Src/stm32f4xx_hal_i2c.c ****   * @param  hi2c: pointer to a I2C_HandleTypeDef structure that contains
 490:Drivers/STM32F4xx_HAL_Driver/Src/stm32f4xx_hal_i2c.c ****   *         the configuration information for I2C module
 491:Drivers/STM32F4xx_HAL_Driver/Src/stm32f4xx_hal_i2c.c ****   * @param  DevAddress: Target device address
 492:Drivers/STM32F4xx_HAL_Driver/Src/stm32f4xx_hal_i2c.c ****   * @param  pData: Pointer to data buffer
ARM GAS  /tmp/cc5bMm9J.s 			page 17


 493:Drivers/STM32F4xx_HAL_Driver/Src/stm32f4xx_hal_i2c.c ****   * @param  Size: Amount of data to be sent
 494:Drivers/STM32F4xx_HAL_Driver/Src/stm32f4xx_hal_i2c.c ****   * @param  Timeout: Timeout duration
 495:Drivers/STM32F4xx_HAL_Driver/Src/stm32f4xx_hal_i2c.c ****   * @retval HAL status
 496:Drivers/STM32F4xx_HAL_Driver/Src/stm32f4xx_hal_i2c.c ****   */
 497:Drivers/STM32F4xx_HAL_Driver/Src/stm32f4xx_hal_i2c.c **** HAL_StatusTypeDef HAL_I2C_Master_Transmit(I2C_HandleTypeDef *hi2c, uint16_t DevAddress, uint8_t *pD
 498:Drivers/STM32F4xx_HAL_Driver/Src/stm32f4xx_hal_i2c.c **** {
 430              		.loc 1 498 0
 431              		.cfi_startproc
 432              		@ args = 4, pretend = 0, frame = 24
 433              		@ frame_needed = 1, uses_anonymous_args = 0
 434 0000 80B5     		push	{r7, lr}
 435              	.LCFI12:
 436              		.cfi_def_cfa_offset 8
 437              		.cfi_offset 7, -8
 438              		.cfi_offset 14, -4
 439 0002 86B0     		sub	sp, sp, #24
 440              	.LCFI13:
 441              		.cfi_def_cfa_offset 32
 442 0004 00AF     		add	r7, sp, #0
 443              	.LCFI14:
 444              		.cfi_def_cfa_register 7
 445 0006 F860     		str	r0, [r7, #12]
 446 0008 7A60     		str	r2, [r7, #4]
 447 000a 0A46     		mov	r2, r1	@ movhi
 448 000c 7A81     		strh	r2, [r7, #10]	@ movhi
 449 000e 3B81     		strh	r3, [r7, #8]	@ movhi
 499:Drivers/STM32F4xx_HAL_Driver/Src/stm32f4xx_hal_i2c.c ****   if(hi2c->State == HAL_I2C_STATE_READY)
 450              		.loc 1 499 0
 451 0010 FB68     		ldr	r3, [r7, #12]
 452 0012 93F83530 		ldrb	r3, [r3, #53]
 453 0016 DBB2     		uxtb	r3, r3
 454 0018 012B     		cmp	r3, #1
 455 001a 40F09A80 		bne	.L25
 500:Drivers/STM32F4xx_HAL_Driver/Src/stm32f4xx_hal_i2c.c ****   {
 501:Drivers/STM32F4xx_HAL_Driver/Src/stm32f4xx_hal_i2c.c ****     if((pData == NULL) || (Size == 0))
 456              		.loc 1 501 0
 457 001e 7B68     		ldr	r3, [r7, #4]
 458 0020 002B     		cmp	r3, #0
 459 0022 02D0     		beq	.L26
 460              		.loc 1 501 0 is_stmt 0 discriminator 1
 461 0024 3B89     		ldrh	r3, [r7, #8]
 462 0026 002B     		cmp	r3, #0
 463 0028 01D1     		bne	.L27
 464              	.L26:
 502:Drivers/STM32F4xx_HAL_Driver/Src/stm32f4xx_hal_i2c.c ****     {
 503:Drivers/STM32F4xx_HAL_Driver/Src/stm32f4xx_hal_i2c.c ****       return  HAL_ERROR;
 465              		.loc 1 503 0 is_stmt 1
 466 002a 0123     		movs	r3, #1
 467 002c 92E0     		b	.L28
 468              	.L27:
 504:Drivers/STM32F4xx_HAL_Driver/Src/stm32f4xx_hal_i2c.c ****     }
 505:Drivers/STM32F4xx_HAL_Driver/Src/stm32f4xx_hal_i2c.c **** 
 506:Drivers/STM32F4xx_HAL_Driver/Src/stm32f4xx_hal_i2c.c ****     /* Wait until BUSY flag is reset */
 507:Drivers/STM32F4xx_HAL_Driver/Src/stm32f4xx_hal_i2c.c ****     if(I2C_WaitOnFlagUntilTimeout(hi2c, I2C_FLAG_BUSY, SET, I2C_TIMEOUT_BUSY_FLAG) != HAL_OK)
 469              		.loc 1 507 0
 470 002e F868     		ldr	r0, [r7, #12]
 471 0030 4A49     		ldr	r1, .L37
ARM GAS  /tmp/cc5bMm9J.s 			page 18


 472 0032 0122     		movs	r2, #1
 473 0034 42F21073 		movw	r3, #10000
 474 0038 FFF7FEFF 		bl	I2C_WaitOnFlagUntilTimeout
 475 003c 0346     		mov	r3, r0
 476 003e 002B     		cmp	r3, #0
 477 0040 01D0     		beq	.L29
 508:Drivers/STM32F4xx_HAL_Driver/Src/stm32f4xx_hal_i2c.c ****     {
 509:Drivers/STM32F4xx_HAL_Driver/Src/stm32f4xx_hal_i2c.c ****       return HAL_BUSY;
 478              		.loc 1 509 0
 479 0042 0223     		movs	r3, #2
 480 0044 86E0     		b	.L28
 481              	.L29:
 510:Drivers/STM32F4xx_HAL_Driver/Src/stm32f4xx_hal_i2c.c ****     }
 511:Drivers/STM32F4xx_HAL_Driver/Src/stm32f4xx_hal_i2c.c **** 
 512:Drivers/STM32F4xx_HAL_Driver/Src/stm32f4xx_hal_i2c.c ****     /* Process Locked */
 513:Drivers/STM32F4xx_HAL_Driver/Src/stm32f4xx_hal_i2c.c ****     __HAL_LOCK(hi2c);
 482              		.loc 1 513 0
 483 0046 FB68     		ldr	r3, [r7, #12]
 484 0048 93F83430 		ldrb	r3, [r3, #52]	@ zero_extendqisi2
 485 004c 012B     		cmp	r3, #1
 486 004e 01D1     		bne	.L30
 487              		.loc 1 513 0 is_stmt 0 discriminator 1
 488 0050 0223     		movs	r3, #2
 489 0052 7FE0     		b	.L28
 490              	.L30:
 491              		.loc 1 513 0 discriminator 2
 492 0054 FB68     		ldr	r3, [r7, #12]
 493 0056 0122     		movs	r2, #1
 494 0058 83F83420 		strb	r2, [r3, #52]
 514:Drivers/STM32F4xx_HAL_Driver/Src/stm32f4xx_hal_i2c.c ****     
 515:Drivers/STM32F4xx_HAL_Driver/Src/stm32f4xx_hal_i2c.c ****     /* Disable Pos */
 516:Drivers/STM32F4xx_HAL_Driver/Src/stm32f4xx_hal_i2c.c ****     hi2c->Instance->CR1 &= ~I2C_CR1_POS;
 495              		.loc 1 516 0 is_stmt 1 discriminator 2
 496 005c FB68     		ldr	r3, [r7, #12]
 497 005e 1B68     		ldr	r3, [r3]
 498 0060 FA68     		ldr	r2, [r7, #12]
 499 0062 1268     		ldr	r2, [r2]
 500 0064 1268     		ldr	r2, [r2]
 501 0066 22F40062 		bic	r2, r2, #2048
 502 006a 1A60     		str	r2, [r3]
 517:Drivers/STM32F4xx_HAL_Driver/Src/stm32f4xx_hal_i2c.c **** 
 518:Drivers/STM32F4xx_HAL_Driver/Src/stm32f4xx_hal_i2c.c ****     hi2c->State = HAL_I2C_STATE_BUSY_TX;
 503              		.loc 1 518 0 discriminator 2
 504 006c FB68     		ldr	r3, [r7, #12]
 505 006e 1222     		movs	r2, #18
 506 0070 83F83520 		strb	r2, [r3, #53]
 519:Drivers/STM32F4xx_HAL_Driver/Src/stm32f4xx_hal_i2c.c ****     hi2c->ErrorCode = HAL_I2C_ERROR_NONE;
 507              		.loc 1 519 0 discriminator 2
 508 0074 FB68     		ldr	r3, [r7, #12]
 509 0076 0022     		movs	r2, #0
 510 0078 9A63     		str	r2, [r3, #56]
 520:Drivers/STM32F4xx_HAL_Driver/Src/stm32f4xx_hal_i2c.c **** 
 521:Drivers/STM32F4xx_HAL_Driver/Src/stm32f4xx_hal_i2c.c ****     /* Send Slave Address */
 522:Drivers/STM32F4xx_HAL_Driver/Src/stm32f4xx_hal_i2c.c ****     if(I2C_MasterRequestWrite(hi2c, DevAddress, Timeout) != HAL_OK)
 511              		.loc 1 522 0 discriminator 2
 512 007a 7B89     		ldrh	r3, [r7, #10]
 513 007c F868     		ldr	r0, [r7, #12]
ARM GAS  /tmp/cc5bMm9J.s 			page 19


 514 007e 1946     		mov	r1, r3
 515 0080 3A6A     		ldr	r2, [r7, #32]
 516 0082 FFF7FEFF 		bl	I2C_MasterRequestWrite
 517 0086 0346     		mov	r3, r0
 518 0088 002B     		cmp	r3, #0
 519 008a 0FD0     		beq	.L31
 523:Drivers/STM32F4xx_HAL_Driver/Src/stm32f4xx_hal_i2c.c ****     {
 524:Drivers/STM32F4xx_HAL_Driver/Src/stm32f4xx_hal_i2c.c ****       if(hi2c->ErrorCode == HAL_I2C_ERROR_AF)
 520              		.loc 1 524 0
 521 008c FB68     		ldr	r3, [r7, #12]
 522 008e 9B6B     		ldr	r3, [r3, #56]
 523 0090 042B     		cmp	r3, #4
 524 0092 05D1     		bne	.L32
 525:Drivers/STM32F4xx_HAL_Driver/Src/stm32f4xx_hal_i2c.c ****       {
 526:Drivers/STM32F4xx_HAL_Driver/Src/stm32f4xx_hal_i2c.c ****         /* Process Unlocked */
 527:Drivers/STM32F4xx_HAL_Driver/Src/stm32f4xx_hal_i2c.c ****         __HAL_UNLOCK(hi2c);
 525              		.loc 1 527 0
 526 0094 FB68     		ldr	r3, [r7, #12]
 527 0096 0022     		movs	r2, #0
 528 0098 83F83420 		strb	r2, [r3, #52]
 528:Drivers/STM32F4xx_HAL_Driver/Src/stm32f4xx_hal_i2c.c ****         return HAL_ERROR;
 529              		.loc 1 528 0
 530 009c 0123     		movs	r3, #1
 531 009e 59E0     		b	.L28
 532              	.L32:
 529:Drivers/STM32F4xx_HAL_Driver/Src/stm32f4xx_hal_i2c.c ****       }
 530:Drivers/STM32F4xx_HAL_Driver/Src/stm32f4xx_hal_i2c.c ****       else
 531:Drivers/STM32F4xx_HAL_Driver/Src/stm32f4xx_hal_i2c.c ****       {
 532:Drivers/STM32F4xx_HAL_Driver/Src/stm32f4xx_hal_i2c.c ****         /* Process Unlocked */
 533:Drivers/STM32F4xx_HAL_Driver/Src/stm32f4xx_hal_i2c.c ****         __HAL_UNLOCK(hi2c);
 533              		.loc 1 533 0
 534 00a0 FB68     		ldr	r3, [r7, #12]
 535 00a2 0022     		movs	r2, #0
 536 00a4 83F83420 		strb	r2, [r3, #52]
 534:Drivers/STM32F4xx_HAL_Driver/Src/stm32f4xx_hal_i2c.c ****         return HAL_TIMEOUT;
 537              		.loc 1 534 0
 538 00a8 0323     		movs	r3, #3
 539 00aa 53E0     		b	.L28
 540              	.L31:
 541              	.LBB2:
 535:Drivers/STM32F4xx_HAL_Driver/Src/stm32f4xx_hal_i2c.c ****       }
 536:Drivers/STM32F4xx_HAL_Driver/Src/stm32f4xx_hal_i2c.c ****     }
 537:Drivers/STM32F4xx_HAL_Driver/Src/stm32f4xx_hal_i2c.c **** 
 538:Drivers/STM32F4xx_HAL_Driver/Src/stm32f4xx_hal_i2c.c ****     /* Clear ADDR flag */
 539:Drivers/STM32F4xx_HAL_Driver/Src/stm32f4xx_hal_i2c.c ****     __HAL_I2C_CLEAR_ADDRFLAG(hi2c);
 542              		.loc 1 539 0
 543 00ac FB68     		ldr	r3, [r7, #12]
 544 00ae 1B68     		ldr	r3, [r3]
 545 00b0 5B69     		ldr	r3, [r3, #20]
 546 00b2 7B61     		str	r3, [r7, #20]
 547 00b4 FB68     		ldr	r3, [r7, #12]
 548 00b6 1B68     		ldr	r3, [r3]
 549 00b8 9B69     		ldr	r3, [r3, #24]
 550 00ba 7B61     		str	r3, [r7, #20]
 551 00bc 7B69     		ldr	r3, [r7, #20]
 552              	.LBE2:
 540:Drivers/STM32F4xx_HAL_Driver/Src/stm32f4xx_hal_i2c.c **** 
ARM GAS  /tmp/cc5bMm9J.s 			page 20


 541:Drivers/STM32F4xx_HAL_Driver/Src/stm32f4xx_hal_i2c.c ****     while(Size > 0)
 553              		.loc 1 541 0
 554 00be 28E0     		b	.L33
 555              	.L35:
 542:Drivers/STM32F4xx_HAL_Driver/Src/stm32f4xx_hal_i2c.c ****     {
 543:Drivers/STM32F4xx_HAL_Driver/Src/stm32f4xx_hal_i2c.c ****       /* Wait until TXE flag is set */
 544:Drivers/STM32F4xx_HAL_Driver/Src/stm32f4xx_hal_i2c.c ****       if(I2C_WaitOnFlagUntilTimeout(hi2c, I2C_FLAG_TXE, RESET, Timeout) != HAL_OK)
 556              		.loc 1 544 0
 557 00c0 F868     		ldr	r0, [r7, #12]
 558 00c2 2749     		ldr	r1, .L37+4
 559 00c4 0022     		movs	r2, #0
 560 00c6 3B6A     		ldr	r3, [r7, #32]
 561 00c8 FFF7FEFF 		bl	I2C_WaitOnFlagUntilTimeout
 562 00cc 0346     		mov	r3, r0
 563 00ce 002B     		cmp	r3, #0
 564 00d0 01D0     		beq	.L34
 545:Drivers/STM32F4xx_HAL_Driver/Src/stm32f4xx_hal_i2c.c ****       {
 546:Drivers/STM32F4xx_HAL_Driver/Src/stm32f4xx_hal_i2c.c ****         return HAL_TIMEOUT;
 565              		.loc 1 546 0
 566 00d2 0323     		movs	r3, #3
 567 00d4 3EE0     		b	.L28
 568              	.L34:
 547:Drivers/STM32F4xx_HAL_Driver/Src/stm32f4xx_hal_i2c.c ****       }
 548:Drivers/STM32F4xx_HAL_Driver/Src/stm32f4xx_hal_i2c.c **** 
 549:Drivers/STM32F4xx_HAL_Driver/Src/stm32f4xx_hal_i2c.c ****       /* Write data to DR */
 550:Drivers/STM32F4xx_HAL_Driver/Src/stm32f4xx_hal_i2c.c ****       hi2c->Instance->DR = (*pData++);
 569              		.loc 1 550 0
 570 00d6 FB68     		ldr	r3, [r7, #12]
 571 00d8 1A68     		ldr	r2, [r3]
 572 00da 7B68     		ldr	r3, [r7, #4]
 573 00dc 591C     		adds	r1, r3, #1
 574 00de 7960     		str	r1, [r7, #4]
 575 00e0 1B78     		ldrb	r3, [r3]	@ zero_extendqisi2
 576 00e2 1361     		str	r3, [r2, #16]
 551:Drivers/STM32F4xx_HAL_Driver/Src/stm32f4xx_hal_i2c.c ****       Size--;
 577              		.loc 1 551 0
 578 00e4 3B89     		ldrh	r3, [r7, #8]
 579 00e6 013B     		subs	r3, r3, #1
 580 00e8 3B81     		strh	r3, [r7, #8]	@ movhi
 552:Drivers/STM32F4xx_HAL_Driver/Src/stm32f4xx_hal_i2c.c **** 
 553:Drivers/STM32F4xx_HAL_Driver/Src/stm32f4xx_hal_i2c.c ****       if((__HAL_I2C_GET_FLAG(hi2c, I2C_FLAG_BTF) == SET) && (Size != 0))
 581              		.loc 1 553 0
 582 00ea FB68     		ldr	r3, [r7, #12]
 583 00ec 1B68     		ldr	r3, [r3]
 584 00ee 5B69     		ldr	r3, [r3, #20]
 585 00f0 03F00403 		and	r3, r3, #4
 586 00f4 002B     		cmp	r3, #0
 587 00f6 0CD0     		beq	.L33
 588              		.loc 1 553 0 is_stmt 0 discriminator 1
 589 00f8 3B89     		ldrh	r3, [r7, #8]
 590 00fa 002B     		cmp	r3, #0
 591 00fc 09D0     		beq	.L33
 554:Drivers/STM32F4xx_HAL_Driver/Src/stm32f4xx_hal_i2c.c ****       {
 555:Drivers/STM32F4xx_HAL_Driver/Src/stm32f4xx_hal_i2c.c ****         /* Write data to DR */
 556:Drivers/STM32F4xx_HAL_Driver/Src/stm32f4xx_hal_i2c.c ****         hi2c->Instance->DR = (*pData++);
 592              		.loc 1 556 0 is_stmt 1
 593 00fe FB68     		ldr	r3, [r7, #12]
ARM GAS  /tmp/cc5bMm9J.s 			page 21


 594 0100 1A68     		ldr	r2, [r3]
 595 0102 7B68     		ldr	r3, [r7, #4]
 596 0104 591C     		adds	r1, r3, #1
 597 0106 7960     		str	r1, [r7, #4]
 598 0108 1B78     		ldrb	r3, [r3]	@ zero_extendqisi2
 599 010a 1361     		str	r3, [r2, #16]
 557:Drivers/STM32F4xx_HAL_Driver/Src/stm32f4xx_hal_i2c.c ****         Size--;
 600              		.loc 1 557 0
 601 010c 3B89     		ldrh	r3, [r7, #8]
 602 010e 013B     		subs	r3, r3, #1
 603 0110 3B81     		strh	r3, [r7, #8]	@ movhi
 604              	.L33:
 541:Drivers/STM32F4xx_HAL_Driver/Src/stm32f4xx_hal_i2c.c ****     {
 605              		.loc 1 541 0 discriminator 1
 606 0112 3B89     		ldrh	r3, [r7, #8]
 607 0114 002B     		cmp	r3, #0
 608 0116 D3D1     		bne	.L35
 558:Drivers/STM32F4xx_HAL_Driver/Src/stm32f4xx_hal_i2c.c ****       }
 559:Drivers/STM32F4xx_HAL_Driver/Src/stm32f4xx_hal_i2c.c ****     }
 560:Drivers/STM32F4xx_HAL_Driver/Src/stm32f4xx_hal_i2c.c **** 
 561:Drivers/STM32F4xx_HAL_Driver/Src/stm32f4xx_hal_i2c.c ****     /* Wait until TXE flag is set */
 562:Drivers/STM32F4xx_HAL_Driver/Src/stm32f4xx_hal_i2c.c ****     if(I2C_WaitOnFlagUntilTimeout(hi2c, I2C_FLAG_TXE, RESET, Timeout) != HAL_OK)
 609              		.loc 1 562 0
 610 0118 F868     		ldr	r0, [r7, #12]
 611 011a 1149     		ldr	r1, .L37+4
 612 011c 0022     		movs	r2, #0
 613 011e 3B6A     		ldr	r3, [r7, #32]
 614 0120 FFF7FEFF 		bl	I2C_WaitOnFlagUntilTimeout
 615 0124 0346     		mov	r3, r0
 616 0126 002B     		cmp	r3, #0
 617 0128 01D0     		beq	.L36
 563:Drivers/STM32F4xx_HAL_Driver/Src/stm32f4xx_hal_i2c.c ****     {
 564:Drivers/STM32F4xx_HAL_Driver/Src/stm32f4xx_hal_i2c.c ****       return HAL_TIMEOUT;
 618              		.loc 1 564 0
 619 012a 0323     		movs	r3, #3
 620 012c 12E0     		b	.L28
 621              	.L36:
 565:Drivers/STM32F4xx_HAL_Driver/Src/stm32f4xx_hal_i2c.c ****     }
 566:Drivers/STM32F4xx_HAL_Driver/Src/stm32f4xx_hal_i2c.c **** 
 567:Drivers/STM32F4xx_HAL_Driver/Src/stm32f4xx_hal_i2c.c ****     /* Generate Stop */
 568:Drivers/STM32F4xx_HAL_Driver/Src/stm32f4xx_hal_i2c.c ****     hi2c->Instance->CR1 |= I2C_CR1_STOP;
 622              		.loc 1 568 0
 623 012e FB68     		ldr	r3, [r7, #12]
 624 0130 1B68     		ldr	r3, [r3]
 625 0132 FA68     		ldr	r2, [r7, #12]
 626 0134 1268     		ldr	r2, [r2]
 627 0136 1268     		ldr	r2, [r2]
 628 0138 42F40072 		orr	r2, r2, #512
 629 013c 1A60     		str	r2, [r3]
 569:Drivers/STM32F4xx_HAL_Driver/Src/stm32f4xx_hal_i2c.c **** 
 570:Drivers/STM32F4xx_HAL_Driver/Src/stm32f4xx_hal_i2c.c ****     hi2c->State = HAL_I2C_STATE_READY;
 630              		.loc 1 570 0
 631 013e FB68     		ldr	r3, [r7, #12]
 632 0140 0122     		movs	r2, #1
 633 0142 83F83520 		strb	r2, [r3, #53]
 571:Drivers/STM32F4xx_HAL_Driver/Src/stm32f4xx_hal_i2c.c **** 
 572:Drivers/STM32F4xx_HAL_Driver/Src/stm32f4xx_hal_i2c.c ****     /* Process Unlocked */
ARM GAS  /tmp/cc5bMm9J.s 			page 22


 573:Drivers/STM32F4xx_HAL_Driver/Src/stm32f4xx_hal_i2c.c ****     __HAL_UNLOCK(hi2c);
 634              		.loc 1 573 0
 635 0146 FB68     		ldr	r3, [r7, #12]
 636 0148 0022     		movs	r2, #0
 637 014a 83F83420 		strb	r2, [r3, #52]
 574:Drivers/STM32F4xx_HAL_Driver/Src/stm32f4xx_hal_i2c.c **** 
 575:Drivers/STM32F4xx_HAL_Driver/Src/stm32f4xx_hal_i2c.c ****     return HAL_OK;
 638              		.loc 1 575 0
 639 014e 0023     		movs	r3, #0
 640 0150 00E0     		b	.L28
 641              	.L25:
 576:Drivers/STM32F4xx_HAL_Driver/Src/stm32f4xx_hal_i2c.c ****   }
 577:Drivers/STM32F4xx_HAL_Driver/Src/stm32f4xx_hal_i2c.c ****   else
 578:Drivers/STM32F4xx_HAL_Driver/Src/stm32f4xx_hal_i2c.c ****   {
 579:Drivers/STM32F4xx_HAL_Driver/Src/stm32f4xx_hal_i2c.c ****     return HAL_BUSY;
 642              		.loc 1 579 0
 643 0152 0223     		movs	r3, #2
 644              	.L28:
 580:Drivers/STM32F4xx_HAL_Driver/Src/stm32f4xx_hal_i2c.c ****   }
 581:Drivers/STM32F4xx_HAL_Driver/Src/stm32f4xx_hal_i2c.c **** }
 645              		.loc 1 581 0
 646 0154 1846     		mov	r0, r3
 647 0156 1837     		adds	r7, r7, #24
 648 0158 BD46     		mov	sp, r7
 649              		@ sp needed
 650 015a 80BD     		pop	{r7, pc}
 651              	.L38:
 652              		.align	2
 653              	.L37:
 654 015c 02001000 		.word	1048578
 655 0160 80000100 		.word	65664
 656              		.cfi_endproc
 657              	.LFE129:
 659              		.section	.text.HAL_I2C_Master_Receive,"ax",%progbits
 660              		.align	2
 661              		.global	HAL_I2C_Master_Receive
 662              		.thumb
 663              		.thumb_func
 665              	HAL_I2C_Master_Receive:
 666              	.LFB130:
 582:Drivers/STM32F4xx_HAL_Driver/Src/stm32f4xx_hal_i2c.c **** 
 583:Drivers/STM32F4xx_HAL_Driver/Src/stm32f4xx_hal_i2c.c **** /**
 584:Drivers/STM32F4xx_HAL_Driver/Src/stm32f4xx_hal_i2c.c ****   * @brief  Receives in master mode an amount of data in blocking mode.
 585:Drivers/STM32F4xx_HAL_Driver/Src/stm32f4xx_hal_i2c.c ****   * @param  hi2c: pointer to a I2C_HandleTypeDef structure that contains
 586:Drivers/STM32F4xx_HAL_Driver/Src/stm32f4xx_hal_i2c.c ****   *         the configuration information for I2C module
 587:Drivers/STM32F4xx_HAL_Driver/Src/stm32f4xx_hal_i2c.c ****   * @param  DevAddress: Target device address
 588:Drivers/STM32F4xx_HAL_Driver/Src/stm32f4xx_hal_i2c.c ****   * @param  pData: Pointer to data buffer
 589:Drivers/STM32F4xx_HAL_Driver/Src/stm32f4xx_hal_i2c.c ****   * @param  Size: Amount of data to be sent
 590:Drivers/STM32F4xx_HAL_Driver/Src/stm32f4xx_hal_i2c.c ****   * @param  Timeout: Timeout duration
 591:Drivers/STM32F4xx_HAL_Driver/Src/stm32f4xx_hal_i2c.c ****   * @retval HAL status
 592:Drivers/STM32F4xx_HAL_Driver/Src/stm32f4xx_hal_i2c.c ****   */
 593:Drivers/STM32F4xx_HAL_Driver/Src/stm32f4xx_hal_i2c.c **** HAL_StatusTypeDef HAL_I2C_Master_Receive(I2C_HandleTypeDef *hi2c, uint16_t DevAddress, uint8_t *pDa
 594:Drivers/STM32F4xx_HAL_Driver/Src/stm32f4xx_hal_i2c.c **** {
 667              		.loc 1 594 0
 668              		.cfi_startproc
 669              		@ args = 4, pretend = 0, frame = 32
 670              		@ frame_needed = 1, uses_anonymous_args = 0
ARM GAS  /tmp/cc5bMm9J.s 			page 23


 671 0000 80B5     		push	{r7, lr}
 672              	.LCFI15:
 673              		.cfi_def_cfa_offset 8
 674              		.cfi_offset 7, -8
 675              		.cfi_offset 14, -4
 676 0002 88B0     		sub	sp, sp, #32
 677              	.LCFI16:
 678              		.cfi_def_cfa_offset 40
 679 0004 00AF     		add	r7, sp, #0
 680              	.LCFI17:
 681              		.cfi_def_cfa_register 7
 682 0006 F860     		str	r0, [r7, #12]
 683 0008 7A60     		str	r2, [r7, #4]
 684 000a 0A46     		mov	r2, r1	@ movhi
 685 000c 7A81     		strh	r2, [r7, #10]	@ movhi
 686 000e 3B81     		strh	r3, [r7, #8]	@ movhi
 595:Drivers/STM32F4xx_HAL_Driver/Src/stm32f4xx_hal_i2c.c ****   if(hi2c->State == HAL_I2C_STATE_READY)
 687              		.loc 1 595 0
 688 0010 FB68     		ldr	r3, [r7, #12]
 689 0012 93F83530 		ldrb	r3, [r3, #53]
 690 0016 DBB2     		uxtb	r3, r3
 691 0018 012B     		cmp	r3, #1
 692 001a 40F06481 		bne	.L40
 596:Drivers/STM32F4xx_HAL_Driver/Src/stm32f4xx_hal_i2c.c ****   {
 597:Drivers/STM32F4xx_HAL_Driver/Src/stm32f4xx_hal_i2c.c ****     if((pData == NULL) || (Size == 0))
 693              		.loc 1 597 0
 694 001e 7B68     		ldr	r3, [r7, #4]
 695 0020 002B     		cmp	r3, #0
 696 0022 02D0     		beq	.L41
 697              		.loc 1 597 0 is_stmt 0 discriminator 1
 698 0024 3B89     		ldrh	r3, [r7, #8]
 699 0026 002B     		cmp	r3, #0
 700 0028 01D1     		bne	.L42
 701              	.L41:
 598:Drivers/STM32F4xx_HAL_Driver/Src/stm32f4xx_hal_i2c.c ****     {
 599:Drivers/STM32F4xx_HAL_Driver/Src/stm32f4xx_hal_i2c.c ****       return  HAL_ERROR;
 702              		.loc 1 599 0 is_stmt 1
 703 002a 0123     		movs	r3, #1
 704 002c 5CE1     		b	.L43
 705              	.L42:
 600:Drivers/STM32F4xx_HAL_Driver/Src/stm32f4xx_hal_i2c.c ****     }
 601:Drivers/STM32F4xx_HAL_Driver/Src/stm32f4xx_hal_i2c.c **** 
 602:Drivers/STM32F4xx_HAL_Driver/Src/stm32f4xx_hal_i2c.c ****     /* Wait until BUSY flag is reset */
 603:Drivers/STM32F4xx_HAL_Driver/Src/stm32f4xx_hal_i2c.c ****     if(I2C_WaitOnFlagUntilTimeout(hi2c, I2C_FLAG_BUSY, SET, I2C_TIMEOUT_BUSY_FLAG) != HAL_OK)
 706              		.loc 1 603 0
 707 002e F868     		ldr	r0, [r7, #12]
 708 0030 9449     		ldr	r1, .L62
 709 0032 0122     		movs	r2, #1
 710 0034 42F21073 		movw	r3, #10000
 711 0038 FFF7FEFF 		bl	I2C_WaitOnFlagUntilTimeout
 712 003c 0346     		mov	r3, r0
 713 003e 002B     		cmp	r3, #0
 714 0040 01D0     		beq	.L44
 604:Drivers/STM32F4xx_HAL_Driver/Src/stm32f4xx_hal_i2c.c ****     {
 605:Drivers/STM32F4xx_HAL_Driver/Src/stm32f4xx_hal_i2c.c ****       return HAL_BUSY;
 715              		.loc 1 605 0
 716 0042 0223     		movs	r3, #2
ARM GAS  /tmp/cc5bMm9J.s 			page 24


 717 0044 50E1     		b	.L43
 718              	.L44:
 606:Drivers/STM32F4xx_HAL_Driver/Src/stm32f4xx_hal_i2c.c ****     }
 607:Drivers/STM32F4xx_HAL_Driver/Src/stm32f4xx_hal_i2c.c ****     
 608:Drivers/STM32F4xx_HAL_Driver/Src/stm32f4xx_hal_i2c.c ****     /* Process Locked */
 609:Drivers/STM32F4xx_HAL_Driver/Src/stm32f4xx_hal_i2c.c ****     __HAL_LOCK(hi2c);
 719              		.loc 1 609 0
 720 0046 FB68     		ldr	r3, [r7, #12]
 721 0048 93F83430 		ldrb	r3, [r3, #52]	@ zero_extendqisi2
 722 004c 012B     		cmp	r3, #1
 723 004e 01D1     		bne	.L45
 724              		.loc 1 609 0 is_stmt 0 discriminator 1
 725 0050 0223     		movs	r3, #2
 726 0052 49E1     		b	.L43
 727              	.L45:
 728              		.loc 1 609 0 discriminator 2
 729 0054 FB68     		ldr	r3, [r7, #12]
 730 0056 0122     		movs	r2, #1
 731 0058 83F83420 		strb	r2, [r3, #52]
 610:Drivers/STM32F4xx_HAL_Driver/Src/stm32f4xx_hal_i2c.c ****     
 611:Drivers/STM32F4xx_HAL_Driver/Src/stm32f4xx_hal_i2c.c ****     /* Disable Pos */
 612:Drivers/STM32F4xx_HAL_Driver/Src/stm32f4xx_hal_i2c.c ****     hi2c->Instance->CR1 &= ~I2C_CR1_POS;
 732              		.loc 1 612 0 is_stmt 1 discriminator 2
 733 005c FB68     		ldr	r3, [r7, #12]
 734 005e 1B68     		ldr	r3, [r3]
 735 0060 FA68     		ldr	r2, [r7, #12]
 736 0062 1268     		ldr	r2, [r2]
 737 0064 1268     		ldr	r2, [r2]
 738 0066 22F40062 		bic	r2, r2, #2048
 739 006a 1A60     		str	r2, [r3]
 613:Drivers/STM32F4xx_HAL_Driver/Src/stm32f4xx_hal_i2c.c **** 
 614:Drivers/STM32F4xx_HAL_Driver/Src/stm32f4xx_hal_i2c.c ****     hi2c->State = HAL_I2C_STATE_BUSY_RX;
 740              		.loc 1 614 0 discriminator 2
 741 006c FB68     		ldr	r3, [r7, #12]
 742 006e 2222     		movs	r2, #34
 743 0070 83F83520 		strb	r2, [r3, #53]
 615:Drivers/STM32F4xx_HAL_Driver/Src/stm32f4xx_hal_i2c.c ****     hi2c->ErrorCode = HAL_I2C_ERROR_NONE;
 744              		.loc 1 615 0 discriminator 2
 745 0074 FB68     		ldr	r3, [r7, #12]
 746 0076 0022     		movs	r2, #0
 747 0078 9A63     		str	r2, [r3, #56]
 616:Drivers/STM32F4xx_HAL_Driver/Src/stm32f4xx_hal_i2c.c **** 
 617:Drivers/STM32F4xx_HAL_Driver/Src/stm32f4xx_hal_i2c.c ****     /* Send Slave Address */
 618:Drivers/STM32F4xx_HAL_Driver/Src/stm32f4xx_hal_i2c.c ****     if(I2C_MasterRequestRead(hi2c, DevAddress, Timeout) != HAL_OK)
 748              		.loc 1 618 0 discriminator 2
 749 007a 7B89     		ldrh	r3, [r7, #10]
 750 007c F868     		ldr	r0, [r7, #12]
 751 007e 1946     		mov	r1, r3
 752 0080 BA6A     		ldr	r2, [r7, #40]
 753 0082 FFF7FEFF 		bl	I2C_MasterRequestRead
 754 0086 0346     		mov	r3, r0
 755 0088 002B     		cmp	r3, #0
 756 008a 0FD0     		beq	.L46
 619:Drivers/STM32F4xx_HAL_Driver/Src/stm32f4xx_hal_i2c.c ****     {
 620:Drivers/STM32F4xx_HAL_Driver/Src/stm32f4xx_hal_i2c.c ****       if(hi2c->ErrorCode == HAL_I2C_ERROR_AF)
 757              		.loc 1 620 0
 758 008c FB68     		ldr	r3, [r7, #12]
ARM GAS  /tmp/cc5bMm9J.s 			page 25


 759 008e 9B6B     		ldr	r3, [r3, #56]
 760 0090 042B     		cmp	r3, #4
 761 0092 05D1     		bne	.L47
 621:Drivers/STM32F4xx_HAL_Driver/Src/stm32f4xx_hal_i2c.c ****       {
 622:Drivers/STM32F4xx_HAL_Driver/Src/stm32f4xx_hal_i2c.c ****         /* Process Unlocked */
 623:Drivers/STM32F4xx_HAL_Driver/Src/stm32f4xx_hal_i2c.c ****         __HAL_UNLOCK(hi2c);
 762              		.loc 1 623 0
 763 0094 FB68     		ldr	r3, [r7, #12]
 764 0096 0022     		movs	r2, #0
 765 0098 83F83420 		strb	r2, [r3, #52]
 624:Drivers/STM32F4xx_HAL_Driver/Src/stm32f4xx_hal_i2c.c ****         return HAL_ERROR;
 766              		.loc 1 624 0
 767 009c 0123     		movs	r3, #1
 768 009e 23E1     		b	.L43
 769              	.L47:
 625:Drivers/STM32F4xx_HAL_Driver/Src/stm32f4xx_hal_i2c.c ****       }
 626:Drivers/STM32F4xx_HAL_Driver/Src/stm32f4xx_hal_i2c.c ****       else
 627:Drivers/STM32F4xx_HAL_Driver/Src/stm32f4xx_hal_i2c.c ****       {
 628:Drivers/STM32F4xx_HAL_Driver/Src/stm32f4xx_hal_i2c.c ****         /* Process Unlocked */
 629:Drivers/STM32F4xx_HAL_Driver/Src/stm32f4xx_hal_i2c.c ****         __HAL_UNLOCK(hi2c);
 770              		.loc 1 629 0
 771 00a0 FB68     		ldr	r3, [r7, #12]
 772 00a2 0022     		movs	r2, #0
 773 00a4 83F83420 		strb	r2, [r3, #52]
 630:Drivers/STM32F4xx_HAL_Driver/Src/stm32f4xx_hal_i2c.c ****         return HAL_TIMEOUT;
 774              		.loc 1 630 0
 775 00a8 0323     		movs	r3, #3
 776 00aa 1DE1     		b	.L43
 777              	.L46:
 631:Drivers/STM32F4xx_HAL_Driver/Src/stm32f4xx_hal_i2c.c ****       }
 632:Drivers/STM32F4xx_HAL_Driver/Src/stm32f4xx_hal_i2c.c ****     }
 633:Drivers/STM32F4xx_HAL_Driver/Src/stm32f4xx_hal_i2c.c **** 
 634:Drivers/STM32F4xx_HAL_Driver/Src/stm32f4xx_hal_i2c.c ****     if(Size == 1)
 778              		.loc 1 634 0
 779 00ac 3B89     		ldrh	r3, [r7, #8]
 780 00ae 012B     		cmp	r3, #1
 781 00b0 19D1     		bne	.L48
 635:Drivers/STM32F4xx_HAL_Driver/Src/stm32f4xx_hal_i2c.c ****     {
 636:Drivers/STM32F4xx_HAL_Driver/Src/stm32f4xx_hal_i2c.c ****       /* Disable Acknowledge */
 637:Drivers/STM32F4xx_HAL_Driver/Src/stm32f4xx_hal_i2c.c ****       hi2c->Instance->CR1 &= ~I2C_CR1_ACK;
 782              		.loc 1 637 0
 783 00b2 FB68     		ldr	r3, [r7, #12]
 784 00b4 1B68     		ldr	r3, [r3]
 785 00b6 FA68     		ldr	r2, [r7, #12]
 786 00b8 1268     		ldr	r2, [r2]
 787 00ba 1268     		ldr	r2, [r2]
 788 00bc 22F48062 		bic	r2, r2, #1024
 789 00c0 1A60     		str	r2, [r3]
 790              	.LBB3:
 638:Drivers/STM32F4xx_HAL_Driver/Src/stm32f4xx_hal_i2c.c **** 
 639:Drivers/STM32F4xx_HAL_Driver/Src/stm32f4xx_hal_i2c.c ****       /* Clear ADDR flag */
 640:Drivers/STM32F4xx_HAL_Driver/Src/stm32f4xx_hal_i2c.c ****       __HAL_I2C_CLEAR_ADDRFLAG(hi2c);
 791              		.loc 1 640 0
 792 00c2 FB68     		ldr	r3, [r7, #12]
 793 00c4 1B68     		ldr	r3, [r3]
 794 00c6 5B69     		ldr	r3, [r3, #20]
 795 00c8 FB61     		str	r3, [r7, #28]
ARM GAS  /tmp/cc5bMm9J.s 			page 26


 796 00ca FB68     		ldr	r3, [r7, #12]
 797 00cc 1B68     		ldr	r3, [r3]
 798 00ce 9B69     		ldr	r3, [r3, #24]
 799 00d0 FB61     		str	r3, [r7, #28]
 800 00d2 FB69     		ldr	r3, [r7, #28]
 801              	.LBE3:
 641:Drivers/STM32F4xx_HAL_Driver/Src/stm32f4xx_hal_i2c.c **** 
 642:Drivers/STM32F4xx_HAL_Driver/Src/stm32f4xx_hal_i2c.c ****       /* Generate Stop */
 643:Drivers/STM32F4xx_HAL_Driver/Src/stm32f4xx_hal_i2c.c ****       hi2c->Instance->CR1 |= I2C_CR1_STOP;
 802              		.loc 1 643 0
 803 00d4 FB68     		ldr	r3, [r7, #12]
 804 00d6 1B68     		ldr	r3, [r3]
 805 00d8 FA68     		ldr	r2, [r7, #12]
 806 00da 1268     		ldr	r2, [r2]
 807 00dc 1268     		ldr	r2, [r2]
 808 00de 42F40072 		orr	r2, r2, #512
 809 00e2 1A60     		str	r2, [r3]
 810 00e4 2EE0     		b	.L49
 811              	.L48:
 644:Drivers/STM32F4xx_HAL_Driver/Src/stm32f4xx_hal_i2c.c ****     }
 645:Drivers/STM32F4xx_HAL_Driver/Src/stm32f4xx_hal_i2c.c ****     else if(Size == 2)
 812              		.loc 1 645 0
 813 00e6 3B89     		ldrh	r3, [r7, #8]
 814 00e8 022B     		cmp	r3, #2
 815 00ea 19D1     		bne	.L50
 646:Drivers/STM32F4xx_HAL_Driver/Src/stm32f4xx_hal_i2c.c ****     {
 647:Drivers/STM32F4xx_HAL_Driver/Src/stm32f4xx_hal_i2c.c ****       /* Disable Acknowledge */
 648:Drivers/STM32F4xx_HAL_Driver/Src/stm32f4xx_hal_i2c.c ****       hi2c->Instance->CR1 &= ~I2C_CR1_ACK;
 816              		.loc 1 648 0
 817 00ec FB68     		ldr	r3, [r7, #12]
 818 00ee 1B68     		ldr	r3, [r3]
 819 00f0 FA68     		ldr	r2, [r7, #12]
 820 00f2 1268     		ldr	r2, [r2]
 821 00f4 1268     		ldr	r2, [r2]
 822 00f6 22F48062 		bic	r2, r2, #1024
 823 00fa 1A60     		str	r2, [r3]
 649:Drivers/STM32F4xx_HAL_Driver/Src/stm32f4xx_hal_i2c.c **** 
 650:Drivers/STM32F4xx_HAL_Driver/Src/stm32f4xx_hal_i2c.c ****       /* Enable Pos */
 651:Drivers/STM32F4xx_HAL_Driver/Src/stm32f4xx_hal_i2c.c ****       hi2c->Instance->CR1 |= I2C_CR1_POS;
 824              		.loc 1 651 0
 825 00fc FB68     		ldr	r3, [r7, #12]
 826 00fe 1B68     		ldr	r3, [r3]
 827 0100 FA68     		ldr	r2, [r7, #12]
 828 0102 1268     		ldr	r2, [r2]
 829 0104 1268     		ldr	r2, [r2]
 830 0106 42F40062 		orr	r2, r2, #2048
 831 010a 1A60     		str	r2, [r3]
 832              	.LBB4:
 652:Drivers/STM32F4xx_HAL_Driver/Src/stm32f4xx_hal_i2c.c **** 
 653:Drivers/STM32F4xx_HAL_Driver/Src/stm32f4xx_hal_i2c.c ****       /* Clear ADDR flag */
 654:Drivers/STM32F4xx_HAL_Driver/Src/stm32f4xx_hal_i2c.c ****       __HAL_I2C_CLEAR_ADDRFLAG(hi2c);
 833              		.loc 1 654 0
 834 010c FB68     		ldr	r3, [r7, #12]
 835 010e 1B68     		ldr	r3, [r3]
 836 0110 5B69     		ldr	r3, [r3, #20]
 837 0112 BB61     		str	r3, [r7, #24]
 838 0114 FB68     		ldr	r3, [r7, #12]
ARM GAS  /tmp/cc5bMm9J.s 			page 27


 839 0116 1B68     		ldr	r3, [r3]
 840 0118 9B69     		ldr	r3, [r3, #24]
 841 011a BB61     		str	r3, [r7, #24]
 842 011c BB69     		ldr	r3, [r7, #24]
 843              	.LBE4:
 844 011e 11E0     		b	.L49
 845              	.L50:
 655:Drivers/STM32F4xx_HAL_Driver/Src/stm32f4xx_hal_i2c.c ****     }
 656:Drivers/STM32F4xx_HAL_Driver/Src/stm32f4xx_hal_i2c.c ****     else
 657:Drivers/STM32F4xx_HAL_Driver/Src/stm32f4xx_hal_i2c.c ****     {
 658:Drivers/STM32F4xx_HAL_Driver/Src/stm32f4xx_hal_i2c.c ****       /* Enable Acknowledge */
 659:Drivers/STM32F4xx_HAL_Driver/Src/stm32f4xx_hal_i2c.c ****       hi2c->Instance->CR1 |= I2C_CR1_ACK;
 846              		.loc 1 659 0
 847 0120 FB68     		ldr	r3, [r7, #12]
 848 0122 1B68     		ldr	r3, [r3]
 849 0124 FA68     		ldr	r2, [r7, #12]
 850 0126 1268     		ldr	r2, [r2]
 851 0128 1268     		ldr	r2, [r2]
 852 012a 42F48062 		orr	r2, r2, #1024
 853 012e 1A60     		str	r2, [r3]
 854              	.LBB5:
 660:Drivers/STM32F4xx_HAL_Driver/Src/stm32f4xx_hal_i2c.c **** 
 661:Drivers/STM32F4xx_HAL_Driver/Src/stm32f4xx_hal_i2c.c ****       /* Clear ADDR flag */
 662:Drivers/STM32F4xx_HAL_Driver/Src/stm32f4xx_hal_i2c.c ****       __HAL_I2C_CLEAR_ADDRFLAG(hi2c);
 855              		.loc 1 662 0
 856 0130 FB68     		ldr	r3, [r7, #12]
 857 0132 1B68     		ldr	r3, [r3]
 858 0134 5B69     		ldr	r3, [r3, #20]
 859 0136 7B61     		str	r3, [r7, #20]
 860 0138 FB68     		ldr	r3, [r7, #12]
 861 013a 1B68     		ldr	r3, [r3]
 862 013c 9B69     		ldr	r3, [r3, #24]
 863 013e 7B61     		str	r3, [r7, #20]
 864 0140 7B69     		ldr	r3, [r7, #20]
 865              	.LBE5:
 663:Drivers/STM32F4xx_HAL_Driver/Src/stm32f4xx_hal_i2c.c ****     }
 664:Drivers/STM32F4xx_HAL_Driver/Src/stm32f4xx_hal_i2c.c **** 
 665:Drivers/STM32F4xx_HAL_Driver/Src/stm32f4xx_hal_i2c.c ****     while(Size > 0)
 866              		.loc 1 665 0
 867 0142 C2E0     		b	.L51
 868              	.L49:
 869 0144 C1E0     		b	.L51
 870              	.L61:
 666:Drivers/STM32F4xx_HAL_Driver/Src/stm32f4xx_hal_i2c.c ****     {
 667:Drivers/STM32F4xx_HAL_Driver/Src/stm32f4xx_hal_i2c.c ****       if(Size <= 3)
 871              		.loc 1 667 0
 872 0146 3B89     		ldrh	r3, [r7, #8]
 873 0148 032B     		cmp	r3, #3
 874 014a 00F28F80 		bhi	.L52
 668:Drivers/STM32F4xx_HAL_Driver/Src/stm32f4xx_hal_i2c.c ****       {
 669:Drivers/STM32F4xx_HAL_Driver/Src/stm32f4xx_hal_i2c.c ****         /* One byte */
 670:Drivers/STM32F4xx_HAL_Driver/Src/stm32f4xx_hal_i2c.c ****         if(Size == 1)
 875              		.loc 1 670 0
 876 014e 3B89     		ldrh	r3, [r7, #8]
 877 0150 012B     		cmp	r3, #1
 878 0152 16D1     		bne	.L53
 671:Drivers/STM32F4xx_HAL_Driver/Src/stm32f4xx_hal_i2c.c ****         {
ARM GAS  /tmp/cc5bMm9J.s 			page 28


 672:Drivers/STM32F4xx_HAL_Driver/Src/stm32f4xx_hal_i2c.c ****           /* Wait until RXNE flag is set */
 673:Drivers/STM32F4xx_HAL_Driver/Src/stm32f4xx_hal_i2c.c ****           if(I2C_WaitOnFlagUntilTimeout(hi2c, I2C_FLAG_RXNE, RESET, Timeout) != HAL_OK)
 879              		.loc 1 673 0
 880 0154 F868     		ldr	r0, [r7, #12]
 881 0156 4C49     		ldr	r1, .L62+4
 882 0158 0022     		movs	r2, #0
 883 015a BB6A     		ldr	r3, [r7, #40]
 884 015c FFF7FEFF 		bl	I2C_WaitOnFlagUntilTimeout
 885 0160 0346     		mov	r3, r0
 886 0162 002B     		cmp	r3, #0
 887 0164 01D0     		beq	.L54
 674:Drivers/STM32F4xx_HAL_Driver/Src/stm32f4xx_hal_i2c.c ****           {
 675:Drivers/STM32F4xx_HAL_Driver/Src/stm32f4xx_hal_i2c.c ****             return HAL_TIMEOUT;
 888              		.loc 1 675 0
 889 0166 0323     		movs	r3, #3
 890 0168 BEE0     		b	.L43
 891              	.L54:
 676:Drivers/STM32F4xx_HAL_Driver/Src/stm32f4xx_hal_i2c.c ****           }
 677:Drivers/STM32F4xx_HAL_Driver/Src/stm32f4xx_hal_i2c.c **** 
 678:Drivers/STM32F4xx_HAL_Driver/Src/stm32f4xx_hal_i2c.c ****           /* Read data from DR */
 679:Drivers/STM32F4xx_HAL_Driver/Src/stm32f4xx_hal_i2c.c ****           (*pData++) = hi2c->Instance->DR;
 892              		.loc 1 679 0
 893 016a 7B68     		ldr	r3, [r7, #4]
 894 016c 5A1C     		adds	r2, r3, #1
 895 016e 7A60     		str	r2, [r7, #4]
 896 0170 FA68     		ldr	r2, [r7, #12]
 897 0172 1268     		ldr	r2, [r2]
 898 0174 1269     		ldr	r2, [r2, #16]
 899 0176 D2B2     		uxtb	r2, r2
 900 0178 1A70     		strb	r2, [r3]
 680:Drivers/STM32F4xx_HAL_Driver/Src/stm32f4xx_hal_i2c.c ****           Size--;
 901              		.loc 1 680 0
 902 017a 3B89     		ldrh	r3, [r7, #8]
 903 017c 013B     		subs	r3, r3, #1
 904 017e 3B81     		strh	r3, [r7, #8]	@ movhi
 905 0180 A3E0     		b	.L51
 906              	.L53:
 681:Drivers/STM32F4xx_HAL_Driver/Src/stm32f4xx_hal_i2c.c ****         }
 682:Drivers/STM32F4xx_HAL_Driver/Src/stm32f4xx_hal_i2c.c ****         /* Two bytes */
 683:Drivers/STM32F4xx_HAL_Driver/Src/stm32f4xx_hal_i2c.c ****         else if(Size == 2)
 907              		.loc 1 683 0
 908 0182 3B89     		ldrh	r3, [r7, #8]
 909 0184 022B     		cmp	r3, #2
 910 0186 29D1     		bne	.L56
 684:Drivers/STM32F4xx_HAL_Driver/Src/stm32f4xx_hal_i2c.c ****         {
 685:Drivers/STM32F4xx_HAL_Driver/Src/stm32f4xx_hal_i2c.c ****           /* Wait until BTF flag is set */
 686:Drivers/STM32F4xx_HAL_Driver/Src/stm32f4xx_hal_i2c.c ****           if(I2C_WaitOnFlagUntilTimeout(hi2c, I2C_FLAG_BTF, RESET, Timeout) != HAL_OK)
 911              		.loc 1 686 0
 912 0188 F868     		ldr	r0, [r7, #12]
 913 018a 4049     		ldr	r1, .L62+8
 914 018c 0022     		movs	r2, #0
 915 018e BB6A     		ldr	r3, [r7, #40]
 916 0190 FFF7FEFF 		bl	I2C_WaitOnFlagUntilTimeout
 917 0194 0346     		mov	r3, r0
 918 0196 002B     		cmp	r3, #0
 919 0198 01D0     		beq	.L57
 687:Drivers/STM32F4xx_HAL_Driver/Src/stm32f4xx_hal_i2c.c ****           {
ARM GAS  /tmp/cc5bMm9J.s 			page 29


 688:Drivers/STM32F4xx_HAL_Driver/Src/stm32f4xx_hal_i2c.c ****             return HAL_TIMEOUT;
 920              		.loc 1 688 0
 921 019a 0323     		movs	r3, #3
 922 019c A4E0     		b	.L43
 923              	.L57:
 689:Drivers/STM32F4xx_HAL_Driver/Src/stm32f4xx_hal_i2c.c ****           }
 690:Drivers/STM32F4xx_HAL_Driver/Src/stm32f4xx_hal_i2c.c **** 
 691:Drivers/STM32F4xx_HAL_Driver/Src/stm32f4xx_hal_i2c.c ****           /* Generate Stop */
 692:Drivers/STM32F4xx_HAL_Driver/Src/stm32f4xx_hal_i2c.c ****           hi2c->Instance->CR1 |= I2C_CR1_STOP;
 924              		.loc 1 692 0
 925 019e FB68     		ldr	r3, [r7, #12]
 926 01a0 1B68     		ldr	r3, [r3]
 927 01a2 FA68     		ldr	r2, [r7, #12]
 928 01a4 1268     		ldr	r2, [r2]
 929 01a6 1268     		ldr	r2, [r2]
 930 01a8 42F40072 		orr	r2, r2, #512
 931 01ac 1A60     		str	r2, [r3]
 693:Drivers/STM32F4xx_HAL_Driver/Src/stm32f4xx_hal_i2c.c **** 
 694:Drivers/STM32F4xx_HAL_Driver/Src/stm32f4xx_hal_i2c.c ****           /* Read data from DR */
 695:Drivers/STM32F4xx_HAL_Driver/Src/stm32f4xx_hal_i2c.c ****           (*pData++) = hi2c->Instance->DR;
 932              		.loc 1 695 0
 933 01ae 7B68     		ldr	r3, [r7, #4]
 934 01b0 5A1C     		adds	r2, r3, #1
 935 01b2 7A60     		str	r2, [r7, #4]
 936 01b4 FA68     		ldr	r2, [r7, #12]
 937 01b6 1268     		ldr	r2, [r2]
 938 01b8 1269     		ldr	r2, [r2, #16]
 939 01ba D2B2     		uxtb	r2, r2
 940 01bc 1A70     		strb	r2, [r3]
 696:Drivers/STM32F4xx_HAL_Driver/Src/stm32f4xx_hal_i2c.c ****           Size--;
 941              		.loc 1 696 0
 942 01be 3B89     		ldrh	r3, [r7, #8]
 943 01c0 013B     		subs	r3, r3, #1
 944 01c2 3B81     		strh	r3, [r7, #8]	@ movhi
 697:Drivers/STM32F4xx_HAL_Driver/Src/stm32f4xx_hal_i2c.c **** 
 698:Drivers/STM32F4xx_HAL_Driver/Src/stm32f4xx_hal_i2c.c ****           /* Read data from DR */
 699:Drivers/STM32F4xx_HAL_Driver/Src/stm32f4xx_hal_i2c.c ****           (*pData++) = hi2c->Instance->DR;
 945              		.loc 1 699 0
 946 01c4 7B68     		ldr	r3, [r7, #4]
 947 01c6 5A1C     		adds	r2, r3, #1
 948 01c8 7A60     		str	r2, [r7, #4]
 949 01ca FA68     		ldr	r2, [r7, #12]
 950 01cc 1268     		ldr	r2, [r2]
 951 01ce 1269     		ldr	r2, [r2, #16]
 952 01d0 D2B2     		uxtb	r2, r2
 953 01d2 1A70     		strb	r2, [r3]
 700:Drivers/STM32F4xx_HAL_Driver/Src/stm32f4xx_hal_i2c.c ****           Size--;
 954              		.loc 1 700 0
 955 01d4 3B89     		ldrh	r3, [r7, #8]
 956 01d6 013B     		subs	r3, r3, #1
 957 01d8 3B81     		strh	r3, [r7, #8]	@ movhi
 958 01da 76E0     		b	.L51
 959              	.L56:
 701:Drivers/STM32F4xx_HAL_Driver/Src/stm32f4xx_hal_i2c.c ****         }
 702:Drivers/STM32F4xx_HAL_Driver/Src/stm32f4xx_hal_i2c.c ****         /* 3 Last bytes */
 703:Drivers/STM32F4xx_HAL_Driver/Src/stm32f4xx_hal_i2c.c ****         else
 704:Drivers/STM32F4xx_HAL_Driver/Src/stm32f4xx_hal_i2c.c ****         {
ARM GAS  /tmp/cc5bMm9J.s 			page 30


 705:Drivers/STM32F4xx_HAL_Driver/Src/stm32f4xx_hal_i2c.c ****           /* Wait until BTF flag is set */
 706:Drivers/STM32F4xx_HAL_Driver/Src/stm32f4xx_hal_i2c.c ****           if(I2C_WaitOnFlagUntilTimeout(hi2c, I2C_FLAG_BTF, RESET, Timeout) != HAL_OK)
 960              		.loc 1 706 0
 961 01dc F868     		ldr	r0, [r7, #12]
 962 01de 2B49     		ldr	r1, .L62+8
 963 01e0 0022     		movs	r2, #0
 964 01e2 BB6A     		ldr	r3, [r7, #40]
 965 01e4 FFF7FEFF 		bl	I2C_WaitOnFlagUntilTimeout
 966 01e8 0346     		mov	r3, r0
 967 01ea 002B     		cmp	r3, #0
 968 01ec 01D0     		beq	.L58
 707:Drivers/STM32F4xx_HAL_Driver/Src/stm32f4xx_hal_i2c.c ****           {
 708:Drivers/STM32F4xx_HAL_Driver/Src/stm32f4xx_hal_i2c.c ****             return HAL_TIMEOUT;
 969              		.loc 1 708 0
 970 01ee 0323     		movs	r3, #3
 971 01f0 7AE0     		b	.L43
 972              	.L58:
 709:Drivers/STM32F4xx_HAL_Driver/Src/stm32f4xx_hal_i2c.c ****           }
 710:Drivers/STM32F4xx_HAL_Driver/Src/stm32f4xx_hal_i2c.c **** 
 711:Drivers/STM32F4xx_HAL_Driver/Src/stm32f4xx_hal_i2c.c ****           /* Disable Acknowledge */
 712:Drivers/STM32F4xx_HAL_Driver/Src/stm32f4xx_hal_i2c.c ****           hi2c->Instance->CR1 &= ~I2C_CR1_ACK;
 973              		.loc 1 712 0
 974 01f2 FB68     		ldr	r3, [r7, #12]
 975 01f4 1B68     		ldr	r3, [r3]
 976 01f6 FA68     		ldr	r2, [r7, #12]
 977 01f8 1268     		ldr	r2, [r2]
 978 01fa 1268     		ldr	r2, [r2]
 979 01fc 22F48062 		bic	r2, r2, #1024
 980 0200 1A60     		str	r2, [r3]
 713:Drivers/STM32F4xx_HAL_Driver/Src/stm32f4xx_hal_i2c.c **** 
 714:Drivers/STM32F4xx_HAL_Driver/Src/stm32f4xx_hal_i2c.c ****           /* Read data from DR */
 715:Drivers/STM32F4xx_HAL_Driver/Src/stm32f4xx_hal_i2c.c ****           (*pData++) = hi2c->Instance->DR;
 981              		.loc 1 715 0
 982 0202 7B68     		ldr	r3, [r7, #4]
 983 0204 5A1C     		adds	r2, r3, #1
 984 0206 7A60     		str	r2, [r7, #4]
 985 0208 FA68     		ldr	r2, [r7, #12]
 986 020a 1268     		ldr	r2, [r2]
 987 020c 1269     		ldr	r2, [r2, #16]
 988 020e D2B2     		uxtb	r2, r2
 989 0210 1A70     		strb	r2, [r3]
 716:Drivers/STM32F4xx_HAL_Driver/Src/stm32f4xx_hal_i2c.c ****           Size--;
 990              		.loc 1 716 0
 991 0212 3B89     		ldrh	r3, [r7, #8]
 992 0214 013B     		subs	r3, r3, #1
 993 0216 3B81     		strh	r3, [r7, #8]	@ movhi
 717:Drivers/STM32F4xx_HAL_Driver/Src/stm32f4xx_hal_i2c.c **** 
 718:Drivers/STM32F4xx_HAL_Driver/Src/stm32f4xx_hal_i2c.c ****           /* Wait until BTF flag is set */
 719:Drivers/STM32F4xx_HAL_Driver/Src/stm32f4xx_hal_i2c.c ****           if(I2C_WaitOnFlagUntilTimeout(hi2c, I2C_FLAG_BTF, RESET, Timeout) != HAL_OK)
 994              		.loc 1 719 0
 995 0218 F868     		ldr	r0, [r7, #12]
 996 021a 1C49     		ldr	r1, .L62+8
 997 021c 0022     		movs	r2, #0
 998 021e BB6A     		ldr	r3, [r7, #40]
 999 0220 FFF7FEFF 		bl	I2C_WaitOnFlagUntilTimeout
 1000 0224 0346     		mov	r3, r0
 1001 0226 002B     		cmp	r3, #0
ARM GAS  /tmp/cc5bMm9J.s 			page 31


 1002 0228 01D0     		beq	.L59
 720:Drivers/STM32F4xx_HAL_Driver/Src/stm32f4xx_hal_i2c.c ****           {
 721:Drivers/STM32F4xx_HAL_Driver/Src/stm32f4xx_hal_i2c.c ****             return HAL_TIMEOUT;
 1003              		.loc 1 721 0
 1004 022a 0323     		movs	r3, #3
 1005 022c 5CE0     		b	.L43
 1006              	.L59:
 722:Drivers/STM32F4xx_HAL_Driver/Src/stm32f4xx_hal_i2c.c ****           }
 723:Drivers/STM32F4xx_HAL_Driver/Src/stm32f4xx_hal_i2c.c **** 
 724:Drivers/STM32F4xx_HAL_Driver/Src/stm32f4xx_hal_i2c.c ****           /* Generate Stop */
 725:Drivers/STM32F4xx_HAL_Driver/Src/stm32f4xx_hal_i2c.c ****           hi2c->Instance->CR1 |= I2C_CR1_STOP;
 1007              		.loc 1 725 0
 1008 022e FB68     		ldr	r3, [r7, #12]
 1009 0230 1B68     		ldr	r3, [r3]
 1010 0232 FA68     		ldr	r2, [r7, #12]
 1011 0234 1268     		ldr	r2, [r2]
 1012 0236 1268     		ldr	r2, [r2]
 1013 0238 42F40072 		orr	r2, r2, #512
 1014 023c 1A60     		str	r2, [r3]
 726:Drivers/STM32F4xx_HAL_Driver/Src/stm32f4xx_hal_i2c.c **** 
 727:Drivers/STM32F4xx_HAL_Driver/Src/stm32f4xx_hal_i2c.c ****           /* Read data from DR */
 728:Drivers/STM32F4xx_HAL_Driver/Src/stm32f4xx_hal_i2c.c ****           (*pData++) = hi2c->Instance->DR;
 1015              		.loc 1 728 0
 1016 023e 7B68     		ldr	r3, [r7, #4]
 1017 0240 5A1C     		adds	r2, r3, #1
 1018 0242 7A60     		str	r2, [r7, #4]
 1019 0244 FA68     		ldr	r2, [r7, #12]
 1020 0246 1268     		ldr	r2, [r2]
 1021 0248 1269     		ldr	r2, [r2, #16]
 1022 024a D2B2     		uxtb	r2, r2
 1023 024c 1A70     		strb	r2, [r3]
 729:Drivers/STM32F4xx_HAL_Driver/Src/stm32f4xx_hal_i2c.c ****           Size--;
 1024              		.loc 1 729 0
 1025 024e 3B89     		ldrh	r3, [r7, #8]
 1026 0250 013B     		subs	r3, r3, #1
 1027 0252 3B81     		strh	r3, [r7, #8]	@ movhi
 730:Drivers/STM32F4xx_HAL_Driver/Src/stm32f4xx_hal_i2c.c **** 
 731:Drivers/STM32F4xx_HAL_Driver/Src/stm32f4xx_hal_i2c.c ****           /* Read data from DR */
 732:Drivers/STM32F4xx_HAL_Driver/Src/stm32f4xx_hal_i2c.c ****           (*pData++) = hi2c->Instance->DR;
 1028              		.loc 1 732 0
 1029 0254 7B68     		ldr	r3, [r7, #4]
 1030 0256 5A1C     		adds	r2, r3, #1
 1031 0258 7A60     		str	r2, [r7, #4]
 1032 025a FA68     		ldr	r2, [r7, #12]
 1033 025c 1268     		ldr	r2, [r2]
 1034 025e 1269     		ldr	r2, [r2, #16]
 1035 0260 D2B2     		uxtb	r2, r2
 1036 0262 1A70     		strb	r2, [r3]
 733:Drivers/STM32F4xx_HAL_Driver/Src/stm32f4xx_hal_i2c.c ****           Size--;
 1037              		.loc 1 733 0
 1038 0264 3B89     		ldrh	r3, [r7, #8]
 1039 0266 013B     		subs	r3, r3, #1
 1040 0268 3B81     		strh	r3, [r7, #8]	@ movhi
 1041 026a 2EE0     		b	.L51
 1042              	.L52:
 734:Drivers/STM32F4xx_HAL_Driver/Src/stm32f4xx_hal_i2c.c ****         }
 735:Drivers/STM32F4xx_HAL_Driver/Src/stm32f4xx_hal_i2c.c ****       }
ARM GAS  /tmp/cc5bMm9J.s 			page 32


 736:Drivers/STM32F4xx_HAL_Driver/Src/stm32f4xx_hal_i2c.c ****       else
 737:Drivers/STM32F4xx_HAL_Driver/Src/stm32f4xx_hal_i2c.c ****       {
 738:Drivers/STM32F4xx_HAL_Driver/Src/stm32f4xx_hal_i2c.c ****         /* Wait until RXNE flag is set */
 739:Drivers/STM32F4xx_HAL_Driver/Src/stm32f4xx_hal_i2c.c ****         if(I2C_WaitOnFlagUntilTimeout(hi2c, I2C_FLAG_RXNE, RESET, Timeout) != HAL_OK)
 1043              		.loc 1 739 0
 1044 026c F868     		ldr	r0, [r7, #12]
 1045 026e 0649     		ldr	r1, .L62+4
 1046 0270 0022     		movs	r2, #0
 1047 0272 BB6A     		ldr	r3, [r7, #40]
 1048 0274 FFF7FEFF 		bl	I2C_WaitOnFlagUntilTimeout
 1049 0278 0346     		mov	r3, r0
 1050 027a 002B     		cmp	r3, #0
 1051 027c 08D0     		beq	.L60
 740:Drivers/STM32F4xx_HAL_Driver/Src/stm32f4xx_hal_i2c.c ****         {
 741:Drivers/STM32F4xx_HAL_Driver/Src/stm32f4xx_hal_i2c.c ****           return HAL_TIMEOUT;
 1052              		.loc 1 741 0
 1053 027e 0323     		movs	r3, #3
 1054 0280 32E0     		b	.L43
 1055              	.L63:
 1056 0282 00BF     		.align	2
 1057              	.L62:
 1058 0284 02001000 		.word	1048578
 1059 0288 40000100 		.word	65600
 1060 028c 04000100 		.word	65540
 1061              	.L60:
 742:Drivers/STM32F4xx_HAL_Driver/Src/stm32f4xx_hal_i2c.c ****         }
 743:Drivers/STM32F4xx_HAL_Driver/Src/stm32f4xx_hal_i2c.c **** 
 744:Drivers/STM32F4xx_HAL_Driver/Src/stm32f4xx_hal_i2c.c ****         /* Read data from DR */
 745:Drivers/STM32F4xx_HAL_Driver/Src/stm32f4xx_hal_i2c.c ****         (*pData++) = hi2c->Instance->DR;
 1062              		.loc 1 745 0
 1063 0290 7B68     		ldr	r3, [r7, #4]
 1064 0292 5A1C     		adds	r2, r3, #1
 1065 0294 7A60     		str	r2, [r7, #4]
 1066 0296 FA68     		ldr	r2, [r7, #12]
 1067 0298 1268     		ldr	r2, [r2]
 1068 029a 1269     		ldr	r2, [r2, #16]
 1069 029c D2B2     		uxtb	r2, r2
 1070 029e 1A70     		strb	r2, [r3]
 746:Drivers/STM32F4xx_HAL_Driver/Src/stm32f4xx_hal_i2c.c ****         Size--;
 1071              		.loc 1 746 0
 1072 02a0 3B89     		ldrh	r3, [r7, #8]
 1073 02a2 013B     		subs	r3, r3, #1
 1074 02a4 3B81     		strh	r3, [r7, #8]	@ movhi
 747:Drivers/STM32F4xx_HAL_Driver/Src/stm32f4xx_hal_i2c.c **** 
 748:Drivers/STM32F4xx_HAL_Driver/Src/stm32f4xx_hal_i2c.c ****         if(__HAL_I2C_GET_FLAG(hi2c, I2C_FLAG_BTF) == SET)
 1075              		.loc 1 748 0
 1076 02a6 FB68     		ldr	r3, [r7, #12]
 1077 02a8 1B68     		ldr	r3, [r3]
 1078 02aa 5B69     		ldr	r3, [r3, #20]
 1079 02ac 03F00403 		and	r3, r3, #4
 1080 02b0 002B     		cmp	r3, #0
 1081 02b2 0AD0     		beq	.L51
 749:Drivers/STM32F4xx_HAL_Driver/Src/stm32f4xx_hal_i2c.c ****         {
 750:Drivers/STM32F4xx_HAL_Driver/Src/stm32f4xx_hal_i2c.c ****           /* Read data from DR */
 751:Drivers/STM32F4xx_HAL_Driver/Src/stm32f4xx_hal_i2c.c ****           (*pData++) = hi2c->Instance->DR;
 1082              		.loc 1 751 0
 1083 02b4 7B68     		ldr	r3, [r7, #4]
ARM GAS  /tmp/cc5bMm9J.s 			page 33


 1084 02b6 5A1C     		adds	r2, r3, #1
 1085 02b8 7A60     		str	r2, [r7, #4]
 1086 02ba FA68     		ldr	r2, [r7, #12]
 1087 02bc 1268     		ldr	r2, [r2]
 1088 02be 1269     		ldr	r2, [r2, #16]
 1089 02c0 D2B2     		uxtb	r2, r2
 1090 02c2 1A70     		strb	r2, [r3]
 752:Drivers/STM32F4xx_HAL_Driver/Src/stm32f4xx_hal_i2c.c ****           Size--;
 1091              		.loc 1 752 0
 1092 02c4 3B89     		ldrh	r3, [r7, #8]
 1093 02c6 013B     		subs	r3, r3, #1
 1094 02c8 3B81     		strh	r3, [r7, #8]	@ movhi
 1095              	.L51:
 665:Drivers/STM32F4xx_HAL_Driver/Src/stm32f4xx_hal_i2c.c ****     {
 1096              		.loc 1 665 0 discriminator 1
 1097 02ca 3B89     		ldrh	r3, [r7, #8]
 1098 02cc 002B     		cmp	r3, #0
 1099 02ce 7FF43AAF 		bne	.L61
 753:Drivers/STM32F4xx_HAL_Driver/Src/stm32f4xx_hal_i2c.c ****         }
 754:Drivers/STM32F4xx_HAL_Driver/Src/stm32f4xx_hal_i2c.c ****       }
 755:Drivers/STM32F4xx_HAL_Driver/Src/stm32f4xx_hal_i2c.c ****     }
 756:Drivers/STM32F4xx_HAL_Driver/Src/stm32f4xx_hal_i2c.c **** 
 757:Drivers/STM32F4xx_HAL_Driver/Src/stm32f4xx_hal_i2c.c ****     hi2c->State = HAL_I2C_STATE_READY;
 1100              		.loc 1 757 0
 1101 02d2 FB68     		ldr	r3, [r7, #12]
 1102 02d4 0122     		movs	r2, #1
 1103 02d6 83F83520 		strb	r2, [r3, #53]
 758:Drivers/STM32F4xx_HAL_Driver/Src/stm32f4xx_hal_i2c.c **** 
 759:Drivers/STM32F4xx_HAL_Driver/Src/stm32f4xx_hal_i2c.c ****     /* Process Unlocked */
 760:Drivers/STM32F4xx_HAL_Driver/Src/stm32f4xx_hal_i2c.c ****     __HAL_UNLOCK(hi2c);
 1104              		.loc 1 760 0
 1105 02da FB68     		ldr	r3, [r7, #12]
 1106 02dc 0022     		movs	r2, #0
 1107 02de 83F83420 		strb	r2, [r3, #52]
 761:Drivers/STM32F4xx_HAL_Driver/Src/stm32f4xx_hal_i2c.c **** 
 762:Drivers/STM32F4xx_HAL_Driver/Src/stm32f4xx_hal_i2c.c ****     return HAL_OK;
 1108              		.loc 1 762 0
 1109 02e2 0023     		movs	r3, #0
 1110 02e4 00E0     		b	.L43
 1111              	.L40:
 763:Drivers/STM32F4xx_HAL_Driver/Src/stm32f4xx_hal_i2c.c ****   }
 764:Drivers/STM32F4xx_HAL_Driver/Src/stm32f4xx_hal_i2c.c ****   else
 765:Drivers/STM32F4xx_HAL_Driver/Src/stm32f4xx_hal_i2c.c ****   {
 766:Drivers/STM32F4xx_HAL_Driver/Src/stm32f4xx_hal_i2c.c ****     return HAL_BUSY;
 1112              		.loc 1 766 0
 1113 02e6 0223     		movs	r3, #2
 1114              	.L43:
 767:Drivers/STM32F4xx_HAL_Driver/Src/stm32f4xx_hal_i2c.c ****   }
 768:Drivers/STM32F4xx_HAL_Driver/Src/stm32f4xx_hal_i2c.c **** }
 1115              		.loc 1 768 0
 1116 02e8 1846     		mov	r0, r3
 1117 02ea 2037     		adds	r7, r7, #32
 1118 02ec BD46     		mov	sp, r7
 1119              		@ sp needed
 1120 02ee 80BD     		pop	{r7, pc}
 1121              		.cfi_endproc
 1122              	.LFE130:
ARM GAS  /tmp/cc5bMm9J.s 			page 34


 1124              		.section	.text.HAL_I2C_Slave_Transmit,"ax",%progbits
 1125              		.align	2
 1126              		.global	HAL_I2C_Slave_Transmit
 1127              		.thumb
 1128              		.thumb_func
 1130              	HAL_I2C_Slave_Transmit:
 1131              	.LFB131:
 769:Drivers/STM32F4xx_HAL_Driver/Src/stm32f4xx_hal_i2c.c **** 
 770:Drivers/STM32F4xx_HAL_Driver/Src/stm32f4xx_hal_i2c.c **** /**
 771:Drivers/STM32F4xx_HAL_Driver/Src/stm32f4xx_hal_i2c.c ****   * @brief  Transmits in slave mode an amount of data in blocking mode.
 772:Drivers/STM32F4xx_HAL_Driver/Src/stm32f4xx_hal_i2c.c ****   * @param  hi2c: pointer to a I2C_HandleTypeDef structure that contains
 773:Drivers/STM32F4xx_HAL_Driver/Src/stm32f4xx_hal_i2c.c ****   *         the configuration information for I2C module
 774:Drivers/STM32F4xx_HAL_Driver/Src/stm32f4xx_hal_i2c.c ****   * @param  pData: Pointer to data buffer
 775:Drivers/STM32F4xx_HAL_Driver/Src/stm32f4xx_hal_i2c.c ****   * @param  Size: Amount of data to be sent
 776:Drivers/STM32F4xx_HAL_Driver/Src/stm32f4xx_hal_i2c.c ****   * @param  Timeout: Timeout duration
 777:Drivers/STM32F4xx_HAL_Driver/Src/stm32f4xx_hal_i2c.c ****   * @retval HAL status
 778:Drivers/STM32F4xx_HAL_Driver/Src/stm32f4xx_hal_i2c.c ****   */
 779:Drivers/STM32F4xx_HAL_Driver/Src/stm32f4xx_hal_i2c.c **** HAL_StatusTypeDef HAL_I2C_Slave_Transmit(I2C_HandleTypeDef *hi2c, uint8_t *pData, uint16_t Size, ui
 780:Drivers/STM32F4xx_HAL_Driver/Src/stm32f4xx_hal_i2c.c **** {
 1132              		.loc 1 780 0
 1133              		.cfi_startproc
 1134              		@ args = 0, pretend = 0, frame = 24
 1135              		@ frame_needed = 1, uses_anonymous_args = 0
 1136 0000 80B5     		push	{r7, lr}
 1137              	.LCFI18:
 1138              		.cfi_def_cfa_offset 8
 1139              		.cfi_offset 7, -8
 1140              		.cfi_offset 14, -4
 1141 0002 86B0     		sub	sp, sp, #24
 1142              	.LCFI19:
 1143              		.cfi_def_cfa_offset 32
 1144 0004 00AF     		add	r7, sp, #0
 1145              	.LCFI20:
 1146              		.cfi_def_cfa_register 7
 1147 0006 F860     		str	r0, [r7, #12]
 1148 0008 B960     		str	r1, [r7, #8]
 1149 000a 3B60     		str	r3, [r7]
 1150 000c 1346     		mov	r3, r2	@ movhi
 1151 000e FB80     		strh	r3, [r7, #6]	@ movhi
 781:Drivers/STM32F4xx_HAL_Driver/Src/stm32f4xx_hal_i2c.c ****   if(hi2c->State == HAL_I2C_STATE_READY)
 1152              		.loc 1 781 0
 1153 0010 FB68     		ldr	r3, [r7, #12]
 1154 0012 93F83530 		ldrb	r3, [r3, #53]
 1155 0016 DBB2     		uxtb	r3, r3
 1156 0018 012B     		cmp	r3, #1
 1157 001a 40F0B480 		bne	.L65
 782:Drivers/STM32F4xx_HAL_Driver/Src/stm32f4xx_hal_i2c.c ****   {
 783:Drivers/STM32F4xx_HAL_Driver/Src/stm32f4xx_hal_i2c.c ****     if((pData == NULL) || (Size == 0))
 1158              		.loc 1 783 0
 1159 001e BB68     		ldr	r3, [r7, #8]
 1160 0020 002B     		cmp	r3, #0
 1161 0022 02D0     		beq	.L66
 1162              		.loc 1 783 0 is_stmt 0 discriminator 1
 1163 0024 FB88     		ldrh	r3, [r7, #6]
 1164 0026 002B     		cmp	r3, #0
 1165 0028 01D1     		bne	.L67
 1166              	.L66:
ARM GAS  /tmp/cc5bMm9J.s 			page 35


 784:Drivers/STM32F4xx_HAL_Driver/Src/stm32f4xx_hal_i2c.c ****     {
 785:Drivers/STM32F4xx_HAL_Driver/Src/stm32f4xx_hal_i2c.c ****       return  HAL_ERROR;
 1167              		.loc 1 785 0 is_stmt 1
 1168 002a 0123     		movs	r3, #1
 1169 002c ACE0     		b	.L68
 1170              	.L67:
 786:Drivers/STM32F4xx_HAL_Driver/Src/stm32f4xx_hal_i2c.c ****     }
 787:Drivers/STM32F4xx_HAL_Driver/Src/stm32f4xx_hal_i2c.c **** 
 788:Drivers/STM32F4xx_HAL_Driver/Src/stm32f4xx_hal_i2c.c ****     /* Wait until BUSY flag is reset */
 789:Drivers/STM32F4xx_HAL_Driver/Src/stm32f4xx_hal_i2c.c ****     if(I2C_WaitOnFlagUntilTimeout(hi2c, I2C_FLAG_BUSY, SET, I2C_TIMEOUT_BUSY_FLAG) != HAL_OK)
 1171              		.loc 1 789 0
 1172 002e F868     		ldr	r0, [r7, #12]
 1173 0030 5749     		ldr	r1, .L78
 1174 0032 0122     		movs	r2, #1
 1175 0034 42F21073 		movw	r3, #10000
 1176 0038 FFF7FEFF 		bl	I2C_WaitOnFlagUntilTimeout
 1177 003c 0346     		mov	r3, r0
 1178 003e 002B     		cmp	r3, #0
 1179 0040 01D0     		beq	.L69
 790:Drivers/STM32F4xx_HAL_Driver/Src/stm32f4xx_hal_i2c.c ****     {
 791:Drivers/STM32F4xx_HAL_Driver/Src/stm32f4xx_hal_i2c.c ****       return HAL_BUSY;
 1180              		.loc 1 791 0
 1181 0042 0223     		movs	r3, #2
 1182 0044 A0E0     		b	.L68
 1183              	.L69:
 792:Drivers/STM32F4xx_HAL_Driver/Src/stm32f4xx_hal_i2c.c ****     }
 793:Drivers/STM32F4xx_HAL_Driver/Src/stm32f4xx_hal_i2c.c **** 
 794:Drivers/STM32F4xx_HAL_Driver/Src/stm32f4xx_hal_i2c.c ****     /* Process Locked */
 795:Drivers/STM32F4xx_HAL_Driver/Src/stm32f4xx_hal_i2c.c ****     __HAL_LOCK(hi2c);
 1184              		.loc 1 795 0
 1185 0046 FB68     		ldr	r3, [r7, #12]
 1186 0048 93F83430 		ldrb	r3, [r3, #52]	@ zero_extendqisi2
 1187 004c 012B     		cmp	r3, #1
 1188 004e 01D1     		bne	.L70
 1189              		.loc 1 795 0 is_stmt 0 discriminator 1
 1190 0050 0223     		movs	r3, #2
 1191 0052 99E0     		b	.L68
 1192              	.L70:
 1193              		.loc 1 795 0 discriminator 2
 1194 0054 FB68     		ldr	r3, [r7, #12]
 1195 0056 0122     		movs	r2, #1
 1196 0058 83F83420 		strb	r2, [r3, #52]
 796:Drivers/STM32F4xx_HAL_Driver/Src/stm32f4xx_hal_i2c.c ****     
 797:Drivers/STM32F4xx_HAL_Driver/Src/stm32f4xx_hal_i2c.c ****     /* Disable Pos */
 798:Drivers/STM32F4xx_HAL_Driver/Src/stm32f4xx_hal_i2c.c ****     hi2c->Instance->CR1 &= ~I2C_CR1_POS;
 1197              		.loc 1 798 0 is_stmt 1 discriminator 2
 1198 005c FB68     		ldr	r3, [r7, #12]
 1199 005e 1B68     		ldr	r3, [r3]
 1200 0060 FA68     		ldr	r2, [r7, #12]
 1201 0062 1268     		ldr	r2, [r2]
 1202 0064 1268     		ldr	r2, [r2]
 1203 0066 22F40062 		bic	r2, r2, #2048
 1204 006a 1A60     		str	r2, [r3]
 799:Drivers/STM32F4xx_HAL_Driver/Src/stm32f4xx_hal_i2c.c **** 
 800:Drivers/STM32F4xx_HAL_Driver/Src/stm32f4xx_hal_i2c.c ****     hi2c->State = HAL_I2C_STATE_BUSY_TX;
 1205              		.loc 1 800 0 discriminator 2
 1206 006c FB68     		ldr	r3, [r7, #12]
ARM GAS  /tmp/cc5bMm9J.s 			page 36


 1207 006e 1222     		movs	r2, #18
 1208 0070 83F83520 		strb	r2, [r3, #53]
 801:Drivers/STM32F4xx_HAL_Driver/Src/stm32f4xx_hal_i2c.c ****     hi2c->ErrorCode = HAL_I2C_ERROR_NONE;
 1209              		.loc 1 801 0 discriminator 2
 1210 0074 FB68     		ldr	r3, [r7, #12]
 1211 0076 0022     		movs	r2, #0
 1212 0078 9A63     		str	r2, [r3, #56]
 802:Drivers/STM32F4xx_HAL_Driver/Src/stm32f4xx_hal_i2c.c **** 
 803:Drivers/STM32F4xx_HAL_Driver/Src/stm32f4xx_hal_i2c.c ****     /* Enable Address Acknowledge */
 804:Drivers/STM32F4xx_HAL_Driver/Src/stm32f4xx_hal_i2c.c ****     hi2c->Instance->CR1 |= I2C_CR1_ACK;
 1213              		.loc 1 804 0 discriminator 2
 1214 007a FB68     		ldr	r3, [r7, #12]
 1215 007c 1B68     		ldr	r3, [r3]
 1216 007e FA68     		ldr	r2, [r7, #12]
 1217 0080 1268     		ldr	r2, [r2]
 1218 0082 1268     		ldr	r2, [r2]
 1219 0084 42F48062 		orr	r2, r2, #1024
 1220 0088 1A60     		str	r2, [r3]
 805:Drivers/STM32F4xx_HAL_Driver/Src/stm32f4xx_hal_i2c.c **** 
 806:Drivers/STM32F4xx_HAL_Driver/Src/stm32f4xx_hal_i2c.c ****     /* Wait until ADDR flag is set */
 807:Drivers/STM32F4xx_HAL_Driver/Src/stm32f4xx_hal_i2c.c ****     if(I2C_WaitOnFlagUntilTimeout(hi2c, I2C_FLAG_ADDR, RESET, Timeout) != HAL_OK)
 1221              		.loc 1 807 0 discriminator 2
 1222 008a F868     		ldr	r0, [r7, #12]
 1223 008c 4149     		ldr	r1, .L78+4
 1224 008e 0022     		movs	r2, #0
 1225 0090 3B68     		ldr	r3, [r7]
 1226 0092 FFF7FEFF 		bl	I2C_WaitOnFlagUntilTimeout
 1227 0096 0346     		mov	r3, r0
 1228 0098 002B     		cmp	r3, #0
 1229 009a 01D0     		beq	.L71
 808:Drivers/STM32F4xx_HAL_Driver/Src/stm32f4xx_hal_i2c.c ****     {
 809:Drivers/STM32F4xx_HAL_Driver/Src/stm32f4xx_hal_i2c.c ****       return HAL_TIMEOUT;
 1230              		.loc 1 809 0
 1231 009c 0323     		movs	r3, #3
 1232 009e 73E0     		b	.L68
 1233              	.L71:
 1234              	.LBB6:
 810:Drivers/STM32F4xx_HAL_Driver/Src/stm32f4xx_hal_i2c.c ****     }
 811:Drivers/STM32F4xx_HAL_Driver/Src/stm32f4xx_hal_i2c.c **** 
 812:Drivers/STM32F4xx_HAL_Driver/Src/stm32f4xx_hal_i2c.c ****     /* Clear ADDR flag */
 813:Drivers/STM32F4xx_HAL_Driver/Src/stm32f4xx_hal_i2c.c ****     __HAL_I2C_CLEAR_ADDRFLAG(hi2c);
 1235              		.loc 1 813 0
 1236 00a0 FB68     		ldr	r3, [r7, #12]
 1237 00a2 1B68     		ldr	r3, [r3]
 1238 00a4 5B69     		ldr	r3, [r3, #20]
 1239 00a6 7B61     		str	r3, [r7, #20]
 1240 00a8 FB68     		ldr	r3, [r7, #12]
 1241 00aa 1B68     		ldr	r3, [r3]
 1242 00ac 9B69     		ldr	r3, [r3, #24]
 1243 00ae 7B61     		str	r3, [r7, #20]
 1244 00b0 7B69     		ldr	r3, [r7, #20]
 1245              	.LBE6:
 814:Drivers/STM32F4xx_HAL_Driver/Src/stm32f4xx_hal_i2c.c **** 
 815:Drivers/STM32F4xx_HAL_Driver/Src/stm32f4xx_hal_i2c.c ****     /* If 10bit addressing mode is selected */
 816:Drivers/STM32F4xx_HAL_Driver/Src/stm32f4xx_hal_i2c.c ****     if(hi2c->Init.AddressingMode == I2C_ADDRESSINGMODE_10BIT)
 1246              		.loc 1 816 0
 1247 00b2 FB68     		ldr	r3, [r7, #12]
ARM GAS  /tmp/cc5bMm9J.s 			page 37


 1248 00b4 1B69     		ldr	r3, [r3, #16]
 1249 00b6 B3F5404F 		cmp	r3, #49152
 1250 00ba 14D1     		bne	.L72
 817:Drivers/STM32F4xx_HAL_Driver/Src/stm32f4xx_hal_i2c.c ****     {
 818:Drivers/STM32F4xx_HAL_Driver/Src/stm32f4xx_hal_i2c.c ****       /* Wait until ADDR flag is set */
 819:Drivers/STM32F4xx_HAL_Driver/Src/stm32f4xx_hal_i2c.c ****       if(I2C_WaitOnFlagUntilTimeout(hi2c, I2C_FLAG_ADDR, RESET, Timeout) != HAL_OK)
 1251              		.loc 1 819 0
 1252 00bc F868     		ldr	r0, [r7, #12]
 1253 00be 3549     		ldr	r1, .L78+4
 1254 00c0 0022     		movs	r2, #0
 1255 00c2 3B68     		ldr	r3, [r7]
 1256 00c4 FFF7FEFF 		bl	I2C_WaitOnFlagUntilTimeout
 1257 00c8 0346     		mov	r3, r0
 1258 00ca 002B     		cmp	r3, #0
 1259 00cc 01D0     		beq	.L73
 820:Drivers/STM32F4xx_HAL_Driver/Src/stm32f4xx_hal_i2c.c ****       {
 821:Drivers/STM32F4xx_HAL_Driver/Src/stm32f4xx_hal_i2c.c ****         return HAL_TIMEOUT;
 1260              		.loc 1 821 0
 1261 00ce 0323     		movs	r3, #3
 1262 00d0 5AE0     		b	.L68
 1263              	.L73:
 1264              	.LBB7:
 822:Drivers/STM32F4xx_HAL_Driver/Src/stm32f4xx_hal_i2c.c ****       }
 823:Drivers/STM32F4xx_HAL_Driver/Src/stm32f4xx_hal_i2c.c **** 
 824:Drivers/STM32F4xx_HAL_Driver/Src/stm32f4xx_hal_i2c.c ****       /* Clear ADDR flag */
 825:Drivers/STM32F4xx_HAL_Driver/Src/stm32f4xx_hal_i2c.c ****       __HAL_I2C_CLEAR_ADDRFLAG(hi2c);
 1265              		.loc 1 825 0
 1266 00d2 FB68     		ldr	r3, [r7, #12]
 1267 00d4 1B68     		ldr	r3, [r3]
 1268 00d6 5B69     		ldr	r3, [r3, #20]
 1269 00d8 3B61     		str	r3, [r7, #16]
 1270 00da FB68     		ldr	r3, [r7, #12]
 1271 00dc 1B68     		ldr	r3, [r3]
 1272 00de 9B69     		ldr	r3, [r3, #24]
 1273 00e0 3B61     		str	r3, [r7, #16]
 1274 00e2 3B69     		ldr	r3, [r7, #16]
 1275              	.LBE7:
 826:Drivers/STM32F4xx_HAL_Driver/Src/stm32f4xx_hal_i2c.c ****     }
 827:Drivers/STM32F4xx_HAL_Driver/Src/stm32f4xx_hal_i2c.c **** 
 828:Drivers/STM32F4xx_HAL_Driver/Src/stm32f4xx_hal_i2c.c ****     while(Size > 0)
 1276              		.loc 1 828 0
 1277 00e4 29E0     		b	.L74
 1278              	.L72:
 1279 00e6 28E0     		b	.L74
 1280              	.L76:
 829:Drivers/STM32F4xx_HAL_Driver/Src/stm32f4xx_hal_i2c.c ****     {
 830:Drivers/STM32F4xx_HAL_Driver/Src/stm32f4xx_hal_i2c.c ****       /* Wait until TXE flag is set */
 831:Drivers/STM32F4xx_HAL_Driver/Src/stm32f4xx_hal_i2c.c ****       if(I2C_WaitOnFlagUntilTimeout(hi2c, I2C_FLAG_TXE, RESET, Timeout) != HAL_OK)
 1281              		.loc 1 831 0
 1282 00e8 F868     		ldr	r0, [r7, #12]
 1283 00ea 2B49     		ldr	r1, .L78+8
 1284 00ec 0022     		movs	r2, #0
 1285 00ee 3B68     		ldr	r3, [r7]
 1286 00f0 FFF7FEFF 		bl	I2C_WaitOnFlagUntilTimeout
 1287 00f4 0346     		mov	r3, r0
 1288 00f6 002B     		cmp	r3, #0
 1289 00f8 01D0     		beq	.L75
ARM GAS  /tmp/cc5bMm9J.s 			page 38


 832:Drivers/STM32F4xx_HAL_Driver/Src/stm32f4xx_hal_i2c.c ****       {
 833:Drivers/STM32F4xx_HAL_Driver/Src/stm32f4xx_hal_i2c.c ****         return HAL_TIMEOUT;
 1290              		.loc 1 833 0
 1291 00fa 0323     		movs	r3, #3
 1292 00fc 44E0     		b	.L68
 1293              	.L75:
 834:Drivers/STM32F4xx_HAL_Driver/Src/stm32f4xx_hal_i2c.c ****       }
 835:Drivers/STM32F4xx_HAL_Driver/Src/stm32f4xx_hal_i2c.c **** 
 836:Drivers/STM32F4xx_HAL_Driver/Src/stm32f4xx_hal_i2c.c ****       /* Write data to DR */
 837:Drivers/STM32F4xx_HAL_Driver/Src/stm32f4xx_hal_i2c.c ****       hi2c->Instance->DR = (*pData++);
 1294              		.loc 1 837 0
 1295 00fe FB68     		ldr	r3, [r7, #12]
 1296 0100 1A68     		ldr	r2, [r3]
 1297 0102 BB68     		ldr	r3, [r7, #8]
 1298 0104 591C     		adds	r1, r3, #1
 1299 0106 B960     		str	r1, [r7, #8]
 1300 0108 1B78     		ldrb	r3, [r3]	@ zero_extendqisi2
 1301 010a 1361     		str	r3, [r2, #16]
 838:Drivers/STM32F4xx_HAL_Driver/Src/stm32f4xx_hal_i2c.c ****       Size--;
 1302              		.loc 1 838 0
 1303 010c FB88     		ldrh	r3, [r7, #6]
 1304 010e 013B     		subs	r3, r3, #1
 1305 0110 FB80     		strh	r3, [r7, #6]	@ movhi
 839:Drivers/STM32F4xx_HAL_Driver/Src/stm32f4xx_hal_i2c.c **** 
 840:Drivers/STM32F4xx_HAL_Driver/Src/stm32f4xx_hal_i2c.c ****       if((__HAL_I2C_GET_FLAG(hi2c, I2C_FLAG_BTF) == SET) && (Size != 0))
 1306              		.loc 1 840 0
 1307 0112 FB68     		ldr	r3, [r7, #12]
 1308 0114 1B68     		ldr	r3, [r3]
 1309 0116 5B69     		ldr	r3, [r3, #20]
 1310 0118 03F00403 		and	r3, r3, #4
 1311 011c 002B     		cmp	r3, #0
 1312 011e 0CD0     		beq	.L74
 1313              		.loc 1 840 0 is_stmt 0 discriminator 1
 1314 0120 FB88     		ldrh	r3, [r7, #6]
 1315 0122 002B     		cmp	r3, #0
 1316 0124 09D0     		beq	.L74
 841:Drivers/STM32F4xx_HAL_Driver/Src/stm32f4xx_hal_i2c.c ****       {
 842:Drivers/STM32F4xx_HAL_Driver/Src/stm32f4xx_hal_i2c.c ****         /* Write data to DR */
 843:Drivers/STM32F4xx_HAL_Driver/Src/stm32f4xx_hal_i2c.c ****         hi2c->Instance->DR = (*pData++);
 1317              		.loc 1 843 0 is_stmt 1
 1318 0126 FB68     		ldr	r3, [r7, #12]
 1319 0128 1A68     		ldr	r2, [r3]
 1320 012a BB68     		ldr	r3, [r7, #8]
 1321 012c 591C     		adds	r1, r3, #1
 1322 012e B960     		str	r1, [r7, #8]
 1323 0130 1B78     		ldrb	r3, [r3]	@ zero_extendqisi2
 1324 0132 1361     		str	r3, [r2, #16]
 844:Drivers/STM32F4xx_HAL_Driver/Src/stm32f4xx_hal_i2c.c ****         Size--;
 1325              		.loc 1 844 0
 1326 0134 FB88     		ldrh	r3, [r7, #6]
 1327 0136 013B     		subs	r3, r3, #1
 1328 0138 FB80     		strh	r3, [r7, #6]	@ movhi
 1329              	.L74:
 828:Drivers/STM32F4xx_HAL_Driver/Src/stm32f4xx_hal_i2c.c ****     {
 1330              		.loc 1 828 0 discriminator 1
 1331 013a FB88     		ldrh	r3, [r7, #6]
 1332 013c 002B     		cmp	r3, #0
ARM GAS  /tmp/cc5bMm9J.s 			page 39


 1333 013e D3D1     		bne	.L76
 845:Drivers/STM32F4xx_HAL_Driver/Src/stm32f4xx_hal_i2c.c ****       }
 846:Drivers/STM32F4xx_HAL_Driver/Src/stm32f4xx_hal_i2c.c ****     }
 847:Drivers/STM32F4xx_HAL_Driver/Src/stm32f4xx_hal_i2c.c **** 
 848:Drivers/STM32F4xx_HAL_Driver/Src/stm32f4xx_hal_i2c.c ****     /* Wait until AF flag is set */
 849:Drivers/STM32F4xx_HAL_Driver/Src/stm32f4xx_hal_i2c.c ****     if(I2C_WaitOnFlagUntilTimeout(hi2c, I2C_FLAG_AF, RESET, Timeout) != HAL_OK)
 1334              		.loc 1 849 0
 1335 0140 F868     		ldr	r0, [r7, #12]
 1336 0142 4FF48231 		mov	r1, #66560
 1337 0146 0022     		movs	r2, #0
 1338 0148 3B68     		ldr	r3, [r7]
 1339 014a FFF7FEFF 		bl	I2C_WaitOnFlagUntilTimeout
 1340 014e 0346     		mov	r3, r0
 1341 0150 002B     		cmp	r3, #0
 1342 0152 01D0     		beq	.L77
 850:Drivers/STM32F4xx_HAL_Driver/Src/stm32f4xx_hal_i2c.c ****     {
 851:Drivers/STM32F4xx_HAL_Driver/Src/stm32f4xx_hal_i2c.c ****       return HAL_TIMEOUT;
 1343              		.loc 1 851 0
 1344 0154 0323     		movs	r3, #3
 1345 0156 17E0     		b	.L68
 1346              	.L77:
 852:Drivers/STM32F4xx_HAL_Driver/Src/stm32f4xx_hal_i2c.c ****     }
 853:Drivers/STM32F4xx_HAL_Driver/Src/stm32f4xx_hal_i2c.c **** 
 854:Drivers/STM32F4xx_HAL_Driver/Src/stm32f4xx_hal_i2c.c ****     /* Clear AF flag */
 855:Drivers/STM32F4xx_HAL_Driver/Src/stm32f4xx_hal_i2c.c ****     __HAL_I2C_CLEAR_FLAG(hi2c, I2C_FLAG_AF);
 1347              		.loc 1 855 0
 1348 0158 FB68     		ldr	r3, [r7, #12]
 1349 015a 1B68     		ldr	r3, [r3]
 1350 015c 6FF48062 		mvn	r2, #1024
 1351 0160 5A61     		str	r2, [r3, #20]
 856:Drivers/STM32F4xx_HAL_Driver/Src/stm32f4xx_hal_i2c.c **** 
 857:Drivers/STM32F4xx_HAL_Driver/Src/stm32f4xx_hal_i2c.c ****     /* Disable Address Acknowledge */
 858:Drivers/STM32F4xx_HAL_Driver/Src/stm32f4xx_hal_i2c.c ****     hi2c->Instance->CR1 &= ~I2C_CR1_ACK;
 1352              		.loc 1 858 0
 1353 0162 FB68     		ldr	r3, [r7, #12]
 1354 0164 1B68     		ldr	r3, [r3]
 1355 0166 FA68     		ldr	r2, [r7, #12]
 1356 0168 1268     		ldr	r2, [r2]
 1357 016a 1268     		ldr	r2, [r2]
 1358 016c 22F48062 		bic	r2, r2, #1024
 1359 0170 1A60     		str	r2, [r3]
 859:Drivers/STM32F4xx_HAL_Driver/Src/stm32f4xx_hal_i2c.c **** 
 860:Drivers/STM32F4xx_HAL_Driver/Src/stm32f4xx_hal_i2c.c ****     hi2c->State = HAL_I2C_STATE_READY;
 1360              		.loc 1 860 0
 1361 0172 FB68     		ldr	r3, [r7, #12]
 1362 0174 0122     		movs	r2, #1
 1363 0176 83F83520 		strb	r2, [r3, #53]
 861:Drivers/STM32F4xx_HAL_Driver/Src/stm32f4xx_hal_i2c.c **** 
 862:Drivers/STM32F4xx_HAL_Driver/Src/stm32f4xx_hal_i2c.c ****     /* Process Unlocked */
 863:Drivers/STM32F4xx_HAL_Driver/Src/stm32f4xx_hal_i2c.c ****     __HAL_UNLOCK(hi2c);
 1364              		.loc 1 863 0
 1365 017a FB68     		ldr	r3, [r7, #12]
 1366 017c 0022     		movs	r2, #0
 1367 017e 83F83420 		strb	r2, [r3, #52]
 864:Drivers/STM32F4xx_HAL_Driver/Src/stm32f4xx_hal_i2c.c **** 
 865:Drivers/STM32F4xx_HAL_Driver/Src/stm32f4xx_hal_i2c.c ****     return HAL_OK;
 1368              		.loc 1 865 0
ARM GAS  /tmp/cc5bMm9J.s 			page 40


 1369 0182 0023     		movs	r3, #0
 1370 0184 00E0     		b	.L68
 1371              	.L65:
 866:Drivers/STM32F4xx_HAL_Driver/Src/stm32f4xx_hal_i2c.c ****   }
 867:Drivers/STM32F4xx_HAL_Driver/Src/stm32f4xx_hal_i2c.c ****   else
 868:Drivers/STM32F4xx_HAL_Driver/Src/stm32f4xx_hal_i2c.c ****   {
 869:Drivers/STM32F4xx_HAL_Driver/Src/stm32f4xx_hal_i2c.c ****     return HAL_BUSY;
 1372              		.loc 1 869 0
 1373 0186 0223     		movs	r3, #2
 1374              	.L68:
 870:Drivers/STM32F4xx_HAL_Driver/Src/stm32f4xx_hal_i2c.c ****   }
 871:Drivers/STM32F4xx_HAL_Driver/Src/stm32f4xx_hal_i2c.c **** }
 1375              		.loc 1 871 0
 1376 0188 1846     		mov	r0, r3
 1377 018a 1837     		adds	r7, r7, #24
 1378 018c BD46     		mov	sp, r7
 1379              		@ sp needed
 1380 018e 80BD     		pop	{r7, pc}
 1381              	.L79:
 1382              		.align	2
 1383              	.L78:
 1384 0190 02001000 		.word	1048578
 1385 0194 02000100 		.word	65538
 1386 0198 80000100 		.word	65664
 1387              		.cfi_endproc
 1388              	.LFE131:
 1390              		.section	.text.HAL_I2C_Slave_Receive,"ax",%progbits
 1391              		.align	2
 1392              		.global	HAL_I2C_Slave_Receive
 1393              		.thumb
 1394              		.thumb_func
 1396              	HAL_I2C_Slave_Receive:
 1397              	.LFB132:
 872:Drivers/STM32F4xx_HAL_Driver/Src/stm32f4xx_hal_i2c.c **** 
 873:Drivers/STM32F4xx_HAL_Driver/Src/stm32f4xx_hal_i2c.c **** /**
 874:Drivers/STM32F4xx_HAL_Driver/Src/stm32f4xx_hal_i2c.c ****   * @brief  Receive in slave mode an amount of data in blocking mode
 875:Drivers/STM32F4xx_HAL_Driver/Src/stm32f4xx_hal_i2c.c ****   * @param  hi2c: pointer to a I2C_HandleTypeDef structure that contains
 876:Drivers/STM32F4xx_HAL_Driver/Src/stm32f4xx_hal_i2c.c ****   *         the configuration information for I2C module
 877:Drivers/STM32F4xx_HAL_Driver/Src/stm32f4xx_hal_i2c.c ****   * @param  pData: Pointer to data buffer
 878:Drivers/STM32F4xx_HAL_Driver/Src/stm32f4xx_hal_i2c.c ****   * @param  Size: Amount of data to be sent
 879:Drivers/STM32F4xx_HAL_Driver/Src/stm32f4xx_hal_i2c.c ****   * @param  Timeout: Timeout duration
 880:Drivers/STM32F4xx_HAL_Driver/Src/stm32f4xx_hal_i2c.c ****   * @retval HAL status
 881:Drivers/STM32F4xx_HAL_Driver/Src/stm32f4xx_hal_i2c.c ****   */
 882:Drivers/STM32F4xx_HAL_Driver/Src/stm32f4xx_hal_i2c.c **** HAL_StatusTypeDef HAL_I2C_Slave_Receive(I2C_HandleTypeDef *hi2c, uint8_t *pData, uint16_t Size, uin
 883:Drivers/STM32F4xx_HAL_Driver/Src/stm32f4xx_hal_i2c.c **** {
 1398              		.loc 1 883 0
 1399              		.cfi_startproc
 1400              		@ args = 0, pretend = 0, frame = 24
 1401              		@ frame_needed = 1, uses_anonymous_args = 0
 1402 0000 80B5     		push	{r7, lr}
 1403              	.LCFI21:
 1404              		.cfi_def_cfa_offset 8
 1405              		.cfi_offset 7, -8
 1406              		.cfi_offset 14, -4
 1407 0002 86B0     		sub	sp, sp, #24
 1408              	.LCFI22:
 1409              		.cfi_def_cfa_offset 32
ARM GAS  /tmp/cc5bMm9J.s 			page 41


 1410 0004 00AF     		add	r7, sp, #0
 1411              	.LCFI23:
 1412              		.cfi_def_cfa_register 7
 1413 0006 F860     		str	r0, [r7, #12]
 1414 0008 B960     		str	r1, [r7, #8]
 1415 000a 3B60     		str	r3, [r7]
 1416 000c 1346     		mov	r3, r2	@ movhi
 1417 000e FB80     		strh	r3, [r7, #6]	@ movhi
 884:Drivers/STM32F4xx_HAL_Driver/Src/stm32f4xx_hal_i2c.c ****   if(hi2c->State == HAL_I2C_STATE_READY)
 1418              		.loc 1 884 0
 1419 0010 FB68     		ldr	r3, [r7, #12]
 1420 0012 93F83530 		ldrb	r3, [r3, #53]
 1421 0016 DBB2     		uxtb	r3, r3
 1422 0018 012B     		cmp	r3, #1
 1423 001a 40F0A380 		bne	.L81
 885:Drivers/STM32F4xx_HAL_Driver/Src/stm32f4xx_hal_i2c.c ****   {
 886:Drivers/STM32F4xx_HAL_Driver/Src/stm32f4xx_hal_i2c.c ****     if((pData == NULL) || (Size == 0))
 1424              		.loc 1 886 0
 1425 001e BB68     		ldr	r3, [r7, #8]
 1426 0020 002B     		cmp	r3, #0
 1427 0022 02D0     		beq	.L82
 1428              		.loc 1 886 0 is_stmt 0 discriminator 1
 1429 0024 FB88     		ldrh	r3, [r7, #6]
 1430 0026 002B     		cmp	r3, #0
 1431 0028 01D1     		bne	.L83
 1432              	.L82:
 887:Drivers/STM32F4xx_HAL_Driver/Src/stm32f4xx_hal_i2c.c ****     {
 888:Drivers/STM32F4xx_HAL_Driver/Src/stm32f4xx_hal_i2c.c ****       return  HAL_ERROR;
 1433              		.loc 1 888 0 is_stmt 1
 1434 002a 0123     		movs	r3, #1
 1435 002c 9BE0     		b	.L84
 1436              	.L83:
 889:Drivers/STM32F4xx_HAL_Driver/Src/stm32f4xx_hal_i2c.c ****     }
 890:Drivers/STM32F4xx_HAL_Driver/Src/stm32f4xx_hal_i2c.c **** 
 891:Drivers/STM32F4xx_HAL_Driver/Src/stm32f4xx_hal_i2c.c ****     /* Wait until BUSY flag is reset */
 892:Drivers/STM32F4xx_HAL_Driver/Src/stm32f4xx_hal_i2c.c ****     if(I2C_WaitOnFlagUntilTimeout(hi2c, I2C_FLAG_BUSY, SET, I2C_TIMEOUT_BUSY_FLAG) != HAL_OK)
 1437              		.loc 1 892 0
 1438 002e F868     		ldr	r0, [r7, #12]
 1439 0030 4F49     		ldr	r1, .L92
 1440 0032 0122     		movs	r2, #1
 1441 0034 42F21073 		movw	r3, #10000
 1442 0038 FFF7FEFF 		bl	I2C_WaitOnFlagUntilTimeout
 1443 003c 0346     		mov	r3, r0
 1444 003e 002B     		cmp	r3, #0
 1445 0040 01D0     		beq	.L85
 893:Drivers/STM32F4xx_HAL_Driver/Src/stm32f4xx_hal_i2c.c ****     {
 894:Drivers/STM32F4xx_HAL_Driver/Src/stm32f4xx_hal_i2c.c ****       return HAL_BUSY;
 1446              		.loc 1 894 0
 1447 0042 0223     		movs	r3, #2
 1448 0044 8FE0     		b	.L84
 1449              	.L85:
 895:Drivers/STM32F4xx_HAL_Driver/Src/stm32f4xx_hal_i2c.c ****     }
 896:Drivers/STM32F4xx_HAL_Driver/Src/stm32f4xx_hal_i2c.c **** 
 897:Drivers/STM32F4xx_HAL_Driver/Src/stm32f4xx_hal_i2c.c ****     /* Process Locked */
 898:Drivers/STM32F4xx_HAL_Driver/Src/stm32f4xx_hal_i2c.c ****     __HAL_LOCK(hi2c);
 1450              		.loc 1 898 0
 1451 0046 FB68     		ldr	r3, [r7, #12]
ARM GAS  /tmp/cc5bMm9J.s 			page 42


 1452 0048 93F83430 		ldrb	r3, [r3, #52]	@ zero_extendqisi2
 1453 004c 012B     		cmp	r3, #1
 1454 004e 01D1     		bne	.L86
 1455              		.loc 1 898 0 is_stmt 0 discriminator 1
 1456 0050 0223     		movs	r3, #2
 1457 0052 88E0     		b	.L84
 1458              	.L86:
 1459              		.loc 1 898 0 discriminator 2
 1460 0054 FB68     		ldr	r3, [r7, #12]
 1461 0056 0122     		movs	r2, #1
 1462 0058 83F83420 		strb	r2, [r3, #52]
 899:Drivers/STM32F4xx_HAL_Driver/Src/stm32f4xx_hal_i2c.c ****     
 900:Drivers/STM32F4xx_HAL_Driver/Src/stm32f4xx_hal_i2c.c ****     /* Disable Pos */
 901:Drivers/STM32F4xx_HAL_Driver/Src/stm32f4xx_hal_i2c.c ****     hi2c->Instance->CR1 &= ~I2C_CR1_POS;
 1463              		.loc 1 901 0 is_stmt 1 discriminator 2
 1464 005c FB68     		ldr	r3, [r7, #12]
 1465 005e 1B68     		ldr	r3, [r3]
 1466 0060 FA68     		ldr	r2, [r7, #12]
 1467 0062 1268     		ldr	r2, [r2]
 1468 0064 1268     		ldr	r2, [r2]
 1469 0066 22F40062 		bic	r2, r2, #2048
 1470 006a 1A60     		str	r2, [r3]
 902:Drivers/STM32F4xx_HAL_Driver/Src/stm32f4xx_hal_i2c.c **** 
 903:Drivers/STM32F4xx_HAL_Driver/Src/stm32f4xx_hal_i2c.c ****     hi2c->State = HAL_I2C_STATE_BUSY_RX;
 1471              		.loc 1 903 0 discriminator 2
 1472 006c FB68     		ldr	r3, [r7, #12]
 1473 006e 2222     		movs	r2, #34
 1474 0070 83F83520 		strb	r2, [r3, #53]
 904:Drivers/STM32F4xx_HAL_Driver/Src/stm32f4xx_hal_i2c.c ****     hi2c->ErrorCode = HAL_I2C_ERROR_NONE;
 1475              		.loc 1 904 0 discriminator 2
 1476 0074 FB68     		ldr	r3, [r7, #12]
 1477 0076 0022     		movs	r2, #0
 1478 0078 9A63     		str	r2, [r3, #56]
 905:Drivers/STM32F4xx_HAL_Driver/Src/stm32f4xx_hal_i2c.c **** 
 906:Drivers/STM32F4xx_HAL_Driver/Src/stm32f4xx_hal_i2c.c ****     /* Enable Address Acknowledge */
 907:Drivers/STM32F4xx_HAL_Driver/Src/stm32f4xx_hal_i2c.c ****     hi2c->Instance->CR1 |= I2C_CR1_ACK;
 1479              		.loc 1 907 0 discriminator 2
 1480 007a FB68     		ldr	r3, [r7, #12]
 1481 007c 1B68     		ldr	r3, [r3]
 1482 007e FA68     		ldr	r2, [r7, #12]
 1483 0080 1268     		ldr	r2, [r2]
 1484 0082 1268     		ldr	r2, [r2]
 1485 0084 42F48062 		orr	r2, r2, #1024
 1486 0088 1A60     		str	r2, [r3]
 908:Drivers/STM32F4xx_HAL_Driver/Src/stm32f4xx_hal_i2c.c **** 
 909:Drivers/STM32F4xx_HAL_Driver/Src/stm32f4xx_hal_i2c.c ****     /* Wait until ADDR flag is set */
 910:Drivers/STM32F4xx_HAL_Driver/Src/stm32f4xx_hal_i2c.c ****     if(I2C_WaitOnFlagUntilTimeout(hi2c, I2C_FLAG_ADDR, RESET, Timeout) != HAL_OK)
 1487              		.loc 1 910 0 discriminator 2
 1488 008a F868     		ldr	r0, [r7, #12]
 1489 008c 3949     		ldr	r1, .L92+4
 1490 008e 0022     		movs	r2, #0
 1491 0090 3B68     		ldr	r3, [r7]
 1492 0092 FFF7FEFF 		bl	I2C_WaitOnFlagUntilTimeout
 1493 0096 0346     		mov	r3, r0
 1494 0098 002B     		cmp	r3, #0
 1495 009a 01D0     		beq	.L87
 911:Drivers/STM32F4xx_HAL_Driver/Src/stm32f4xx_hal_i2c.c ****     {
ARM GAS  /tmp/cc5bMm9J.s 			page 43


 912:Drivers/STM32F4xx_HAL_Driver/Src/stm32f4xx_hal_i2c.c ****       return HAL_TIMEOUT;
 1496              		.loc 1 912 0
 1497 009c 0323     		movs	r3, #3
 1498 009e 62E0     		b	.L84
 1499              	.L87:
 1500              	.LBB8:
 913:Drivers/STM32F4xx_HAL_Driver/Src/stm32f4xx_hal_i2c.c ****     }
 914:Drivers/STM32F4xx_HAL_Driver/Src/stm32f4xx_hal_i2c.c **** 
 915:Drivers/STM32F4xx_HAL_Driver/Src/stm32f4xx_hal_i2c.c ****     /* Clear ADDR flag */
 916:Drivers/STM32F4xx_HAL_Driver/Src/stm32f4xx_hal_i2c.c ****     __HAL_I2C_CLEAR_ADDRFLAG(hi2c);
 1501              		.loc 1 916 0
 1502 00a0 FB68     		ldr	r3, [r7, #12]
 1503 00a2 1B68     		ldr	r3, [r3]
 1504 00a4 5B69     		ldr	r3, [r3, #20]
 1505 00a6 7B61     		str	r3, [r7, #20]
 1506 00a8 FB68     		ldr	r3, [r7, #12]
 1507 00aa 1B68     		ldr	r3, [r3]
 1508 00ac 9B69     		ldr	r3, [r3, #24]
 1509 00ae 7B61     		str	r3, [r7, #20]
 1510 00b0 7B69     		ldr	r3, [r7, #20]
 1511              	.LBE8:
 917:Drivers/STM32F4xx_HAL_Driver/Src/stm32f4xx_hal_i2c.c **** 
 918:Drivers/STM32F4xx_HAL_Driver/Src/stm32f4xx_hal_i2c.c ****     while(Size > 0)
 1512              		.loc 1 918 0
 1513 00b2 2AE0     		b	.L88
 1514              	.L90:
 919:Drivers/STM32F4xx_HAL_Driver/Src/stm32f4xx_hal_i2c.c ****     {
 920:Drivers/STM32F4xx_HAL_Driver/Src/stm32f4xx_hal_i2c.c ****       /* Wait until RXNE flag is set */
 921:Drivers/STM32F4xx_HAL_Driver/Src/stm32f4xx_hal_i2c.c ****       if(I2C_WaitOnFlagUntilTimeout(hi2c, I2C_FLAG_RXNE, RESET, Timeout) != HAL_OK)
 1515              		.loc 1 921 0
 1516 00b4 F868     		ldr	r0, [r7, #12]
 1517 00b6 3049     		ldr	r1, .L92+8
 1518 00b8 0022     		movs	r2, #0
 1519 00ba 3B68     		ldr	r3, [r7]
 1520 00bc FFF7FEFF 		bl	I2C_WaitOnFlagUntilTimeout
 1521 00c0 0346     		mov	r3, r0
 1522 00c2 002B     		cmp	r3, #0
 1523 00c4 01D0     		beq	.L89
 922:Drivers/STM32F4xx_HAL_Driver/Src/stm32f4xx_hal_i2c.c ****       {
 923:Drivers/STM32F4xx_HAL_Driver/Src/stm32f4xx_hal_i2c.c ****         return HAL_TIMEOUT;
 1524              		.loc 1 923 0
 1525 00c6 0323     		movs	r3, #3
 1526 00c8 4DE0     		b	.L84
 1527              	.L89:
 924:Drivers/STM32F4xx_HAL_Driver/Src/stm32f4xx_hal_i2c.c ****       }
 925:Drivers/STM32F4xx_HAL_Driver/Src/stm32f4xx_hal_i2c.c **** 
 926:Drivers/STM32F4xx_HAL_Driver/Src/stm32f4xx_hal_i2c.c ****       /* Read data from DR */
 927:Drivers/STM32F4xx_HAL_Driver/Src/stm32f4xx_hal_i2c.c ****       (*pData++) = hi2c->Instance->DR;
 1528              		.loc 1 927 0
 1529 00ca BB68     		ldr	r3, [r7, #8]
 1530 00cc 5A1C     		adds	r2, r3, #1
 1531 00ce BA60     		str	r2, [r7, #8]
 1532 00d0 FA68     		ldr	r2, [r7, #12]
 1533 00d2 1268     		ldr	r2, [r2]
 1534 00d4 1269     		ldr	r2, [r2, #16]
 1535 00d6 D2B2     		uxtb	r2, r2
 1536 00d8 1A70     		strb	r2, [r3]
ARM GAS  /tmp/cc5bMm9J.s 			page 44


 928:Drivers/STM32F4xx_HAL_Driver/Src/stm32f4xx_hal_i2c.c ****       Size--;
 1537              		.loc 1 928 0
 1538 00da FB88     		ldrh	r3, [r7, #6]
 1539 00dc 013B     		subs	r3, r3, #1
 1540 00de FB80     		strh	r3, [r7, #6]	@ movhi
 929:Drivers/STM32F4xx_HAL_Driver/Src/stm32f4xx_hal_i2c.c **** 
 930:Drivers/STM32F4xx_HAL_Driver/Src/stm32f4xx_hal_i2c.c ****       if((__HAL_I2C_GET_FLAG(hi2c, I2C_FLAG_BTF) == SET) && (Size != 0))
 1541              		.loc 1 930 0
 1542 00e0 FB68     		ldr	r3, [r7, #12]
 1543 00e2 1B68     		ldr	r3, [r3]
 1544 00e4 5B69     		ldr	r3, [r3, #20]
 1545 00e6 03F00403 		and	r3, r3, #4
 1546 00ea 002B     		cmp	r3, #0
 1547 00ec 0DD0     		beq	.L88
 1548              		.loc 1 930 0 is_stmt 0 discriminator 1
 1549 00ee FB88     		ldrh	r3, [r7, #6]
 1550 00f0 002B     		cmp	r3, #0
 1551 00f2 0AD0     		beq	.L88
 931:Drivers/STM32F4xx_HAL_Driver/Src/stm32f4xx_hal_i2c.c ****       {
 932:Drivers/STM32F4xx_HAL_Driver/Src/stm32f4xx_hal_i2c.c ****         /* Read data from DR */
 933:Drivers/STM32F4xx_HAL_Driver/Src/stm32f4xx_hal_i2c.c ****         (*pData++) = hi2c->Instance->DR;
 1552              		.loc 1 933 0 is_stmt 1
 1553 00f4 BB68     		ldr	r3, [r7, #8]
 1554 00f6 5A1C     		adds	r2, r3, #1
 1555 00f8 BA60     		str	r2, [r7, #8]
 1556 00fa FA68     		ldr	r2, [r7, #12]
 1557 00fc 1268     		ldr	r2, [r2]
 1558 00fe 1269     		ldr	r2, [r2, #16]
 1559 0100 D2B2     		uxtb	r2, r2
 1560 0102 1A70     		strb	r2, [r3]
 934:Drivers/STM32F4xx_HAL_Driver/Src/stm32f4xx_hal_i2c.c ****         Size--;
 1561              		.loc 1 934 0
 1562 0104 FB88     		ldrh	r3, [r7, #6]
 1563 0106 013B     		subs	r3, r3, #1
 1564 0108 FB80     		strh	r3, [r7, #6]	@ movhi
 1565              	.L88:
 918:Drivers/STM32F4xx_HAL_Driver/Src/stm32f4xx_hal_i2c.c ****     {
 1566              		.loc 1 918 0 discriminator 1
 1567 010a FB88     		ldrh	r3, [r7, #6]
 1568 010c 002B     		cmp	r3, #0
 1569 010e D1D1     		bne	.L90
 935:Drivers/STM32F4xx_HAL_Driver/Src/stm32f4xx_hal_i2c.c ****       }
 936:Drivers/STM32F4xx_HAL_Driver/Src/stm32f4xx_hal_i2c.c ****     }
 937:Drivers/STM32F4xx_HAL_Driver/Src/stm32f4xx_hal_i2c.c **** 
 938:Drivers/STM32F4xx_HAL_Driver/Src/stm32f4xx_hal_i2c.c ****     /* Wait until STOP flag is set */
 939:Drivers/STM32F4xx_HAL_Driver/Src/stm32f4xx_hal_i2c.c ****     if(I2C_WaitOnFlagUntilTimeout(hi2c, I2C_FLAG_STOPF, RESET, Timeout) != HAL_OK)
 1570              		.loc 1 939 0
 1571 0110 F868     		ldr	r0, [r7, #12]
 1572 0112 1A49     		ldr	r1, .L92+12
 1573 0114 0022     		movs	r2, #0
 1574 0116 3B68     		ldr	r3, [r7]
 1575 0118 FFF7FEFF 		bl	I2C_WaitOnFlagUntilTimeout
 1576 011c 0346     		mov	r3, r0
 1577 011e 002B     		cmp	r3, #0
 1578 0120 01D0     		beq	.L91
 940:Drivers/STM32F4xx_HAL_Driver/Src/stm32f4xx_hal_i2c.c ****     {
 941:Drivers/STM32F4xx_HAL_Driver/Src/stm32f4xx_hal_i2c.c ****       return HAL_TIMEOUT;
ARM GAS  /tmp/cc5bMm9J.s 			page 45


 1579              		.loc 1 941 0
 1580 0122 0323     		movs	r3, #3
 1581 0124 1FE0     		b	.L84
 1582              	.L91:
 1583              	.LBB9:
 942:Drivers/STM32F4xx_HAL_Driver/Src/stm32f4xx_hal_i2c.c ****     }
 943:Drivers/STM32F4xx_HAL_Driver/Src/stm32f4xx_hal_i2c.c **** 
 944:Drivers/STM32F4xx_HAL_Driver/Src/stm32f4xx_hal_i2c.c ****     /* Clear STOP flag */
 945:Drivers/STM32F4xx_HAL_Driver/Src/stm32f4xx_hal_i2c.c ****     __HAL_I2C_CLEAR_STOPFLAG(hi2c);
 1584              		.loc 1 945 0
 1585 0126 FB68     		ldr	r3, [r7, #12]
 1586 0128 1B68     		ldr	r3, [r3]
 1587 012a 5B69     		ldr	r3, [r3, #20]
 1588 012c 3B61     		str	r3, [r7, #16]
 1589 012e FB68     		ldr	r3, [r7, #12]
 1590 0130 1B68     		ldr	r3, [r3]
 1591 0132 FA68     		ldr	r2, [r7, #12]
 1592 0134 1268     		ldr	r2, [r2]
 1593 0136 1268     		ldr	r2, [r2]
 1594 0138 42F00102 		orr	r2, r2, #1
 1595 013c 1A60     		str	r2, [r3]
 1596 013e 3B69     		ldr	r3, [r7, #16]
 1597              	.LBE9:
 946:Drivers/STM32F4xx_HAL_Driver/Src/stm32f4xx_hal_i2c.c **** 
 947:Drivers/STM32F4xx_HAL_Driver/Src/stm32f4xx_hal_i2c.c ****     /* Disable Address Acknowledge */
 948:Drivers/STM32F4xx_HAL_Driver/Src/stm32f4xx_hal_i2c.c ****     hi2c->Instance->CR1 &= ~I2C_CR1_ACK;
 1598              		.loc 1 948 0
 1599 0140 FB68     		ldr	r3, [r7, #12]
 1600 0142 1B68     		ldr	r3, [r3]
 1601 0144 FA68     		ldr	r2, [r7, #12]
 1602 0146 1268     		ldr	r2, [r2]
 1603 0148 1268     		ldr	r2, [r2]
 1604 014a 22F48062 		bic	r2, r2, #1024
 1605 014e 1A60     		str	r2, [r3]
 949:Drivers/STM32F4xx_HAL_Driver/Src/stm32f4xx_hal_i2c.c **** 
 950:Drivers/STM32F4xx_HAL_Driver/Src/stm32f4xx_hal_i2c.c ****     hi2c->State = HAL_I2C_STATE_READY;
 1606              		.loc 1 950 0
 1607 0150 FB68     		ldr	r3, [r7, #12]
 1608 0152 0122     		movs	r2, #1
 1609 0154 83F83520 		strb	r2, [r3, #53]
 951:Drivers/STM32F4xx_HAL_Driver/Src/stm32f4xx_hal_i2c.c **** 
 952:Drivers/STM32F4xx_HAL_Driver/Src/stm32f4xx_hal_i2c.c ****     /* Process Unlocked */
 953:Drivers/STM32F4xx_HAL_Driver/Src/stm32f4xx_hal_i2c.c ****     __HAL_UNLOCK(hi2c);
 1610              		.loc 1 953 0
 1611 0158 FB68     		ldr	r3, [r7, #12]
 1612 015a 0022     		movs	r2, #0
 1613 015c 83F83420 		strb	r2, [r3, #52]
 954:Drivers/STM32F4xx_HAL_Driver/Src/stm32f4xx_hal_i2c.c **** 
 955:Drivers/STM32F4xx_HAL_Driver/Src/stm32f4xx_hal_i2c.c ****     return HAL_OK;
 1614              		.loc 1 955 0
 1615 0160 0023     		movs	r3, #0
 1616 0162 00E0     		b	.L84
 1617              	.L81:
 956:Drivers/STM32F4xx_HAL_Driver/Src/stm32f4xx_hal_i2c.c ****   }
 957:Drivers/STM32F4xx_HAL_Driver/Src/stm32f4xx_hal_i2c.c ****   else
 958:Drivers/STM32F4xx_HAL_Driver/Src/stm32f4xx_hal_i2c.c ****   {
 959:Drivers/STM32F4xx_HAL_Driver/Src/stm32f4xx_hal_i2c.c ****     return HAL_BUSY;
ARM GAS  /tmp/cc5bMm9J.s 			page 46


 1618              		.loc 1 959 0
 1619 0164 0223     		movs	r3, #2
 1620              	.L84:
 960:Drivers/STM32F4xx_HAL_Driver/Src/stm32f4xx_hal_i2c.c ****   }
 961:Drivers/STM32F4xx_HAL_Driver/Src/stm32f4xx_hal_i2c.c **** }
 1621              		.loc 1 961 0
 1622 0166 1846     		mov	r0, r3
 1623 0168 1837     		adds	r7, r7, #24
 1624 016a BD46     		mov	sp, r7
 1625              		@ sp needed
 1626 016c 80BD     		pop	{r7, pc}
 1627              	.L93:
 1628 016e 00BF     		.align	2
 1629              	.L92:
 1630 0170 02001000 		.word	1048578
 1631 0174 02000100 		.word	65538
 1632 0178 40000100 		.word	65600
 1633 017c 10000100 		.word	65552
 1634              		.cfi_endproc
 1635              	.LFE132:
 1637              		.section	.text.HAL_I2C_Master_Transmit_IT,"ax",%progbits
 1638              		.align	2
 1639              		.global	HAL_I2C_Master_Transmit_IT
 1640              		.thumb
 1641              		.thumb_func
 1643              	HAL_I2C_Master_Transmit_IT:
 1644              	.LFB133:
 962:Drivers/STM32F4xx_HAL_Driver/Src/stm32f4xx_hal_i2c.c **** 
 963:Drivers/STM32F4xx_HAL_Driver/Src/stm32f4xx_hal_i2c.c **** /**
 964:Drivers/STM32F4xx_HAL_Driver/Src/stm32f4xx_hal_i2c.c ****   * @brief  Transmit in master mode an amount of data in no-blocking mode with Interrupt
 965:Drivers/STM32F4xx_HAL_Driver/Src/stm32f4xx_hal_i2c.c ****   * @param  hi2c: pointer to a I2C_HandleTypeDef structure that contains
 966:Drivers/STM32F4xx_HAL_Driver/Src/stm32f4xx_hal_i2c.c ****   *         the configuration information for I2C module
 967:Drivers/STM32F4xx_HAL_Driver/Src/stm32f4xx_hal_i2c.c ****   * @param  DevAddress: Target device address
 968:Drivers/STM32F4xx_HAL_Driver/Src/stm32f4xx_hal_i2c.c ****   * @param  pData: Pointer to data buffer
 969:Drivers/STM32F4xx_HAL_Driver/Src/stm32f4xx_hal_i2c.c ****   * @param  Size: Amount of data to be sent
 970:Drivers/STM32F4xx_HAL_Driver/Src/stm32f4xx_hal_i2c.c ****   * @retval HAL status
 971:Drivers/STM32F4xx_HAL_Driver/Src/stm32f4xx_hal_i2c.c ****   */
 972:Drivers/STM32F4xx_HAL_Driver/Src/stm32f4xx_hal_i2c.c **** HAL_StatusTypeDef HAL_I2C_Master_Transmit_IT(I2C_HandleTypeDef *hi2c, uint16_t DevAddress, uint8_t 
 973:Drivers/STM32F4xx_HAL_Driver/Src/stm32f4xx_hal_i2c.c **** {
 1645              		.loc 1 973 0
 1646              		.cfi_startproc
 1647              		@ args = 0, pretend = 0, frame = 24
 1648              		@ frame_needed = 1, uses_anonymous_args = 0
 1649 0000 80B5     		push	{r7, lr}
 1650              	.LCFI24:
 1651              		.cfi_def_cfa_offset 8
 1652              		.cfi_offset 7, -8
 1653              		.cfi_offset 14, -4
 1654 0002 86B0     		sub	sp, sp, #24
 1655              	.LCFI25:
 1656              		.cfi_def_cfa_offset 32
 1657 0004 00AF     		add	r7, sp, #0
 1658              	.LCFI26:
 1659              		.cfi_def_cfa_register 7
 1660 0006 F860     		str	r0, [r7, #12]
 1661 0008 7A60     		str	r2, [r7, #4]
 1662 000a 0A46     		mov	r2, r1	@ movhi
ARM GAS  /tmp/cc5bMm9J.s 			page 47


 1663 000c 7A81     		strh	r2, [r7, #10]	@ movhi
 1664 000e 3B81     		strh	r3, [r7, #8]	@ movhi
 974:Drivers/STM32F4xx_HAL_Driver/Src/stm32f4xx_hal_i2c.c ****   if(hi2c->State == HAL_I2C_STATE_READY)
 1665              		.loc 1 974 0
 1666 0010 FB68     		ldr	r3, [r7, #12]
 1667 0012 93F83530 		ldrb	r3, [r3, #53]
 1668 0016 DBB2     		uxtb	r3, r3
 1669 0018 012B     		cmp	r3, #1
 1670 001a 66D1     		bne	.L95
 975:Drivers/STM32F4xx_HAL_Driver/Src/stm32f4xx_hal_i2c.c ****   {
 976:Drivers/STM32F4xx_HAL_Driver/Src/stm32f4xx_hal_i2c.c ****     if((pData == NULL) || (Size == 0))
 1671              		.loc 1 976 0
 1672 001c 7B68     		ldr	r3, [r7, #4]
 1673 001e 002B     		cmp	r3, #0
 1674 0020 02D0     		beq	.L96
 1675              		.loc 1 976 0 is_stmt 0 discriminator 1
 1676 0022 3B89     		ldrh	r3, [r7, #8]
 1677 0024 002B     		cmp	r3, #0
 1678 0026 01D1     		bne	.L97
 1679              	.L96:
 977:Drivers/STM32F4xx_HAL_Driver/Src/stm32f4xx_hal_i2c.c ****     {
 978:Drivers/STM32F4xx_HAL_Driver/Src/stm32f4xx_hal_i2c.c ****       return  HAL_ERROR;
 1680              		.loc 1 978 0 is_stmt 1
 1681 0028 0123     		movs	r3, #1
 1682 002a 5FE0     		b	.L98
 1683              	.L97:
 979:Drivers/STM32F4xx_HAL_Driver/Src/stm32f4xx_hal_i2c.c ****     }
 980:Drivers/STM32F4xx_HAL_Driver/Src/stm32f4xx_hal_i2c.c **** 
 981:Drivers/STM32F4xx_HAL_Driver/Src/stm32f4xx_hal_i2c.c ****     /* Wait until BUSY flag is reset */
 982:Drivers/STM32F4xx_HAL_Driver/Src/stm32f4xx_hal_i2c.c ****     if(I2C_WaitOnFlagUntilTimeout(hi2c, I2C_FLAG_BUSY, SET, I2C_TIMEOUT_BUSY_FLAG) != HAL_OK)
 1684              		.loc 1 982 0
 1685 002c F868     		ldr	r0, [r7, #12]
 1686 002e 3149     		ldr	r1, .L103
 1687 0030 0122     		movs	r2, #1
 1688 0032 42F21073 		movw	r3, #10000
 1689 0036 FFF7FEFF 		bl	I2C_WaitOnFlagUntilTimeout
 1690 003a 0346     		mov	r3, r0
 1691 003c 002B     		cmp	r3, #0
 1692 003e 01D0     		beq	.L99
 983:Drivers/STM32F4xx_HAL_Driver/Src/stm32f4xx_hal_i2c.c ****     {
 984:Drivers/STM32F4xx_HAL_Driver/Src/stm32f4xx_hal_i2c.c ****       return HAL_BUSY;
 1693              		.loc 1 984 0
 1694 0040 0223     		movs	r3, #2
 1695 0042 53E0     		b	.L98
 1696              	.L99:
 985:Drivers/STM32F4xx_HAL_Driver/Src/stm32f4xx_hal_i2c.c ****     }
 986:Drivers/STM32F4xx_HAL_Driver/Src/stm32f4xx_hal_i2c.c **** 
 987:Drivers/STM32F4xx_HAL_Driver/Src/stm32f4xx_hal_i2c.c ****     /* Process Locked */
 988:Drivers/STM32F4xx_HAL_Driver/Src/stm32f4xx_hal_i2c.c ****     __HAL_LOCK(hi2c);
 1697              		.loc 1 988 0
 1698 0044 FB68     		ldr	r3, [r7, #12]
 1699 0046 93F83430 		ldrb	r3, [r3, #52]	@ zero_extendqisi2
 1700 004a 012B     		cmp	r3, #1
 1701 004c 01D1     		bne	.L100
 1702              		.loc 1 988 0 is_stmt 0 discriminator 1
 1703 004e 0223     		movs	r3, #2
 1704 0050 4CE0     		b	.L98
ARM GAS  /tmp/cc5bMm9J.s 			page 48


 1705              	.L100:
 1706              		.loc 1 988 0 discriminator 2
 1707 0052 FB68     		ldr	r3, [r7, #12]
 1708 0054 0122     		movs	r2, #1
 1709 0056 83F83420 		strb	r2, [r3, #52]
 989:Drivers/STM32F4xx_HAL_Driver/Src/stm32f4xx_hal_i2c.c ****     
 990:Drivers/STM32F4xx_HAL_Driver/Src/stm32f4xx_hal_i2c.c ****     /* Disable Pos */
 991:Drivers/STM32F4xx_HAL_Driver/Src/stm32f4xx_hal_i2c.c ****     hi2c->Instance->CR1 &= ~I2C_CR1_POS;
 1710              		.loc 1 991 0 is_stmt 1 discriminator 2
 1711 005a FB68     		ldr	r3, [r7, #12]
 1712 005c 1B68     		ldr	r3, [r3]
 1713 005e FA68     		ldr	r2, [r7, #12]
 1714 0060 1268     		ldr	r2, [r2]
 1715 0062 1268     		ldr	r2, [r2]
 1716 0064 22F40062 		bic	r2, r2, #2048
 1717 0068 1A60     		str	r2, [r3]
 992:Drivers/STM32F4xx_HAL_Driver/Src/stm32f4xx_hal_i2c.c **** 
 993:Drivers/STM32F4xx_HAL_Driver/Src/stm32f4xx_hal_i2c.c ****     hi2c->State = HAL_I2C_STATE_BUSY_TX;
 1718              		.loc 1 993 0 discriminator 2
 1719 006a FB68     		ldr	r3, [r7, #12]
 1720 006c 1222     		movs	r2, #18
 1721 006e 83F83520 		strb	r2, [r3, #53]
 994:Drivers/STM32F4xx_HAL_Driver/Src/stm32f4xx_hal_i2c.c ****     hi2c->ErrorCode = HAL_I2C_ERROR_NONE;
 1722              		.loc 1 994 0 discriminator 2
 1723 0072 FB68     		ldr	r3, [r7, #12]
 1724 0074 0022     		movs	r2, #0
 1725 0076 9A63     		str	r2, [r3, #56]
 995:Drivers/STM32F4xx_HAL_Driver/Src/stm32f4xx_hal_i2c.c **** 
 996:Drivers/STM32F4xx_HAL_Driver/Src/stm32f4xx_hal_i2c.c ****     hi2c->pBuffPtr = pData;
 1726              		.loc 1 996 0 discriminator 2
 1727 0078 FB68     		ldr	r3, [r7, #12]
 1728 007a 7A68     		ldr	r2, [r7, #4]
 1729 007c 5A62     		str	r2, [r3, #36]
 997:Drivers/STM32F4xx_HAL_Driver/Src/stm32f4xx_hal_i2c.c ****     hi2c->XferSize = Size;
 1730              		.loc 1 997 0 discriminator 2
 1731 007e FB68     		ldr	r3, [r7, #12]
 1732 0080 3A89     		ldrh	r2, [r7, #8]	@ movhi
 1733 0082 1A85     		strh	r2, [r3, #40]	@ movhi
 998:Drivers/STM32F4xx_HAL_Driver/Src/stm32f4xx_hal_i2c.c ****     hi2c->XferCount = Size;
 1734              		.loc 1 998 0 discriminator 2
 1735 0084 FB68     		ldr	r3, [r7, #12]
 1736 0086 3A89     		ldrh	r2, [r7, #8]	@ movhi
 1737 0088 5A85     		strh	r2, [r3, #42]	@ movhi
 999:Drivers/STM32F4xx_HAL_Driver/Src/stm32f4xx_hal_i2c.c **** 
1000:Drivers/STM32F4xx_HAL_Driver/Src/stm32f4xx_hal_i2c.c ****     /* Send Slave Address */
1001:Drivers/STM32F4xx_HAL_Driver/Src/stm32f4xx_hal_i2c.c ****     if(I2C_MasterRequestWrite(hi2c, DevAddress, I2C_TIMEOUT_FLAG) != HAL_OK)
 1738              		.loc 1 1001 0 discriminator 2
 1739 008a 7B89     		ldrh	r3, [r7, #10]
 1740 008c F868     		ldr	r0, [r7, #12]
 1741 008e 1946     		mov	r1, r3
 1742 0090 2322     		movs	r2, #35
 1743 0092 FFF7FEFF 		bl	I2C_MasterRequestWrite
 1744 0096 0346     		mov	r3, r0
 1745 0098 002B     		cmp	r3, #0
 1746 009a 0FD0     		beq	.L101
1002:Drivers/STM32F4xx_HAL_Driver/Src/stm32f4xx_hal_i2c.c ****     {
1003:Drivers/STM32F4xx_HAL_Driver/Src/stm32f4xx_hal_i2c.c ****       if(hi2c->ErrorCode == HAL_I2C_ERROR_AF)
ARM GAS  /tmp/cc5bMm9J.s 			page 49


 1747              		.loc 1 1003 0
 1748 009c FB68     		ldr	r3, [r7, #12]
 1749 009e 9B6B     		ldr	r3, [r3, #56]
 1750 00a0 042B     		cmp	r3, #4
 1751 00a2 05D1     		bne	.L102
1004:Drivers/STM32F4xx_HAL_Driver/Src/stm32f4xx_hal_i2c.c ****       {
1005:Drivers/STM32F4xx_HAL_Driver/Src/stm32f4xx_hal_i2c.c ****         /* Process Unlocked */
1006:Drivers/STM32F4xx_HAL_Driver/Src/stm32f4xx_hal_i2c.c ****         __HAL_UNLOCK(hi2c);
 1752              		.loc 1 1006 0
 1753 00a4 FB68     		ldr	r3, [r7, #12]
 1754 00a6 0022     		movs	r2, #0
 1755 00a8 83F83420 		strb	r2, [r3, #52]
1007:Drivers/STM32F4xx_HAL_Driver/Src/stm32f4xx_hal_i2c.c ****         return HAL_ERROR;
 1756              		.loc 1 1007 0
 1757 00ac 0123     		movs	r3, #1
 1758 00ae 1DE0     		b	.L98
 1759              	.L102:
1008:Drivers/STM32F4xx_HAL_Driver/Src/stm32f4xx_hal_i2c.c ****       }
1009:Drivers/STM32F4xx_HAL_Driver/Src/stm32f4xx_hal_i2c.c ****       else
1010:Drivers/STM32F4xx_HAL_Driver/Src/stm32f4xx_hal_i2c.c ****       {
1011:Drivers/STM32F4xx_HAL_Driver/Src/stm32f4xx_hal_i2c.c ****         /* Process Unlocked */
1012:Drivers/STM32F4xx_HAL_Driver/Src/stm32f4xx_hal_i2c.c ****         __HAL_UNLOCK(hi2c);
 1760              		.loc 1 1012 0
 1761 00b0 FB68     		ldr	r3, [r7, #12]
 1762 00b2 0022     		movs	r2, #0
 1763 00b4 83F83420 		strb	r2, [r3, #52]
1013:Drivers/STM32F4xx_HAL_Driver/Src/stm32f4xx_hal_i2c.c ****         return HAL_TIMEOUT;
 1764              		.loc 1 1013 0
 1765 00b8 0323     		movs	r3, #3
 1766 00ba 17E0     		b	.L98
 1767              	.L101:
 1768              	.LBB10:
1014:Drivers/STM32F4xx_HAL_Driver/Src/stm32f4xx_hal_i2c.c ****       }
1015:Drivers/STM32F4xx_HAL_Driver/Src/stm32f4xx_hal_i2c.c ****     }
1016:Drivers/STM32F4xx_HAL_Driver/Src/stm32f4xx_hal_i2c.c **** 
1017:Drivers/STM32F4xx_HAL_Driver/Src/stm32f4xx_hal_i2c.c ****     /* Clear ADDR flag */
1018:Drivers/STM32F4xx_HAL_Driver/Src/stm32f4xx_hal_i2c.c ****     __HAL_I2C_CLEAR_ADDRFLAG(hi2c);
 1769              		.loc 1 1018 0
 1770 00bc FB68     		ldr	r3, [r7, #12]
 1771 00be 1B68     		ldr	r3, [r3]
 1772 00c0 5B69     		ldr	r3, [r3, #20]
 1773 00c2 7B61     		str	r3, [r7, #20]
 1774 00c4 FB68     		ldr	r3, [r7, #12]
 1775 00c6 1B68     		ldr	r3, [r3]
 1776 00c8 9B69     		ldr	r3, [r3, #24]
 1777 00ca 7B61     		str	r3, [r7, #20]
 1778 00cc 7B69     		ldr	r3, [r7, #20]
 1779              	.LBE10:
1019:Drivers/STM32F4xx_HAL_Driver/Src/stm32f4xx_hal_i2c.c **** 
1020:Drivers/STM32F4xx_HAL_Driver/Src/stm32f4xx_hal_i2c.c ****     /* Process Unlocked */
1021:Drivers/STM32F4xx_HAL_Driver/Src/stm32f4xx_hal_i2c.c ****     __HAL_UNLOCK(hi2c);
 1780              		.loc 1 1021 0
 1781 00ce FB68     		ldr	r3, [r7, #12]
 1782 00d0 0022     		movs	r2, #0
 1783 00d2 83F83420 		strb	r2, [r3, #52]
1022:Drivers/STM32F4xx_HAL_Driver/Src/stm32f4xx_hal_i2c.c **** 
1023:Drivers/STM32F4xx_HAL_Driver/Src/stm32f4xx_hal_i2c.c ****     /* Note : The I2C interrupts must be enabled after unlocking current process
ARM GAS  /tmp/cc5bMm9J.s 			page 50


1024:Drivers/STM32F4xx_HAL_Driver/Src/stm32f4xx_hal_i2c.c ****               to avoid the risk of I2C interrupt handle execution before current
1025:Drivers/STM32F4xx_HAL_Driver/Src/stm32f4xx_hal_i2c.c ****               process unlock */
1026:Drivers/STM32F4xx_HAL_Driver/Src/stm32f4xx_hal_i2c.c **** 
1027:Drivers/STM32F4xx_HAL_Driver/Src/stm32f4xx_hal_i2c.c ****     /* Enable EVT, BUF and ERR interrupt */
1028:Drivers/STM32F4xx_HAL_Driver/Src/stm32f4xx_hal_i2c.c ****     __HAL_I2C_ENABLE_IT(hi2c, I2C_IT_EVT | I2C_IT_BUF | I2C_IT_ERR);
 1784              		.loc 1 1028 0
 1785 00d6 FB68     		ldr	r3, [r7, #12]
 1786 00d8 1B68     		ldr	r3, [r3]
 1787 00da FA68     		ldr	r2, [r7, #12]
 1788 00dc 1268     		ldr	r2, [r2]
 1789 00de 5268     		ldr	r2, [r2, #4]
 1790 00e0 42F4E062 		orr	r2, r2, #1792
 1791 00e4 5A60     		str	r2, [r3, #4]
1029:Drivers/STM32F4xx_HAL_Driver/Src/stm32f4xx_hal_i2c.c **** 
1030:Drivers/STM32F4xx_HAL_Driver/Src/stm32f4xx_hal_i2c.c ****     return HAL_OK;
 1792              		.loc 1 1030 0
 1793 00e6 0023     		movs	r3, #0
 1794 00e8 00E0     		b	.L98
 1795              	.L95:
1031:Drivers/STM32F4xx_HAL_Driver/Src/stm32f4xx_hal_i2c.c ****   }
1032:Drivers/STM32F4xx_HAL_Driver/Src/stm32f4xx_hal_i2c.c ****   else
1033:Drivers/STM32F4xx_HAL_Driver/Src/stm32f4xx_hal_i2c.c ****   {
1034:Drivers/STM32F4xx_HAL_Driver/Src/stm32f4xx_hal_i2c.c ****     return HAL_BUSY;
 1796              		.loc 1 1034 0
 1797 00ea 0223     		movs	r3, #2
 1798              	.L98:
1035:Drivers/STM32F4xx_HAL_Driver/Src/stm32f4xx_hal_i2c.c ****   }
1036:Drivers/STM32F4xx_HAL_Driver/Src/stm32f4xx_hal_i2c.c **** }
 1799              		.loc 1 1036 0
 1800 00ec 1846     		mov	r0, r3
 1801 00ee 1837     		adds	r7, r7, #24
 1802 00f0 BD46     		mov	sp, r7
 1803              		@ sp needed
 1804 00f2 80BD     		pop	{r7, pc}
 1805              	.L104:
 1806              		.align	2
 1807              	.L103:
 1808 00f4 02001000 		.word	1048578
 1809              		.cfi_endproc
 1810              	.LFE133:
 1812              		.section	.text.HAL_I2C_Master_Receive_IT,"ax",%progbits
 1813              		.align	2
 1814              		.global	HAL_I2C_Master_Receive_IT
 1815              		.thumb
 1816              		.thumb_func
 1818              	HAL_I2C_Master_Receive_IT:
 1819              	.LFB134:
1037:Drivers/STM32F4xx_HAL_Driver/Src/stm32f4xx_hal_i2c.c **** 
1038:Drivers/STM32F4xx_HAL_Driver/Src/stm32f4xx_hal_i2c.c **** /**
1039:Drivers/STM32F4xx_HAL_Driver/Src/stm32f4xx_hal_i2c.c ****   * @brief  Receive in master mode an amount of data in no-blocking mode with Interrupt
1040:Drivers/STM32F4xx_HAL_Driver/Src/stm32f4xx_hal_i2c.c ****   * @param  hi2c: pointer to a I2C_HandleTypeDef structure that contains
1041:Drivers/STM32F4xx_HAL_Driver/Src/stm32f4xx_hal_i2c.c ****   *         the configuration information for I2C module
1042:Drivers/STM32F4xx_HAL_Driver/Src/stm32f4xx_hal_i2c.c ****   * @param  DevAddress: Target device address
1043:Drivers/STM32F4xx_HAL_Driver/Src/stm32f4xx_hal_i2c.c ****   * @param  pData: Pointer to data buffer
1044:Drivers/STM32F4xx_HAL_Driver/Src/stm32f4xx_hal_i2c.c ****   * @param  Size: Amount of data to be sent
1045:Drivers/STM32F4xx_HAL_Driver/Src/stm32f4xx_hal_i2c.c ****   * @retval HAL status
1046:Drivers/STM32F4xx_HAL_Driver/Src/stm32f4xx_hal_i2c.c ****   */
ARM GAS  /tmp/cc5bMm9J.s 			page 51


1047:Drivers/STM32F4xx_HAL_Driver/Src/stm32f4xx_hal_i2c.c **** HAL_StatusTypeDef HAL_I2C_Master_Receive_IT(I2C_HandleTypeDef *hi2c, uint16_t DevAddress, uint8_t *
1048:Drivers/STM32F4xx_HAL_Driver/Src/stm32f4xx_hal_i2c.c **** {
 1820              		.loc 1 1048 0
 1821              		.cfi_startproc
 1822              		@ args = 0, pretend = 0, frame = 32
 1823              		@ frame_needed = 1, uses_anonymous_args = 0
 1824 0000 80B5     		push	{r7, lr}
 1825              	.LCFI27:
 1826              		.cfi_def_cfa_offset 8
 1827              		.cfi_offset 7, -8
 1828              		.cfi_offset 14, -4
 1829 0002 88B0     		sub	sp, sp, #32
 1830              	.LCFI28:
 1831              		.cfi_def_cfa_offset 40
 1832 0004 00AF     		add	r7, sp, #0
 1833              	.LCFI29:
 1834              		.cfi_def_cfa_register 7
 1835 0006 F860     		str	r0, [r7, #12]
 1836 0008 7A60     		str	r2, [r7, #4]
 1837 000a 0A46     		mov	r2, r1	@ movhi
 1838 000c 7A81     		strh	r2, [r7, #10]	@ movhi
 1839 000e 3B81     		strh	r3, [r7, #8]	@ movhi
1049:Drivers/STM32F4xx_HAL_Driver/Src/stm32f4xx_hal_i2c.c ****   if(hi2c->State == HAL_I2C_STATE_READY)
 1840              		.loc 1 1049 0
 1841 0010 FB68     		ldr	r3, [r7, #12]
 1842 0012 93F83530 		ldrb	r3, [r3, #53]
 1843 0016 DBB2     		uxtb	r3, r3
 1844 0018 012B     		cmp	r3, #1
 1845 001a 40F0AD80 		bne	.L106
1050:Drivers/STM32F4xx_HAL_Driver/Src/stm32f4xx_hal_i2c.c ****   {
1051:Drivers/STM32F4xx_HAL_Driver/Src/stm32f4xx_hal_i2c.c ****     if((pData == NULL) || (Size == 0))
 1846              		.loc 1 1051 0
 1847 001e 7B68     		ldr	r3, [r7, #4]
 1848 0020 002B     		cmp	r3, #0
 1849 0022 02D0     		beq	.L107
 1850              		.loc 1 1051 0 is_stmt 0 discriminator 1
 1851 0024 3B89     		ldrh	r3, [r7, #8]
 1852 0026 002B     		cmp	r3, #0
 1853 0028 01D1     		bne	.L108
 1854              	.L107:
1052:Drivers/STM32F4xx_HAL_Driver/Src/stm32f4xx_hal_i2c.c ****     {
1053:Drivers/STM32F4xx_HAL_Driver/Src/stm32f4xx_hal_i2c.c ****       return  HAL_ERROR;
 1855              		.loc 1 1053 0 is_stmt 1
 1856 002a 0123     		movs	r3, #1
 1857 002c A5E0     		b	.L109
 1858              	.L108:
1054:Drivers/STM32F4xx_HAL_Driver/Src/stm32f4xx_hal_i2c.c ****     }
1055:Drivers/STM32F4xx_HAL_Driver/Src/stm32f4xx_hal_i2c.c **** 
1056:Drivers/STM32F4xx_HAL_Driver/Src/stm32f4xx_hal_i2c.c ****     /* Wait until BUSY flag is reset */
1057:Drivers/STM32F4xx_HAL_Driver/Src/stm32f4xx_hal_i2c.c ****     if(I2C_WaitOnFlagUntilTimeout(hi2c, I2C_FLAG_BUSY, SET, I2C_TIMEOUT_BUSY_FLAG) != HAL_OK)
 1859              		.loc 1 1057 0
 1860 002e F868     		ldr	r0, [r7, #12]
 1861 0030 5449     		ldr	r1, .L117
 1862 0032 0122     		movs	r2, #1
 1863 0034 42F21073 		movw	r3, #10000
 1864 0038 FFF7FEFF 		bl	I2C_WaitOnFlagUntilTimeout
 1865 003c 0346     		mov	r3, r0
ARM GAS  /tmp/cc5bMm9J.s 			page 52


 1866 003e 002B     		cmp	r3, #0
 1867 0040 01D0     		beq	.L110
1058:Drivers/STM32F4xx_HAL_Driver/Src/stm32f4xx_hal_i2c.c ****     {
1059:Drivers/STM32F4xx_HAL_Driver/Src/stm32f4xx_hal_i2c.c ****       return HAL_BUSY;
 1868              		.loc 1 1059 0
 1869 0042 0223     		movs	r3, #2
 1870 0044 99E0     		b	.L109
 1871              	.L110:
1060:Drivers/STM32F4xx_HAL_Driver/Src/stm32f4xx_hal_i2c.c ****     }
1061:Drivers/STM32F4xx_HAL_Driver/Src/stm32f4xx_hal_i2c.c **** 
1062:Drivers/STM32F4xx_HAL_Driver/Src/stm32f4xx_hal_i2c.c ****     /* Process Locked */
1063:Drivers/STM32F4xx_HAL_Driver/Src/stm32f4xx_hal_i2c.c ****     __HAL_LOCK(hi2c);
 1872              		.loc 1 1063 0
 1873 0046 FB68     		ldr	r3, [r7, #12]
 1874 0048 93F83430 		ldrb	r3, [r3, #52]	@ zero_extendqisi2
 1875 004c 012B     		cmp	r3, #1
 1876 004e 01D1     		bne	.L111
 1877              		.loc 1 1063 0 is_stmt 0 discriminator 1
 1878 0050 0223     		movs	r3, #2
 1879 0052 92E0     		b	.L109
 1880              	.L111:
 1881              		.loc 1 1063 0 discriminator 2
 1882 0054 FB68     		ldr	r3, [r7, #12]
 1883 0056 0122     		movs	r2, #1
 1884 0058 83F83420 		strb	r2, [r3, #52]
1064:Drivers/STM32F4xx_HAL_Driver/Src/stm32f4xx_hal_i2c.c ****     
1065:Drivers/STM32F4xx_HAL_Driver/Src/stm32f4xx_hal_i2c.c ****     /* Disable Pos */
1066:Drivers/STM32F4xx_HAL_Driver/Src/stm32f4xx_hal_i2c.c ****     hi2c->Instance->CR1 &= ~I2C_CR1_POS;
 1885              		.loc 1 1066 0 is_stmt 1 discriminator 2
 1886 005c FB68     		ldr	r3, [r7, #12]
 1887 005e 1B68     		ldr	r3, [r3]
 1888 0060 FA68     		ldr	r2, [r7, #12]
 1889 0062 1268     		ldr	r2, [r2]
 1890 0064 1268     		ldr	r2, [r2]
 1891 0066 22F40062 		bic	r2, r2, #2048
 1892 006a 1A60     		str	r2, [r3]
1067:Drivers/STM32F4xx_HAL_Driver/Src/stm32f4xx_hal_i2c.c **** 
1068:Drivers/STM32F4xx_HAL_Driver/Src/stm32f4xx_hal_i2c.c ****     hi2c->State = HAL_I2C_STATE_BUSY_RX;
 1893              		.loc 1 1068 0 discriminator 2
 1894 006c FB68     		ldr	r3, [r7, #12]
 1895 006e 2222     		movs	r2, #34
 1896 0070 83F83520 		strb	r2, [r3, #53]
1069:Drivers/STM32F4xx_HAL_Driver/Src/stm32f4xx_hal_i2c.c ****     hi2c->ErrorCode = HAL_I2C_ERROR_NONE;
 1897              		.loc 1 1069 0 discriminator 2
 1898 0074 FB68     		ldr	r3, [r7, #12]
 1899 0076 0022     		movs	r2, #0
 1900 0078 9A63     		str	r2, [r3, #56]
1070:Drivers/STM32F4xx_HAL_Driver/Src/stm32f4xx_hal_i2c.c **** 
1071:Drivers/STM32F4xx_HAL_Driver/Src/stm32f4xx_hal_i2c.c ****     hi2c->pBuffPtr = pData;
 1901              		.loc 1 1071 0 discriminator 2
 1902 007a FB68     		ldr	r3, [r7, #12]
 1903 007c 7A68     		ldr	r2, [r7, #4]
 1904 007e 5A62     		str	r2, [r3, #36]
1072:Drivers/STM32F4xx_HAL_Driver/Src/stm32f4xx_hal_i2c.c ****     hi2c->XferSize = Size;
 1905              		.loc 1 1072 0 discriminator 2
 1906 0080 FB68     		ldr	r3, [r7, #12]
 1907 0082 3A89     		ldrh	r2, [r7, #8]	@ movhi
ARM GAS  /tmp/cc5bMm9J.s 			page 53


 1908 0084 1A85     		strh	r2, [r3, #40]	@ movhi
1073:Drivers/STM32F4xx_HAL_Driver/Src/stm32f4xx_hal_i2c.c ****     hi2c->XferCount = Size;
 1909              		.loc 1 1073 0 discriminator 2
 1910 0086 FB68     		ldr	r3, [r7, #12]
 1911 0088 3A89     		ldrh	r2, [r7, #8]	@ movhi
 1912 008a 5A85     		strh	r2, [r3, #42]	@ movhi
1074:Drivers/STM32F4xx_HAL_Driver/Src/stm32f4xx_hal_i2c.c **** 
1075:Drivers/STM32F4xx_HAL_Driver/Src/stm32f4xx_hal_i2c.c ****     /* Send Slave Address */
1076:Drivers/STM32F4xx_HAL_Driver/Src/stm32f4xx_hal_i2c.c ****     if(I2C_MasterRequestRead(hi2c, DevAddress, I2C_TIMEOUT_FLAG) != HAL_OK)
 1913              		.loc 1 1076 0 discriminator 2
 1914 008c 7B89     		ldrh	r3, [r7, #10]
 1915 008e F868     		ldr	r0, [r7, #12]
 1916 0090 1946     		mov	r1, r3
 1917 0092 2322     		movs	r2, #35
 1918 0094 FFF7FEFF 		bl	I2C_MasterRequestRead
 1919 0098 0346     		mov	r3, r0
 1920 009a 002B     		cmp	r3, #0
 1921 009c 0FD0     		beq	.L112
1077:Drivers/STM32F4xx_HAL_Driver/Src/stm32f4xx_hal_i2c.c ****     {
1078:Drivers/STM32F4xx_HAL_Driver/Src/stm32f4xx_hal_i2c.c ****       if(hi2c->ErrorCode == HAL_I2C_ERROR_AF)
 1922              		.loc 1 1078 0
 1923 009e FB68     		ldr	r3, [r7, #12]
 1924 00a0 9B6B     		ldr	r3, [r3, #56]
 1925 00a2 042B     		cmp	r3, #4
 1926 00a4 05D1     		bne	.L113
1079:Drivers/STM32F4xx_HAL_Driver/Src/stm32f4xx_hal_i2c.c ****       {
1080:Drivers/STM32F4xx_HAL_Driver/Src/stm32f4xx_hal_i2c.c ****         /* Process Unlocked */
1081:Drivers/STM32F4xx_HAL_Driver/Src/stm32f4xx_hal_i2c.c ****         __HAL_UNLOCK(hi2c);
 1927              		.loc 1 1081 0
 1928 00a6 FB68     		ldr	r3, [r7, #12]
 1929 00a8 0022     		movs	r2, #0
 1930 00aa 83F83420 		strb	r2, [r3, #52]
1082:Drivers/STM32F4xx_HAL_Driver/Src/stm32f4xx_hal_i2c.c ****         return HAL_ERROR;
 1931              		.loc 1 1082 0
 1932 00ae 0123     		movs	r3, #1
 1933 00b0 63E0     		b	.L109
 1934              	.L113:
1083:Drivers/STM32F4xx_HAL_Driver/Src/stm32f4xx_hal_i2c.c ****       }
1084:Drivers/STM32F4xx_HAL_Driver/Src/stm32f4xx_hal_i2c.c ****       else
1085:Drivers/STM32F4xx_HAL_Driver/Src/stm32f4xx_hal_i2c.c ****       {
1086:Drivers/STM32F4xx_HAL_Driver/Src/stm32f4xx_hal_i2c.c ****         /* Process Unlocked */
1087:Drivers/STM32F4xx_HAL_Driver/Src/stm32f4xx_hal_i2c.c ****         __HAL_UNLOCK(hi2c);
 1935              		.loc 1 1087 0
 1936 00b2 FB68     		ldr	r3, [r7, #12]
 1937 00b4 0022     		movs	r2, #0
 1938 00b6 83F83420 		strb	r2, [r3, #52]
1088:Drivers/STM32F4xx_HAL_Driver/Src/stm32f4xx_hal_i2c.c ****         return HAL_TIMEOUT;
 1939              		.loc 1 1088 0
 1940 00ba 0323     		movs	r3, #3
 1941 00bc 5DE0     		b	.L109
 1942              	.L112:
1089:Drivers/STM32F4xx_HAL_Driver/Src/stm32f4xx_hal_i2c.c ****       }
1090:Drivers/STM32F4xx_HAL_Driver/Src/stm32f4xx_hal_i2c.c ****     }
1091:Drivers/STM32F4xx_HAL_Driver/Src/stm32f4xx_hal_i2c.c **** 
1092:Drivers/STM32F4xx_HAL_Driver/Src/stm32f4xx_hal_i2c.c ****     if(hi2c->XferCount == 1)
 1943              		.loc 1 1092 0
 1944 00be FB68     		ldr	r3, [r7, #12]
ARM GAS  /tmp/cc5bMm9J.s 			page 54


 1945 00c0 5B8D     		ldrh	r3, [r3, #42]	@ movhi
 1946 00c2 9BB2     		uxth	r3, r3
 1947 00c4 012B     		cmp	r3, #1
 1948 00c6 19D1     		bne	.L114
1093:Drivers/STM32F4xx_HAL_Driver/Src/stm32f4xx_hal_i2c.c ****     {
1094:Drivers/STM32F4xx_HAL_Driver/Src/stm32f4xx_hal_i2c.c ****       /* Disable Acknowledge */
1095:Drivers/STM32F4xx_HAL_Driver/Src/stm32f4xx_hal_i2c.c ****       hi2c->Instance->CR1 &= ~I2C_CR1_ACK;
 1949              		.loc 1 1095 0
 1950 00c8 FB68     		ldr	r3, [r7, #12]
 1951 00ca 1B68     		ldr	r3, [r3]
 1952 00cc FA68     		ldr	r2, [r7, #12]
 1953 00ce 1268     		ldr	r2, [r2]
 1954 00d0 1268     		ldr	r2, [r2]
 1955 00d2 22F48062 		bic	r2, r2, #1024
 1956 00d6 1A60     		str	r2, [r3]
 1957              	.LBB11:
1096:Drivers/STM32F4xx_HAL_Driver/Src/stm32f4xx_hal_i2c.c **** 
1097:Drivers/STM32F4xx_HAL_Driver/Src/stm32f4xx_hal_i2c.c ****       /* Clear ADDR flag */
1098:Drivers/STM32F4xx_HAL_Driver/Src/stm32f4xx_hal_i2c.c ****       __HAL_I2C_CLEAR_ADDRFLAG(hi2c);
 1958              		.loc 1 1098 0
 1959 00d8 FB68     		ldr	r3, [r7, #12]
 1960 00da 1B68     		ldr	r3, [r3]
 1961 00dc 5B69     		ldr	r3, [r3, #20]
 1962 00de FB61     		str	r3, [r7, #28]
 1963 00e0 FB68     		ldr	r3, [r7, #12]
 1964 00e2 1B68     		ldr	r3, [r3]
 1965 00e4 9B69     		ldr	r3, [r3, #24]
 1966 00e6 FB61     		str	r3, [r7, #28]
 1967 00e8 FB69     		ldr	r3, [r7, #28]
 1968              	.LBE11:
1099:Drivers/STM32F4xx_HAL_Driver/Src/stm32f4xx_hal_i2c.c **** 
1100:Drivers/STM32F4xx_HAL_Driver/Src/stm32f4xx_hal_i2c.c ****       /* Generate Stop */
1101:Drivers/STM32F4xx_HAL_Driver/Src/stm32f4xx_hal_i2c.c ****       hi2c->Instance->CR1 |= I2C_CR1_STOP;
 1969              		.loc 1 1101 0
 1970 00ea FB68     		ldr	r3, [r7, #12]
 1971 00ec 1B68     		ldr	r3, [r3]
 1972 00ee FA68     		ldr	r2, [r7, #12]
 1973 00f0 1268     		ldr	r2, [r2]
 1974 00f2 1268     		ldr	r2, [r2]
 1975 00f4 42F40072 		orr	r2, r2, #512
 1976 00f8 1A60     		str	r2, [r3]
 1977 00fa 2FE0     		b	.L115
 1978              	.L114:
1102:Drivers/STM32F4xx_HAL_Driver/Src/stm32f4xx_hal_i2c.c ****     }
1103:Drivers/STM32F4xx_HAL_Driver/Src/stm32f4xx_hal_i2c.c ****     else if(hi2c->XferCount == 2)
 1979              		.loc 1 1103 0
 1980 00fc FB68     		ldr	r3, [r7, #12]
 1981 00fe 5B8D     		ldrh	r3, [r3, #42]	@ movhi
 1982 0100 9BB2     		uxth	r3, r3
 1983 0102 022B     		cmp	r3, #2
 1984 0104 19D1     		bne	.L116
1104:Drivers/STM32F4xx_HAL_Driver/Src/stm32f4xx_hal_i2c.c ****     {
1105:Drivers/STM32F4xx_HAL_Driver/Src/stm32f4xx_hal_i2c.c ****       /* Disable Acknowledge */
1106:Drivers/STM32F4xx_HAL_Driver/Src/stm32f4xx_hal_i2c.c ****       hi2c->Instance->CR1 &= ~I2C_CR1_ACK;
 1985              		.loc 1 1106 0
 1986 0106 FB68     		ldr	r3, [r7, #12]
 1987 0108 1B68     		ldr	r3, [r3]
ARM GAS  /tmp/cc5bMm9J.s 			page 55


 1988 010a FA68     		ldr	r2, [r7, #12]
 1989 010c 1268     		ldr	r2, [r2]
 1990 010e 1268     		ldr	r2, [r2]
 1991 0110 22F48062 		bic	r2, r2, #1024
 1992 0114 1A60     		str	r2, [r3]
1107:Drivers/STM32F4xx_HAL_Driver/Src/stm32f4xx_hal_i2c.c **** 
1108:Drivers/STM32F4xx_HAL_Driver/Src/stm32f4xx_hal_i2c.c ****       /* Enable Pos */
1109:Drivers/STM32F4xx_HAL_Driver/Src/stm32f4xx_hal_i2c.c ****       hi2c->Instance->CR1 |= I2C_CR1_POS;
 1993              		.loc 1 1109 0
 1994 0116 FB68     		ldr	r3, [r7, #12]
 1995 0118 1B68     		ldr	r3, [r3]
 1996 011a FA68     		ldr	r2, [r7, #12]
 1997 011c 1268     		ldr	r2, [r2]
 1998 011e 1268     		ldr	r2, [r2]
 1999 0120 42F40062 		orr	r2, r2, #2048
 2000 0124 1A60     		str	r2, [r3]
 2001              	.LBB12:
1110:Drivers/STM32F4xx_HAL_Driver/Src/stm32f4xx_hal_i2c.c **** 
1111:Drivers/STM32F4xx_HAL_Driver/Src/stm32f4xx_hal_i2c.c ****       /* Clear ADDR flag */
1112:Drivers/STM32F4xx_HAL_Driver/Src/stm32f4xx_hal_i2c.c ****       __HAL_I2C_CLEAR_ADDRFLAG(hi2c);
 2002              		.loc 1 1112 0
 2003 0126 FB68     		ldr	r3, [r7, #12]
 2004 0128 1B68     		ldr	r3, [r3]
 2005 012a 5B69     		ldr	r3, [r3, #20]
 2006 012c BB61     		str	r3, [r7, #24]
 2007 012e FB68     		ldr	r3, [r7, #12]
 2008 0130 1B68     		ldr	r3, [r3]
 2009 0132 9B69     		ldr	r3, [r3, #24]
 2010 0134 BB61     		str	r3, [r7, #24]
 2011 0136 BB69     		ldr	r3, [r7, #24]
 2012              	.LBE12:
 2013 0138 10E0     		b	.L115
 2014              	.L116:
1113:Drivers/STM32F4xx_HAL_Driver/Src/stm32f4xx_hal_i2c.c ****     }
1114:Drivers/STM32F4xx_HAL_Driver/Src/stm32f4xx_hal_i2c.c ****     else
1115:Drivers/STM32F4xx_HAL_Driver/Src/stm32f4xx_hal_i2c.c ****     {
1116:Drivers/STM32F4xx_HAL_Driver/Src/stm32f4xx_hal_i2c.c ****       /* Enable Acknowledge */
1117:Drivers/STM32F4xx_HAL_Driver/Src/stm32f4xx_hal_i2c.c ****       hi2c->Instance->CR1 |= I2C_CR1_ACK;
 2015              		.loc 1 1117 0
 2016 013a FB68     		ldr	r3, [r7, #12]
 2017 013c 1B68     		ldr	r3, [r3]
 2018 013e FA68     		ldr	r2, [r7, #12]
 2019 0140 1268     		ldr	r2, [r2]
 2020 0142 1268     		ldr	r2, [r2]
 2021 0144 42F48062 		orr	r2, r2, #1024
 2022 0148 1A60     		str	r2, [r3]
 2023              	.LBB13:
1118:Drivers/STM32F4xx_HAL_Driver/Src/stm32f4xx_hal_i2c.c **** 
1119:Drivers/STM32F4xx_HAL_Driver/Src/stm32f4xx_hal_i2c.c ****       /* Clear ADDR flag */
1120:Drivers/STM32F4xx_HAL_Driver/Src/stm32f4xx_hal_i2c.c ****       __HAL_I2C_CLEAR_ADDRFLAG(hi2c);
 2024              		.loc 1 1120 0
 2025 014a FB68     		ldr	r3, [r7, #12]
 2026 014c 1B68     		ldr	r3, [r3]
 2027 014e 5B69     		ldr	r3, [r3, #20]
 2028 0150 7B61     		str	r3, [r7, #20]
 2029 0152 FB68     		ldr	r3, [r7, #12]
 2030 0154 1B68     		ldr	r3, [r3]
ARM GAS  /tmp/cc5bMm9J.s 			page 56


 2031 0156 9B69     		ldr	r3, [r3, #24]
 2032 0158 7B61     		str	r3, [r7, #20]
 2033 015a 7B69     		ldr	r3, [r7, #20]
 2034              	.L115:
 2035              	.LBE13:
1121:Drivers/STM32F4xx_HAL_Driver/Src/stm32f4xx_hal_i2c.c ****     }
1122:Drivers/STM32F4xx_HAL_Driver/Src/stm32f4xx_hal_i2c.c **** 
1123:Drivers/STM32F4xx_HAL_Driver/Src/stm32f4xx_hal_i2c.c ****     /* Process Unlocked */
1124:Drivers/STM32F4xx_HAL_Driver/Src/stm32f4xx_hal_i2c.c ****     __HAL_UNLOCK(hi2c);
 2036              		.loc 1 1124 0
 2037 015c FB68     		ldr	r3, [r7, #12]
 2038 015e 0022     		movs	r2, #0
 2039 0160 83F83420 		strb	r2, [r3, #52]
1125:Drivers/STM32F4xx_HAL_Driver/Src/stm32f4xx_hal_i2c.c **** 
1126:Drivers/STM32F4xx_HAL_Driver/Src/stm32f4xx_hal_i2c.c ****     /* Note : The I2C interrupts must be enabled after unlocking current process
1127:Drivers/STM32F4xx_HAL_Driver/Src/stm32f4xx_hal_i2c.c ****               to avoid the risk of I2C interrupt handle execution before current
1128:Drivers/STM32F4xx_HAL_Driver/Src/stm32f4xx_hal_i2c.c ****               process unlock */
1129:Drivers/STM32F4xx_HAL_Driver/Src/stm32f4xx_hal_i2c.c **** 
1130:Drivers/STM32F4xx_HAL_Driver/Src/stm32f4xx_hal_i2c.c ****     /* Enable EVT, BUF and ERR interrupt */
1131:Drivers/STM32F4xx_HAL_Driver/Src/stm32f4xx_hal_i2c.c ****     __HAL_I2C_ENABLE_IT(hi2c, I2C_IT_EVT | I2C_IT_BUF | I2C_IT_ERR);
 2040              		.loc 1 1131 0
 2041 0164 FB68     		ldr	r3, [r7, #12]
 2042 0166 1B68     		ldr	r3, [r3]
 2043 0168 FA68     		ldr	r2, [r7, #12]
 2044 016a 1268     		ldr	r2, [r2]
 2045 016c 5268     		ldr	r2, [r2, #4]
 2046 016e 42F4E062 		orr	r2, r2, #1792
 2047 0172 5A60     		str	r2, [r3, #4]
1132:Drivers/STM32F4xx_HAL_Driver/Src/stm32f4xx_hal_i2c.c **** 
1133:Drivers/STM32F4xx_HAL_Driver/Src/stm32f4xx_hal_i2c.c ****     return HAL_OK;
 2048              		.loc 1 1133 0
 2049 0174 0023     		movs	r3, #0
 2050 0176 00E0     		b	.L109
 2051              	.L106:
1134:Drivers/STM32F4xx_HAL_Driver/Src/stm32f4xx_hal_i2c.c ****   }
1135:Drivers/STM32F4xx_HAL_Driver/Src/stm32f4xx_hal_i2c.c ****   else
1136:Drivers/STM32F4xx_HAL_Driver/Src/stm32f4xx_hal_i2c.c ****   {
1137:Drivers/STM32F4xx_HAL_Driver/Src/stm32f4xx_hal_i2c.c ****     return HAL_BUSY;
 2052              		.loc 1 1137 0
 2053 0178 0223     		movs	r3, #2
 2054              	.L109:
1138:Drivers/STM32F4xx_HAL_Driver/Src/stm32f4xx_hal_i2c.c ****   }
1139:Drivers/STM32F4xx_HAL_Driver/Src/stm32f4xx_hal_i2c.c **** }
 2055              		.loc 1 1139 0
 2056 017a 1846     		mov	r0, r3
 2057 017c 2037     		adds	r7, r7, #32
 2058 017e BD46     		mov	sp, r7
 2059              		@ sp needed
 2060 0180 80BD     		pop	{r7, pc}
 2061              	.L118:
 2062 0182 00BF     		.align	2
 2063              	.L117:
 2064 0184 02001000 		.word	1048578
 2065              		.cfi_endproc
 2066              	.LFE134:
 2068              		.section	.text.HAL_I2C_Slave_Transmit_IT,"ax",%progbits
 2069              		.align	2
ARM GAS  /tmp/cc5bMm9J.s 			page 57


 2070              		.global	HAL_I2C_Slave_Transmit_IT
 2071              		.thumb
 2072              		.thumb_func
 2074              	HAL_I2C_Slave_Transmit_IT:
 2075              	.LFB135:
1140:Drivers/STM32F4xx_HAL_Driver/Src/stm32f4xx_hal_i2c.c **** 
1141:Drivers/STM32F4xx_HAL_Driver/Src/stm32f4xx_hal_i2c.c **** /**
1142:Drivers/STM32F4xx_HAL_Driver/Src/stm32f4xx_hal_i2c.c ****   * @brief  Transmit in slave mode an amount of data in no-blocking mode with Interrupt
1143:Drivers/STM32F4xx_HAL_Driver/Src/stm32f4xx_hal_i2c.c ****   * @param  hi2c: pointer to a I2C_HandleTypeDef structure that contains
1144:Drivers/STM32F4xx_HAL_Driver/Src/stm32f4xx_hal_i2c.c ****   *         the configuration information for I2C module
1145:Drivers/STM32F4xx_HAL_Driver/Src/stm32f4xx_hal_i2c.c ****   * @param  pData: Pointer to data buffer
1146:Drivers/STM32F4xx_HAL_Driver/Src/stm32f4xx_hal_i2c.c ****   * @param  Size: Amount of data to be sent
1147:Drivers/STM32F4xx_HAL_Driver/Src/stm32f4xx_hal_i2c.c ****   * @retval HAL status
1148:Drivers/STM32F4xx_HAL_Driver/Src/stm32f4xx_hal_i2c.c ****   */
1149:Drivers/STM32F4xx_HAL_Driver/Src/stm32f4xx_hal_i2c.c **** HAL_StatusTypeDef HAL_I2C_Slave_Transmit_IT(I2C_HandleTypeDef *hi2c, uint8_t *pData, uint16_t Size)
1150:Drivers/STM32F4xx_HAL_Driver/Src/stm32f4xx_hal_i2c.c **** {
 2076              		.loc 1 1150 0
 2077              		.cfi_startproc
 2078              		@ args = 0, pretend = 0, frame = 16
 2079              		@ frame_needed = 1, uses_anonymous_args = 0
 2080 0000 80B5     		push	{r7, lr}
 2081              	.LCFI30:
 2082              		.cfi_def_cfa_offset 8
 2083              		.cfi_offset 7, -8
 2084              		.cfi_offset 14, -4
 2085 0002 84B0     		sub	sp, sp, #16
 2086              	.LCFI31:
 2087              		.cfi_def_cfa_offset 24
 2088 0004 00AF     		add	r7, sp, #0
 2089              	.LCFI32:
 2090              		.cfi_def_cfa_register 7
 2091 0006 F860     		str	r0, [r7, #12]
 2092 0008 B960     		str	r1, [r7, #8]
 2093 000a 1346     		mov	r3, r2
 2094 000c FB80     		strh	r3, [r7, #6]	@ movhi
1151:Drivers/STM32F4xx_HAL_Driver/Src/stm32f4xx_hal_i2c.c ****   if(hi2c->State == HAL_I2C_STATE_READY)
 2095              		.loc 1 1151 0
 2096 000e FB68     		ldr	r3, [r7, #12]
 2097 0010 93F83530 		ldrb	r3, [r3, #53]
 2098 0014 DBB2     		uxtb	r3, r3
 2099 0016 012B     		cmp	r3, #1
 2100 0018 4CD1     		bne	.L120
1152:Drivers/STM32F4xx_HAL_Driver/Src/stm32f4xx_hal_i2c.c ****   {
1153:Drivers/STM32F4xx_HAL_Driver/Src/stm32f4xx_hal_i2c.c ****     if((pData == NULL) || (Size == 0))
 2101              		.loc 1 1153 0
 2102 001a BB68     		ldr	r3, [r7, #8]
 2103 001c 002B     		cmp	r3, #0
 2104 001e 02D0     		beq	.L121
 2105              		.loc 1 1153 0 is_stmt 0 discriminator 1
 2106 0020 FB88     		ldrh	r3, [r7, #6]
 2107 0022 002B     		cmp	r3, #0
 2108 0024 01D1     		bne	.L122
 2109              	.L121:
1154:Drivers/STM32F4xx_HAL_Driver/Src/stm32f4xx_hal_i2c.c ****     {
1155:Drivers/STM32F4xx_HAL_Driver/Src/stm32f4xx_hal_i2c.c ****       return  HAL_ERROR;
 2110              		.loc 1 1155 0 is_stmt 1
 2111 0026 0123     		movs	r3, #1
ARM GAS  /tmp/cc5bMm9J.s 			page 58


 2112 0028 45E0     		b	.L123
 2113              	.L122:
1156:Drivers/STM32F4xx_HAL_Driver/Src/stm32f4xx_hal_i2c.c ****     }
1157:Drivers/STM32F4xx_HAL_Driver/Src/stm32f4xx_hal_i2c.c **** 
1158:Drivers/STM32F4xx_HAL_Driver/Src/stm32f4xx_hal_i2c.c ****     /* Wait until BUSY flag is reset */
1159:Drivers/STM32F4xx_HAL_Driver/Src/stm32f4xx_hal_i2c.c ****     if(I2C_WaitOnFlagUntilTimeout(hi2c, I2C_FLAG_BUSY, SET, I2C_TIMEOUT_BUSY_FLAG) != HAL_OK)
 2114              		.loc 1 1159 0
 2115 002a F868     		ldr	r0, [r7, #12]
 2116 002c 2449     		ldr	r1, .L126
 2117 002e 0122     		movs	r2, #1
 2118 0030 42F21073 		movw	r3, #10000
 2119 0034 FFF7FEFF 		bl	I2C_WaitOnFlagUntilTimeout
 2120 0038 0346     		mov	r3, r0
 2121 003a 002B     		cmp	r3, #0
 2122 003c 01D0     		beq	.L124
1160:Drivers/STM32F4xx_HAL_Driver/Src/stm32f4xx_hal_i2c.c ****     {
1161:Drivers/STM32F4xx_HAL_Driver/Src/stm32f4xx_hal_i2c.c ****       return HAL_BUSY;
 2123              		.loc 1 1161 0
 2124 003e 0223     		movs	r3, #2
 2125 0040 39E0     		b	.L123
 2126              	.L124:
1162:Drivers/STM32F4xx_HAL_Driver/Src/stm32f4xx_hal_i2c.c ****     }
1163:Drivers/STM32F4xx_HAL_Driver/Src/stm32f4xx_hal_i2c.c **** 
1164:Drivers/STM32F4xx_HAL_Driver/Src/stm32f4xx_hal_i2c.c ****     /* Process Locked */
1165:Drivers/STM32F4xx_HAL_Driver/Src/stm32f4xx_hal_i2c.c ****     __HAL_LOCK(hi2c);
 2127              		.loc 1 1165 0
 2128 0042 FB68     		ldr	r3, [r7, #12]
 2129 0044 93F83430 		ldrb	r3, [r3, #52]	@ zero_extendqisi2
 2130 0048 012B     		cmp	r3, #1
 2131 004a 01D1     		bne	.L125
 2132              		.loc 1 1165 0 is_stmt 0 discriminator 1
 2133 004c 0223     		movs	r3, #2
 2134 004e 32E0     		b	.L123
 2135              	.L125:
 2136              		.loc 1 1165 0 discriminator 2
 2137 0050 FB68     		ldr	r3, [r7, #12]
 2138 0052 0122     		movs	r2, #1
 2139 0054 83F83420 		strb	r2, [r3, #52]
1166:Drivers/STM32F4xx_HAL_Driver/Src/stm32f4xx_hal_i2c.c ****     
1167:Drivers/STM32F4xx_HAL_Driver/Src/stm32f4xx_hal_i2c.c ****     /* Disable Pos */
1168:Drivers/STM32F4xx_HAL_Driver/Src/stm32f4xx_hal_i2c.c ****     hi2c->Instance->CR1 &= ~I2C_CR1_POS;
 2140              		.loc 1 1168 0 is_stmt 1 discriminator 2
 2141 0058 FB68     		ldr	r3, [r7, #12]
 2142 005a 1B68     		ldr	r3, [r3]
 2143 005c FA68     		ldr	r2, [r7, #12]
 2144 005e 1268     		ldr	r2, [r2]
 2145 0060 1268     		ldr	r2, [r2]
 2146 0062 22F40062 		bic	r2, r2, #2048
 2147 0066 1A60     		str	r2, [r3]
1169:Drivers/STM32F4xx_HAL_Driver/Src/stm32f4xx_hal_i2c.c **** 
1170:Drivers/STM32F4xx_HAL_Driver/Src/stm32f4xx_hal_i2c.c ****     hi2c->State = HAL_I2C_STATE_BUSY_TX;
 2148              		.loc 1 1170 0 discriminator 2
 2149 0068 FB68     		ldr	r3, [r7, #12]
 2150 006a 1222     		movs	r2, #18
 2151 006c 83F83520 		strb	r2, [r3, #53]
1171:Drivers/STM32F4xx_HAL_Driver/Src/stm32f4xx_hal_i2c.c ****     hi2c->ErrorCode = HAL_I2C_ERROR_NONE;
 2152              		.loc 1 1171 0 discriminator 2
ARM GAS  /tmp/cc5bMm9J.s 			page 59


 2153 0070 FB68     		ldr	r3, [r7, #12]
 2154 0072 0022     		movs	r2, #0
 2155 0074 9A63     		str	r2, [r3, #56]
1172:Drivers/STM32F4xx_HAL_Driver/Src/stm32f4xx_hal_i2c.c **** 
1173:Drivers/STM32F4xx_HAL_Driver/Src/stm32f4xx_hal_i2c.c ****     hi2c->pBuffPtr = pData;
 2156              		.loc 1 1173 0 discriminator 2
 2157 0076 FB68     		ldr	r3, [r7, #12]
 2158 0078 BA68     		ldr	r2, [r7, #8]
 2159 007a 5A62     		str	r2, [r3, #36]
1174:Drivers/STM32F4xx_HAL_Driver/Src/stm32f4xx_hal_i2c.c ****     hi2c->XferSize = Size;
 2160              		.loc 1 1174 0 discriminator 2
 2161 007c FB68     		ldr	r3, [r7, #12]
 2162 007e FA88     		ldrh	r2, [r7, #6]	@ movhi
 2163 0080 1A85     		strh	r2, [r3, #40]	@ movhi
1175:Drivers/STM32F4xx_HAL_Driver/Src/stm32f4xx_hal_i2c.c ****     hi2c->XferCount = Size;
 2164              		.loc 1 1175 0 discriminator 2
 2165 0082 FB68     		ldr	r3, [r7, #12]
 2166 0084 FA88     		ldrh	r2, [r7, #6]	@ movhi
 2167 0086 5A85     		strh	r2, [r3, #42]	@ movhi
1176:Drivers/STM32F4xx_HAL_Driver/Src/stm32f4xx_hal_i2c.c **** 
1177:Drivers/STM32F4xx_HAL_Driver/Src/stm32f4xx_hal_i2c.c ****     /* Enable Address Acknowledge */
1178:Drivers/STM32F4xx_HAL_Driver/Src/stm32f4xx_hal_i2c.c ****     hi2c->Instance->CR1 |= I2C_CR1_ACK;
 2168              		.loc 1 1178 0 discriminator 2
 2169 0088 FB68     		ldr	r3, [r7, #12]
 2170 008a 1B68     		ldr	r3, [r3]
 2171 008c FA68     		ldr	r2, [r7, #12]
 2172 008e 1268     		ldr	r2, [r2]
 2173 0090 1268     		ldr	r2, [r2]
 2174 0092 42F48062 		orr	r2, r2, #1024
 2175 0096 1A60     		str	r2, [r3]
1179:Drivers/STM32F4xx_HAL_Driver/Src/stm32f4xx_hal_i2c.c **** 
1180:Drivers/STM32F4xx_HAL_Driver/Src/stm32f4xx_hal_i2c.c ****     /* Process Unlocked */
1181:Drivers/STM32F4xx_HAL_Driver/Src/stm32f4xx_hal_i2c.c ****     __HAL_UNLOCK(hi2c);
 2176              		.loc 1 1181 0 discriminator 2
 2177 0098 FB68     		ldr	r3, [r7, #12]
 2178 009a 0022     		movs	r2, #0
 2179 009c 83F83420 		strb	r2, [r3, #52]
1182:Drivers/STM32F4xx_HAL_Driver/Src/stm32f4xx_hal_i2c.c **** 
1183:Drivers/STM32F4xx_HAL_Driver/Src/stm32f4xx_hal_i2c.c ****     /* Note : The I2C interrupts must be enabled after unlocking current process
1184:Drivers/STM32F4xx_HAL_Driver/Src/stm32f4xx_hal_i2c.c ****               to avoid the risk of I2C interrupt handle execution before current
1185:Drivers/STM32F4xx_HAL_Driver/Src/stm32f4xx_hal_i2c.c ****               process unlock */
1186:Drivers/STM32F4xx_HAL_Driver/Src/stm32f4xx_hal_i2c.c **** 
1187:Drivers/STM32F4xx_HAL_Driver/Src/stm32f4xx_hal_i2c.c ****     /* Enable EVT, BUF and ERR interrupt */
1188:Drivers/STM32F4xx_HAL_Driver/Src/stm32f4xx_hal_i2c.c ****     __HAL_I2C_ENABLE_IT(hi2c, I2C_IT_EVT | I2C_IT_BUF | I2C_IT_ERR);
 2180              		.loc 1 1188 0 discriminator 2
 2181 00a0 FB68     		ldr	r3, [r7, #12]
 2182 00a2 1B68     		ldr	r3, [r3]
 2183 00a4 FA68     		ldr	r2, [r7, #12]
 2184 00a6 1268     		ldr	r2, [r2]
 2185 00a8 5268     		ldr	r2, [r2, #4]
 2186 00aa 42F4E062 		orr	r2, r2, #1792
 2187 00ae 5A60     		str	r2, [r3, #4]
1189:Drivers/STM32F4xx_HAL_Driver/Src/stm32f4xx_hal_i2c.c **** 
1190:Drivers/STM32F4xx_HAL_Driver/Src/stm32f4xx_hal_i2c.c ****     return HAL_OK;
 2188              		.loc 1 1190 0 discriminator 2
 2189 00b0 0023     		movs	r3, #0
 2190 00b2 00E0     		b	.L123
ARM GAS  /tmp/cc5bMm9J.s 			page 60


 2191              	.L120:
1191:Drivers/STM32F4xx_HAL_Driver/Src/stm32f4xx_hal_i2c.c ****   }
1192:Drivers/STM32F4xx_HAL_Driver/Src/stm32f4xx_hal_i2c.c ****   else
1193:Drivers/STM32F4xx_HAL_Driver/Src/stm32f4xx_hal_i2c.c ****   {
1194:Drivers/STM32F4xx_HAL_Driver/Src/stm32f4xx_hal_i2c.c ****     return HAL_BUSY;
 2192              		.loc 1 1194 0
 2193 00b4 0223     		movs	r3, #2
 2194              	.L123:
1195:Drivers/STM32F4xx_HAL_Driver/Src/stm32f4xx_hal_i2c.c ****   }
1196:Drivers/STM32F4xx_HAL_Driver/Src/stm32f4xx_hal_i2c.c **** }
 2195              		.loc 1 1196 0
 2196 00b6 1846     		mov	r0, r3
 2197 00b8 1037     		adds	r7, r7, #16
 2198 00ba BD46     		mov	sp, r7
 2199              		@ sp needed
 2200 00bc 80BD     		pop	{r7, pc}
 2201              	.L127:
 2202 00be 00BF     		.align	2
 2203              	.L126:
 2204 00c0 02001000 		.word	1048578
 2205              		.cfi_endproc
 2206              	.LFE135:
 2208              		.section	.text.HAL_I2C_Slave_Receive_IT,"ax",%progbits
 2209              		.align	2
 2210              		.global	HAL_I2C_Slave_Receive_IT
 2211              		.thumb
 2212              		.thumb_func
 2214              	HAL_I2C_Slave_Receive_IT:
 2215              	.LFB136:
1197:Drivers/STM32F4xx_HAL_Driver/Src/stm32f4xx_hal_i2c.c **** 
1198:Drivers/STM32F4xx_HAL_Driver/Src/stm32f4xx_hal_i2c.c **** /**
1199:Drivers/STM32F4xx_HAL_Driver/Src/stm32f4xx_hal_i2c.c ****   * @brief  Receive in slave mode an amount of data in no-blocking mode with Interrupt
1200:Drivers/STM32F4xx_HAL_Driver/Src/stm32f4xx_hal_i2c.c ****   * @param  hi2c: pointer to a I2C_HandleTypeDef structure that contains
1201:Drivers/STM32F4xx_HAL_Driver/Src/stm32f4xx_hal_i2c.c ****   *         the configuration information for I2C module
1202:Drivers/STM32F4xx_HAL_Driver/Src/stm32f4xx_hal_i2c.c ****   * @param  pData: Pointer to data buffer
1203:Drivers/STM32F4xx_HAL_Driver/Src/stm32f4xx_hal_i2c.c ****   * @param  Size: Amount of data to be sent
1204:Drivers/STM32F4xx_HAL_Driver/Src/stm32f4xx_hal_i2c.c ****   * @retval HAL status
1205:Drivers/STM32F4xx_HAL_Driver/Src/stm32f4xx_hal_i2c.c ****   */
1206:Drivers/STM32F4xx_HAL_Driver/Src/stm32f4xx_hal_i2c.c **** HAL_StatusTypeDef HAL_I2C_Slave_Receive_IT(I2C_HandleTypeDef *hi2c, uint8_t *pData, uint16_t Size)
1207:Drivers/STM32F4xx_HAL_Driver/Src/stm32f4xx_hal_i2c.c **** {
 2216              		.loc 1 1207 0
 2217              		.cfi_startproc
 2218              		@ args = 0, pretend = 0, frame = 16
 2219              		@ frame_needed = 1, uses_anonymous_args = 0
 2220 0000 80B5     		push	{r7, lr}
 2221              	.LCFI33:
 2222              		.cfi_def_cfa_offset 8
 2223              		.cfi_offset 7, -8
 2224              		.cfi_offset 14, -4
 2225 0002 84B0     		sub	sp, sp, #16
 2226              	.LCFI34:
 2227              		.cfi_def_cfa_offset 24
 2228 0004 00AF     		add	r7, sp, #0
 2229              	.LCFI35:
 2230              		.cfi_def_cfa_register 7
 2231 0006 F860     		str	r0, [r7, #12]
 2232 0008 B960     		str	r1, [r7, #8]
ARM GAS  /tmp/cc5bMm9J.s 			page 61


 2233 000a 1346     		mov	r3, r2
 2234 000c FB80     		strh	r3, [r7, #6]	@ movhi
1208:Drivers/STM32F4xx_HAL_Driver/Src/stm32f4xx_hal_i2c.c ****   if(hi2c->State == HAL_I2C_STATE_READY)
 2235              		.loc 1 1208 0
 2236 000e FB68     		ldr	r3, [r7, #12]
 2237 0010 93F83530 		ldrb	r3, [r3, #53]
 2238 0014 DBB2     		uxtb	r3, r3
 2239 0016 012B     		cmp	r3, #1
 2240 0018 4CD1     		bne	.L129
1209:Drivers/STM32F4xx_HAL_Driver/Src/stm32f4xx_hal_i2c.c ****   {
1210:Drivers/STM32F4xx_HAL_Driver/Src/stm32f4xx_hal_i2c.c ****     if((pData == NULL) || (Size == 0))
 2241              		.loc 1 1210 0
 2242 001a BB68     		ldr	r3, [r7, #8]
 2243 001c 002B     		cmp	r3, #0
 2244 001e 02D0     		beq	.L130
 2245              		.loc 1 1210 0 is_stmt 0 discriminator 1
 2246 0020 FB88     		ldrh	r3, [r7, #6]
 2247 0022 002B     		cmp	r3, #0
 2248 0024 01D1     		bne	.L131
 2249              	.L130:
1211:Drivers/STM32F4xx_HAL_Driver/Src/stm32f4xx_hal_i2c.c ****     {
1212:Drivers/STM32F4xx_HAL_Driver/Src/stm32f4xx_hal_i2c.c ****       return  HAL_ERROR;
 2250              		.loc 1 1212 0 is_stmt 1
 2251 0026 0123     		movs	r3, #1
 2252 0028 45E0     		b	.L132
 2253              	.L131:
1213:Drivers/STM32F4xx_HAL_Driver/Src/stm32f4xx_hal_i2c.c ****     }
1214:Drivers/STM32F4xx_HAL_Driver/Src/stm32f4xx_hal_i2c.c **** 
1215:Drivers/STM32F4xx_HAL_Driver/Src/stm32f4xx_hal_i2c.c ****     /* Wait until BUSY flag is reset */
1216:Drivers/STM32F4xx_HAL_Driver/Src/stm32f4xx_hal_i2c.c ****     if(I2C_WaitOnFlagUntilTimeout(hi2c, I2C_FLAG_BUSY, SET, I2C_TIMEOUT_BUSY_FLAG) != HAL_OK)
 2254              		.loc 1 1216 0
 2255 002a F868     		ldr	r0, [r7, #12]
 2256 002c 2449     		ldr	r1, .L135
 2257 002e 0122     		movs	r2, #1
 2258 0030 42F21073 		movw	r3, #10000
 2259 0034 FFF7FEFF 		bl	I2C_WaitOnFlagUntilTimeout
 2260 0038 0346     		mov	r3, r0
 2261 003a 002B     		cmp	r3, #0
 2262 003c 01D0     		beq	.L133
1217:Drivers/STM32F4xx_HAL_Driver/Src/stm32f4xx_hal_i2c.c ****     {
1218:Drivers/STM32F4xx_HAL_Driver/Src/stm32f4xx_hal_i2c.c ****       return HAL_BUSY;
 2263              		.loc 1 1218 0
 2264 003e 0223     		movs	r3, #2
 2265 0040 39E0     		b	.L132
 2266              	.L133:
1219:Drivers/STM32F4xx_HAL_Driver/Src/stm32f4xx_hal_i2c.c ****     }
1220:Drivers/STM32F4xx_HAL_Driver/Src/stm32f4xx_hal_i2c.c **** 
1221:Drivers/STM32F4xx_HAL_Driver/Src/stm32f4xx_hal_i2c.c ****     /* Process Locked */
1222:Drivers/STM32F4xx_HAL_Driver/Src/stm32f4xx_hal_i2c.c ****     __HAL_LOCK(hi2c);
 2267              		.loc 1 1222 0
 2268 0042 FB68     		ldr	r3, [r7, #12]
 2269 0044 93F83430 		ldrb	r3, [r3, #52]	@ zero_extendqisi2
 2270 0048 012B     		cmp	r3, #1
 2271 004a 01D1     		bne	.L134
 2272              		.loc 1 1222 0 is_stmt 0 discriminator 1
 2273 004c 0223     		movs	r3, #2
 2274 004e 32E0     		b	.L132
ARM GAS  /tmp/cc5bMm9J.s 			page 62


 2275              	.L134:
 2276              		.loc 1 1222 0 discriminator 2
 2277 0050 FB68     		ldr	r3, [r7, #12]
 2278 0052 0122     		movs	r2, #1
 2279 0054 83F83420 		strb	r2, [r3, #52]
1223:Drivers/STM32F4xx_HAL_Driver/Src/stm32f4xx_hal_i2c.c ****     
1224:Drivers/STM32F4xx_HAL_Driver/Src/stm32f4xx_hal_i2c.c ****     /* Disable Pos */
1225:Drivers/STM32F4xx_HAL_Driver/Src/stm32f4xx_hal_i2c.c ****     hi2c->Instance->CR1 &= ~I2C_CR1_POS;
 2280              		.loc 1 1225 0 is_stmt 1 discriminator 2
 2281 0058 FB68     		ldr	r3, [r7, #12]
 2282 005a 1B68     		ldr	r3, [r3]
 2283 005c FA68     		ldr	r2, [r7, #12]
 2284 005e 1268     		ldr	r2, [r2]
 2285 0060 1268     		ldr	r2, [r2]
 2286 0062 22F40062 		bic	r2, r2, #2048
 2287 0066 1A60     		str	r2, [r3]
1226:Drivers/STM32F4xx_HAL_Driver/Src/stm32f4xx_hal_i2c.c **** 
1227:Drivers/STM32F4xx_HAL_Driver/Src/stm32f4xx_hal_i2c.c ****     hi2c->State = HAL_I2C_STATE_BUSY_RX;
 2288              		.loc 1 1227 0 discriminator 2
 2289 0068 FB68     		ldr	r3, [r7, #12]
 2290 006a 2222     		movs	r2, #34
 2291 006c 83F83520 		strb	r2, [r3, #53]
1228:Drivers/STM32F4xx_HAL_Driver/Src/stm32f4xx_hal_i2c.c ****     hi2c->ErrorCode = HAL_I2C_ERROR_NONE;
 2292              		.loc 1 1228 0 discriminator 2
 2293 0070 FB68     		ldr	r3, [r7, #12]
 2294 0072 0022     		movs	r2, #0
 2295 0074 9A63     		str	r2, [r3, #56]
1229:Drivers/STM32F4xx_HAL_Driver/Src/stm32f4xx_hal_i2c.c **** 
1230:Drivers/STM32F4xx_HAL_Driver/Src/stm32f4xx_hal_i2c.c ****     hi2c->pBuffPtr = pData;
 2296              		.loc 1 1230 0 discriminator 2
 2297 0076 FB68     		ldr	r3, [r7, #12]
 2298 0078 BA68     		ldr	r2, [r7, #8]
 2299 007a 5A62     		str	r2, [r3, #36]
1231:Drivers/STM32F4xx_HAL_Driver/Src/stm32f4xx_hal_i2c.c ****     hi2c->XferSize = Size;
 2300              		.loc 1 1231 0 discriminator 2
 2301 007c FB68     		ldr	r3, [r7, #12]
 2302 007e FA88     		ldrh	r2, [r7, #6]	@ movhi
 2303 0080 1A85     		strh	r2, [r3, #40]	@ movhi
1232:Drivers/STM32F4xx_HAL_Driver/Src/stm32f4xx_hal_i2c.c ****     hi2c->XferCount = Size;
 2304              		.loc 1 1232 0 discriminator 2
 2305 0082 FB68     		ldr	r3, [r7, #12]
 2306 0084 FA88     		ldrh	r2, [r7, #6]	@ movhi
 2307 0086 5A85     		strh	r2, [r3, #42]	@ movhi
1233:Drivers/STM32F4xx_HAL_Driver/Src/stm32f4xx_hal_i2c.c **** 
1234:Drivers/STM32F4xx_HAL_Driver/Src/stm32f4xx_hal_i2c.c ****     /* Enable Address Acknowledge */
1235:Drivers/STM32F4xx_HAL_Driver/Src/stm32f4xx_hal_i2c.c ****     hi2c->Instance->CR1 |= I2C_CR1_ACK;
 2308              		.loc 1 1235 0 discriminator 2
 2309 0088 FB68     		ldr	r3, [r7, #12]
 2310 008a 1B68     		ldr	r3, [r3]
 2311 008c FA68     		ldr	r2, [r7, #12]
 2312 008e 1268     		ldr	r2, [r2]
 2313 0090 1268     		ldr	r2, [r2]
 2314 0092 42F48062 		orr	r2, r2, #1024
 2315 0096 1A60     		str	r2, [r3]
1236:Drivers/STM32F4xx_HAL_Driver/Src/stm32f4xx_hal_i2c.c **** 
1237:Drivers/STM32F4xx_HAL_Driver/Src/stm32f4xx_hal_i2c.c ****     /* Process Unlocked */
1238:Drivers/STM32F4xx_HAL_Driver/Src/stm32f4xx_hal_i2c.c ****     __HAL_UNLOCK(hi2c);
ARM GAS  /tmp/cc5bMm9J.s 			page 63


 2316              		.loc 1 1238 0 discriminator 2
 2317 0098 FB68     		ldr	r3, [r7, #12]
 2318 009a 0022     		movs	r2, #0
 2319 009c 83F83420 		strb	r2, [r3, #52]
1239:Drivers/STM32F4xx_HAL_Driver/Src/stm32f4xx_hal_i2c.c **** 
1240:Drivers/STM32F4xx_HAL_Driver/Src/stm32f4xx_hal_i2c.c ****     /* Note : The I2C interrupts must be enabled after unlocking current process
1241:Drivers/STM32F4xx_HAL_Driver/Src/stm32f4xx_hal_i2c.c ****               to avoid the risk of I2C interrupt handle execution before current
1242:Drivers/STM32F4xx_HAL_Driver/Src/stm32f4xx_hal_i2c.c ****               process unlock */
1243:Drivers/STM32F4xx_HAL_Driver/Src/stm32f4xx_hal_i2c.c **** 
1244:Drivers/STM32F4xx_HAL_Driver/Src/stm32f4xx_hal_i2c.c ****     /* Enable EVT, BUF and ERR interrupt */
1245:Drivers/STM32F4xx_HAL_Driver/Src/stm32f4xx_hal_i2c.c ****     __HAL_I2C_ENABLE_IT(hi2c, I2C_IT_EVT | I2C_IT_BUF | I2C_IT_ERR);
 2320              		.loc 1 1245 0 discriminator 2
 2321 00a0 FB68     		ldr	r3, [r7, #12]
 2322 00a2 1B68     		ldr	r3, [r3]
 2323 00a4 FA68     		ldr	r2, [r7, #12]
 2324 00a6 1268     		ldr	r2, [r2]
 2325 00a8 5268     		ldr	r2, [r2, #4]
 2326 00aa 42F4E062 		orr	r2, r2, #1792
 2327 00ae 5A60     		str	r2, [r3, #4]
1246:Drivers/STM32F4xx_HAL_Driver/Src/stm32f4xx_hal_i2c.c **** 
1247:Drivers/STM32F4xx_HAL_Driver/Src/stm32f4xx_hal_i2c.c ****     return HAL_OK;
 2328              		.loc 1 1247 0 discriminator 2
 2329 00b0 0023     		movs	r3, #0
 2330 00b2 00E0     		b	.L132
 2331              	.L129:
1248:Drivers/STM32F4xx_HAL_Driver/Src/stm32f4xx_hal_i2c.c ****   }
1249:Drivers/STM32F4xx_HAL_Driver/Src/stm32f4xx_hal_i2c.c ****   else
1250:Drivers/STM32F4xx_HAL_Driver/Src/stm32f4xx_hal_i2c.c ****   {
1251:Drivers/STM32F4xx_HAL_Driver/Src/stm32f4xx_hal_i2c.c ****     return HAL_BUSY;
 2332              		.loc 1 1251 0
 2333 00b4 0223     		movs	r3, #2
 2334              	.L132:
1252:Drivers/STM32F4xx_HAL_Driver/Src/stm32f4xx_hal_i2c.c ****   }
1253:Drivers/STM32F4xx_HAL_Driver/Src/stm32f4xx_hal_i2c.c **** }
 2335              		.loc 1 1253 0
 2336 00b6 1846     		mov	r0, r3
 2337 00b8 1037     		adds	r7, r7, #16
 2338 00ba BD46     		mov	sp, r7
 2339              		@ sp needed
 2340 00bc 80BD     		pop	{r7, pc}
 2341              	.L136:
 2342 00be 00BF     		.align	2
 2343              	.L135:
 2344 00c0 02001000 		.word	1048578
 2345              		.cfi_endproc
 2346              	.LFE136:
 2348              		.section	.text.HAL_I2C_Master_Transmit_DMA,"ax",%progbits
 2349              		.align	2
 2350              		.global	HAL_I2C_Master_Transmit_DMA
 2351              		.thumb
 2352              		.thumb_func
 2354              	HAL_I2C_Master_Transmit_DMA:
 2355              	.LFB137:
1254:Drivers/STM32F4xx_HAL_Driver/Src/stm32f4xx_hal_i2c.c **** 
1255:Drivers/STM32F4xx_HAL_Driver/Src/stm32f4xx_hal_i2c.c **** /**
1256:Drivers/STM32F4xx_HAL_Driver/Src/stm32f4xx_hal_i2c.c ****   * @brief  Transmit in master mode an amount of data in no-blocking mode with DMA
1257:Drivers/STM32F4xx_HAL_Driver/Src/stm32f4xx_hal_i2c.c ****   * @param  hi2c: pointer to a I2C_HandleTypeDef structure that contains
ARM GAS  /tmp/cc5bMm9J.s 			page 64


1258:Drivers/STM32F4xx_HAL_Driver/Src/stm32f4xx_hal_i2c.c ****   *         the configuration information for I2C module
1259:Drivers/STM32F4xx_HAL_Driver/Src/stm32f4xx_hal_i2c.c ****   * @param  DevAddress: Target device address
1260:Drivers/STM32F4xx_HAL_Driver/Src/stm32f4xx_hal_i2c.c ****   * @param  pData: Pointer to data buffer
1261:Drivers/STM32F4xx_HAL_Driver/Src/stm32f4xx_hal_i2c.c ****   * @param  Size: Amount of data to be sent
1262:Drivers/STM32F4xx_HAL_Driver/Src/stm32f4xx_hal_i2c.c ****   * @retval HAL status
1263:Drivers/STM32F4xx_HAL_Driver/Src/stm32f4xx_hal_i2c.c ****   */
1264:Drivers/STM32F4xx_HAL_Driver/Src/stm32f4xx_hal_i2c.c **** HAL_StatusTypeDef HAL_I2C_Master_Transmit_DMA(I2C_HandleTypeDef *hi2c, uint16_t DevAddress, uint8_t
1265:Drivers/STM32F4xx_HAL_Driver/Src/stm32f4xx_hal_i2c.c **** {
 2356              		.loc 1 1265 0
 2357              		.cfi_startproc
 2358              		@ args = 0, pretend = 0, frame = 24
 2359              		@ frame_needed = 1, uses_anonymous_args = 0
 2360 0000 80B5     		push	{r7, lr}
 2361              	.LCFI36:
 2362              		.cfi_def_cfa_offset 8
 2363              		.cfi_offset 7, -8
 2364              		.cfi_offset 14, -4
 2365 0002 86B0     		sub	sp, sp, #24
 2366              	.LCFI37:
 2367              		.cfi_def_cfa_offset 32
 2368 0004 00AF     		add	r7, sp, #0
 2369              	.LCFI38:
 2370              		.cfi_def_cfa_register 7
 2371 0006 F860     		str	r0, [r7, #12]
 2372 0008 7A60     		str	r2, [r7, #4]
 2373 000a 0A46     		mov	r2, r1	@ movhi
 2374 000c 7A81     		strh	r2, [r7, #10]	@ movhi
 2375 000e 3B81     		strh	r3, [r7, #8]	@ movhi
1266:Drivers/STM32F4xx_HAL_Driver/Src/stm32f4xx_hal_i2c.c ****   if(hi2c->State == HAL_I2C_STATE_READY)
 2376              		.loc 1 1266 0
 2377 0010 FB68     		ldr	r3, [r7, #12]
 2378 0012 93F83530 		ldrb	r3, [r3, #53]
 2379 0016 DBB2     		uxtb	r3, r3
 2380 0018 012B     		cmp	r3, #1
 2381 001a 78D1     		bne	.L138
1267:Drivers/STM32F4xx_HAL_Driver/Src/stm32f4xx_hal_i2c.c ****   {
1268:Drivers/STM32F4xx_HAL_Driver/Src/stm32f4xx_hal_i2c.c ****     if((pData == NULL) || (Size == 0))
 2382              		.loc 1 1268 0
 2383 001c 7B68     		ldr	r3, [r7, #4]
 2384 001e 002B     		cmp	r3, #0
 2385 0020 02D0     		beq	.L139
 2386              		.loc 1 1268 0 is_stmt 0 discriminator 1
 2387 0022 3B89     		ldrh	r3, [r7, #8]
 2388 0024 002B     		cmp	r3, #0
 2389 0026 01D1     		bne	.L140
 2390              	.L139:
1269:Drivers/STM32F4xx_HAL_Driver/Src/stm32f4xx_hal_i2c.c ****     {
1270:Drivers/STM32F4xx_HAL_Driver/Src/stm32f4xx_hal_i2c.c ****       return  HAL_ERROR;
 2391              		.loc 1 1270 0 is_stmt 1
 2392 0028 0123     		movs	r3, #1
 2393 002a 71E0     		b	.L141
 2394              	.L140:
1271:Drivers/STM32F4xx_HAL_Driver/Src/stm32f4xx_hal_i2c.c ****     }
1272:Drivers/STM32F4xx_HAL_Driver/Src/stm32f4xx_hal_i2c.c **** 
1273:Drivers/STM32F4xx_HAL_Driver/Src/stm32f4xx_hal_i2c.c ****     /* Wait until BUSY flag is reset */
1274:Drivers/STM32F4xx_HAL_Driver/Src/stm32f4xx_hal_i2c.c ****     if(I2C_WaitOnFlagUntilTimeout(hi2c, I2C_FLAG_BUSY, SET, I2C_TIMEOUT_BUSY_FLAG) != HAL_OK)
 2395              		.loc 1 1274 0
ARM GAS  /tmp/cc5bMm9J.s 			page 65


 2396 002c F868     		ldr	r0, [r7, #12]
 2397 002e 3A49     		ldr	r1, .L146
 2398 0030 0122     		movs	r2, #1
 2399 0032 42F21073 		movw	r3, #10000
 2400 0036 FFF7FEFF 		bl	I2C_WaitOnFlagUntilTimeout
 2401 003a 0346     		mov	r3, r0
 2402 003c 002B     		cmp	r3, #0
 2403 003e 01D0     		beq	.L142
1275:Drivers/STM32F4xx_HAL_Driver/Src/stm32f4xx_hal_i2c.c ****     {
1276:Drivers/STM32F4xx_HAL_Driver/Src/stm32f4xx_hal_i2c.c ****       return HAL_BUSY;
 2404              		.loc 1 1276 0
 2405 0040 0223     		movs	r3, #2
 2406 0042 65E0     		b	.L141
 2407              	.L142:
1277:Drivers/STM32F4xx_HAL_Driver/Src/stm32f4xx_hal_i2c.c ****     }
1278:Drivers/STM32F4xx_HAL_Driver/Src/stm32f4xx_hal_i2c.c **** 
1279:Drivers/STM32F4xx_HAL_Driver/Src/stm32f4xx_hal_i2c.c ****     /* Process Locked */
1280:Drivers/STM32F4xx_HAL_Driver/Src/stm32f4xx_hal_i2c.c ****     __HAL_LOCK(hi2c);
 2408              		.loc 1 1280 0
 2409 0044 FB68     		ldr	r3, [r7, #12]
 2410 0046 93F83430 		ldrb	r3, [r3, #52]	@ zero_extendqisi2
 2411 004a 012B     		cmp	r3, #1
 2412 004c 01D1     		bne	.L143
 2413              		.loc 1 1280 0 is_stmt 0 discriminator 1
 2414 004e 0223     		movs	r3, #2
 2415 0050 5EE0     		b	.L141
 2416              	.L143:
 2417              		.loc 1 1280 0 discriminator 2
 2418 0052 FB68     		ldr	r3, [r7, #12]
 2419 0054 0122     		movs	r2, #1
 2420 0056 83F83420 		strb	r2, [r3, #52]
1281:Drivers/STM32F4xx_HAL_Driver/Src/stm32f4xx_hal_i2c.c ****     
1282:Drivers/STM32F4xx_HAL_Driver/Src/stm32f4xx_hal_i2c.c ****     /* Disable Pos */
1283:Drivers/STM32F4xx_HAL_Driver/Src/stm32f4xx_hal_i2c.c ****     hi2c->Instance->CR1 &= ~I2C_CR1_POS;
 2421              		.loc 1 1283 0 is_stmt 1 discriminator 2
 2422 005a FB68     		ldr	r3, [r7, #12]
 2423 005c 1B68     		ldr	r3, [r3]
 2424 005e FA68     		ldr	r2, [r7, #12]
 2425 0060 1268     		ldr	r2, [r2]
 2426 0062 1268     		ldr	r2, [r2]
 2427 0064 22F40062 		bic	r2, r2, #2048
 2428 0068 1A60     		str	r2, [r3]
1284:Drivers/STM32F4xx_HAL_Driver/Src/stm32f4xx_hal_i2c.c **** 
1285:Drivers/STM32F4xx_HAL_Driver/Src/stm32f4xx_hal_i2c.c ****     hi2c->State = HAL_I2C_STATE_BUSY_TX;
 2429              		.loc 1 1285 0 discriminator 2
 2430 006a FB68     		ldr	r3, [r7, #12]
 2431 006c 1222     		movs	r2, #18
 2432 006e 83F83520 		strb	r2, [r3, #53]
1286:Drivers/STM32F4xx_HAL_Driver/Src/stm32f4xx_hal_i2c.c ****     hi2c->ErrorCode = HAL_I2C_ERROR_NONE;
 2433              		.loc 1 1286 0 discriminator 2
 2434 0072 FB68     		ldr	r3, [r7, #12]
 2435 0074 0022     		movs	r2, #0
 2436 0076 9A63     		str	r2, [r3, #56]
1287:Drivers/STM32F4xx_HAL_Driver/Src/stm32f4xx_hal_i2c.c **** 
1288:Drivers/STM32F4xx_HAL_Driver/Src/stm32f4xx_hal_i2c.c ****     hi2c->pBuffPtr = pData;
 2437              		.loc 1 1288 0 discriminator 2
 2438 0078 FB68     		ldr	r3, [r7, #12]
ARM GAS  /tmp/cc5bMm9J.s 			page 66


 2439 007a 7A68     		ldr	r2, [r7, #4]
 2440 007c 5A62     		str	r2, [r3, #36]
1289:Drivers/STM32F4xx_HAL_Driver/Src/stm32f4xx_hal_i2c.c ****     hi2c->XferSize = Size;
 2441              		.loc 1 1289 0 discriminator 2
 2442 007e FB68     		ldr	r3, [r7, #12]
 2443 0080 3A89     		ldrh	r2, [r7, #8]	@ movhi
 2444 0082 1A85     		strh	r2, [r3, #40]	@ movhi
1290:Drivers/STM32F4xx_HAL_Driver/Src/stm32f4xx_hal_i2c.c ****     hi2c->XferCount = Size;
 2445              		.loc 1 1290 0 discriminator 2
 2446 0084 FB68     		ldr	r3, [r7, #12]
 2447 0086 3A89     		ldrh	r2, [r7, #8]	@ movhi
 2448 0088 5A85     		strh	r2, [r3, #42]	@ movhi
1291:Drivers/STM32F4xx_HAL_Driver/Src/stm32f4xx_hal_i2c.c **** 
1292:Drivers/STM32F4xx_HAL_Driver/Src/stm32f4xx_hal_i2c.c ****     /* Set the I2C DMA transfer complete callback */
1293:Drivers/STM32F4xx_HAL_Driver/Src/stm32f4xx_hal_i2c.c ****     hi2c->hdmatx->XferCpltCallback = I2C_DMAMasterTransmitCplt;
 2449              		.loc 1 1293 0 discriminator 2
 2450 008a FB68     		ldr	r3, [r7, #12]
 2451 008c DB6A     		ldr	r3, [r3, #44]
 2452 008e 234A     		ldr	r2, .L146+4
 2453 0090 DA63     		str	r2, [r3, #60]
1294:Drivers/STM32F4xx_HAL_Driver/Src/stm32f4xx_hal_i2c.c **** 
1295:Drivers/STM32F4xx_HAL_Driver/Src/stm32f4xx_hal_i2c.c ****     /* Set the DMA error callback */
1296:Drivers/STM32F4xx_HAL_Driver/Src/stm32f4xx_hal_i2c.c ****     hi2c->hdmatx->XferErrorCallback = I2C_DMAError;
 2454              		.loc 1 1296 0 discriminator 2
 2455 0092 FB68     		ldr	r3, [r7, #12]
 2456 0094 DB6A     		ldr	r3, [r3, #44]
 2457 0096 224A     		ldr	r2, .L146+8
 2458 0098 9A64     		str	r2, [r3, #72]
1297:Drivers/STM32F4xx_HAL_Driver/Src/stm32f4xx_hal_i2c.c **** 
1298:Drivers/STM32F4xx_HAL_Driver/Src/stm32f4xx_hal_i2c.c ****     /* Enable the DMA Stream */
1299:Drivers/STM32F4xx_HAL_Driver/Src/stm32f4xx_hal_i2c.c ****     HAL_DMA_Start_IT(hi2c->hdmatx, (uint32_t)pData, (uint32_t)&hi2c->Instance->DR, Size);
 2459              		.loc 1 1299 0 discriminator 2
 2460 009a FB68     		ldr	r3, [r7, #12]
 2461 009c D86A     		ldr	r0, [r3, #44]
 2462 009e 7968     		ldr	r1, [r7, #4]
 2463 00a0 FB68     		ldr	r3, [r7, #12]
 2464 00a2 1B68     		ldr	r3, [r3]
 2465 00a4 1033     		adds	r3, r3, #16
 2466 00a6 1A46     		mov	r2, r3
 2467 00a8 3B89     		ldrh	r3, [r7, #8]
 2468 00aa FFF7FEFF 		bl	HAL_DMA_Start_IT
1300:Drivers/STM32F4xx_HAL_Driver/Src/stm32f4xx_hal_i2c.c **** 
1301:Drivers/STM32F4xx_HAL_Driver/Src/stm32f4xx_hal_i2c.c ****     /* Send Slave Address */
1302:Drivers/STM32F4xx_HAL_Driver/Src/stm32f4xx_hal_i2c.c ****     if(I2C_MasterRequestWrite(hi2c, DevAddress, I2C_TIMEOUT_FLAG) != HAL_OK)
 2469              		.loc 1 1302 0 discriminator 2
 2470 00ae 7B89     		ldrh	r3, [r7, #10]
 2471 00b0 F868     		ldr	r0, [r7, #12]
 2472 00b2 1946     		mov	r1, r3
 2473 00b4 2322     		movs	r2, #35
 2474 00b6 FFF7FEFF 		bl	I2C_MasterRequestWrite
 2475 00ba 0346     		mov	r3, r0
 2476 00bc 002B     		cmp	r3, #0
 2477 00be 0FD0     		beq	.L144
1303:Drivers/STM32F4xx_HAL_Driver/Src/stm32f4xx_hal_i2c.c ****     {
1304:Drivers/STM32F4xx_HAL_Driver/Src/stm32f4xx_hal_i2c.c ****       if(hi2c->ErrorCode == HAL_I2C_ERROR_AF)
 2478              		.loc 1 1304 0
 2479 00c0 FB68     		ldr	r3, [r7, #12]
ARM GAS  /tmp/cc5bMm9J.s 			page 67


 2480 00c2 9B6B     		ldr	r3, [r3, #56]
 2481 00c4 042B     		cmp	r3, #4
 2482 00c6 05D1     		bne	.L145
1305:Drivers/STM32F4xx_HAL_Driver/Src/stm32f4xx_hal_i2c.c ****       {
1306:Drivers/STM32F4xx_HAL_Driver/Src/stm32f4xx_hal_i2c.c ****         /* Process Unlocked */
1307:Drivers/STM32F4xx_HAL_Driver/Src/stm32f4xx_hal_i2c.c ****         __HAL_UNLOCK(hi2c);
 2483              		.loc 1 1307 0
 2484 00c8 FB68     		ldr	r3, [r7, #12]
 2485 00ca 0022     		movs	r2, #0
 2486 00cc 83F83420 		strb	r2, [r3, #52]
1308:Drivers/STM32F4xx_HAL_Driver/Src/stm32f4xx_hal_i2c.c ****         return HAL_ERROR;
 2487              		.loc 1 1308 0
 2488 00d0 0123     		movs	r3, #1
 2489 00d2 1DE0     		b	.L141
 2490              	.L145:
1309:Drivers/STM32F4xx_HAL_Driver/Src/stm32f4xx_hal_i2c.c ****       }
1310:Drivers/STM32F4xx_HAL_Driver/Src/stm32f4xx_hal_i2c.c ****       else
1311:Drivers/STM32F4xx_HAL_Driver/Src/stm32f4xx_hal_i2c.c ****       {
1312:Drivers/STM32F4xx_HAL_Driver/Src/stm32f4xx_hal_i2c.c ****         /* Process Unlocked */
1313:Drivers/STM32F4xx_HAL_Driver/Src/stm32f4xx_hal_i2c.c ****         __HAL_UNLOCK(hi2c);
 2491              		.loc 1 1313 0
 2492 00d4 FB68     		ldr	r3, [r7, #12]
 2493 00d6 0022     		movs	r2, #0
 2494 00d8 83F83420 		strb	r2, [r3, #52]
1314:Drivers/STM32F4xx_HAL_Driver/Src/stm32f4xx_hal_i2c.c ****         return HAL_TIMEOUT;
 2495              		.loc 1 1314 0
 2496 00dc 0323     		movs	r3, #3
 2497 00de 17E0     		b	.L141
 2498              	.L144:
1315:Drivers/STM32F4xx_HAL_Driver/Src/stm32f4xx_hal_i2c.c ****       }
1316:Drivers/STM32F4xx_HAL_Driver/Src/stm32f4xx_hal_i2c.c ****     }
1317:Drivers/STM32F4xx_HAL_Driver/Src/stm32f4xx_hal_i2c.c **** 
1318:Drivers/STM32F4xx_HAL_Driver/Src/stm32f4xx_hal_i2c.c ****     /* Enable DMA Request */
1319:Drivers/STM32F4xx_HAL_Driver/Src/stm32f4xx_hal_i2c.c ****     hi2c->Instance->CR2 |= I2C_CR2_DMAEN;
 2499              		.loc 1 1319 0
 2500 00e0 FB68     		ldr	r3, [r7, #12]
 2501 00e2 1B68     		ldr	r3, [r3]
 2502 00e4 FA68     		ldr	r2, [r7, #12]
 2503 00e6 1268     		ldr	r2, [r2]
 2504 00e8 5268     		ldr	r2, [r2, #4]
 2505 00ea 42F40062 		orr	r2, r2, #2048
 2506 00ee 5A60     		str	r2, [r3, #4]
 2507              	.LBB14:
1320:Drivers/STM32F4xx_HAL_Driver/Src/stm32f4xx_hal_i2c.c **** 
1321:Drivers/STM32F4xx_HAL_Driver/Src/stm32f4xx_hal_i2c.c ****     /* Clear ADDR flag */
1322:Drivers/STM32F4xx_HAL_Driver/Src/stm32f4xx_hal_i2c.c ****     __HAL_I2C_CLEAR_ADDRFLAG(hi2c);
 2508              		.loc 1 1322 0
 2509 00f0 FB68     		ldr	r3, [r7, #12]
 2510 00f2 1B68     		ldr	r3, [r3]
 2511 00f4 5B69     		ldr	r3, [r3, #20]
 2512 00f6 7B61     		str	r3, [r7, #20]
 2513 00f8 FB68     		ldr	r3, [r7, #12]
 2514 00fa 1B68     		ldr	r3, [r3]
 2515 00fc 9B69     		ldr	r3, [r3, #24]
 2516 00fe 7B61     		str	r3, [r7, #20]
 2517 0100 7B69     		ldr	r3, [r7, #20]
 2518              	.LBE14:
ARM GAS  /tmp/cc5bMm9J.s 			page 68


1323:Drivers/STM32F4xx_HAL_Driver/Src/stm32f4xx_hal_i2c.c **** 
1324:Drivers/STM32F4xx_HAL_Driver/Src/stm32f4xx_hal_i2c.c ****     /* Process Unlocked */
1325:Drivers/STM32F4xx_HAL_Driver/Src/stm32f4xx_hal_i2c.c ****     __HAL_UNLOCK(hi2c);
 2519              		.loc 1 1325 0
 2520 0102 FB68     		ldr	r3, [r7, #12]
 2521 0104 0022     		movs	r2, #0
 2522 0106 83F83420 		strb	r2, [r3, #52]
1326:Drivers/STM32F4xx_HAL_Driver/Src/stm32f4xx_hal_i2c.c **** 
1327:Drivers/STM32F4xx_HAL_Driver/Src/stm32f4xx_hal_i2c.c ****     return HAL_OK;
 2523              		.loc 1 1327 0
 2524 010a 0023     		movs	r3, #0
 2525 010c 00E0     		b	.L141
 2526              	.L138:
1328:Drivers/STM32F4xx_HAL_Driver/Src/stm32f4xx_hal_i2c.c ****   }
1329:Drivers/STM32F4xx_HAL_Driver/Src/stm32f4xx_hal_i2c.c ****   else
1330:Drivers/STM32F4xx_HAL_Driver/Src/stm32f4xx_hal_i2c.c ****   {
1331:Drivers/STM32F4xx_HAL_Driver/Src/stm32f4xx_hal_i2c.c ****     return HAL_BUSY;
 2527              		.loc 1 1331 0
 2528 010e 0223     		movs	r3, #2
 2529              	.L141:
1332:Drivers/STM32F4xx_HAL_Driver/Src/stm32f4xx_hal_i2c.c ****   }
1333:Drivers/STM32F4xx_HAL_Driver/Src/stm32f4xx_hal_i2c.c **** }
 2530              		.loc 1 1333 0
 2531 0110 1846     		mov	r0, r3
 2532 0112 1837     		adds	r7, r7, #24
 2533 0114 BD46     		mov	sp, r7
 2534              		@ sp needed
 2535 0116 80BD     		pop	{r7, pc}
 2536              	.L147:
 2537              		.align	2
 2538              	.L146:
 2539 0118 02001000 		.word	1048578
 2540 011c 00000000 		.word	I2C_DMAMasterTransmitCplt
 2541 0120 00000000 		.word	I2C_DMAError
 2542              		.cfi_endproc
 2543              	.LFE137:
 2545              		.section	.text.HAL_I2C_Master_Receive_DMA,"ax",%progbits
 2546              		.align	2
 2547              		.global	HAL_I2C_Master_Receive_DMA
 2548              		.thumb
 2549              		.thumb_func
 2551              	HAL_I2C_Master_Receive_DMA:
 2552              	.LFB138:
1334:Drivers/STM32F4xx_HAL_Driver/Src/stm32f4xx_hal_i2c.c **** 
1335:Drivers/STM32F4xx_HAL_Driver/Src/stm32f4xx_hal_i2c.c **** /**
1336:Drivers/STM32F4xx_HAL_Driver/Src/stm32f4xx_hal_i2c.c ****   * @brief  Receive in master mode an amount of data in no-blocking mode with DMA
1337:Drivers/STM32F4xx_HAL_Driver/Src/stm32f4xx_hal_i2c.c ****   * @param  hi2c: pointer to a I2C_HandleTypeDef structure that contains
1338:Drivers/STM32F4xx_HAL_Driver/Src/stm32f4xx_hal_i2c.c ****   *         the configuration information for I2C module
1339:Drivers/STM32F4xx_HAL_Driver/Src/stm32f4xx_hal_i2c.c ****   * @param  DevAddress: Target device address
1340:Drivers/STM32F4xx_HAL_Driver/Src/stm32f4xx_hal_i2c.c ****   * @param  pData: Pointer to data buffer
1341:Drivers/STM32F4xx_HAL_Driver/Src/stm32f4xx_hal_i2c.c ****   * @param  Size: Amount of data to be sent
1342:Drivers/STM32F4xx_HAL_Driver/Src/stm32f4xx_hal_i2c.c ****   * @retval HAL status
1343:Drivers/STM32F4xx_HAL_Driver/Src/stm32f4xx_hal_i2c.c ****   */
1344:Drivers/STM32F4xx_HAL_Driver/Src/stm32f4xx_hal_i2c.c **** HAL_StatusTypeDef HAL_I2C_Master_Receive_DMA(I2C_HandleTypeDef *hi2c, uint16_t DevAddress, uint8_t 
1345:Drivers/STM32F4xx_HAL_Driver/Src/stm32f4xx_hal_i2c.c **** {
 2553              		.loc 1 1345 0
 2554              		.cfi_startproc
ARM GAS  /tmp/cc5bMm9J.s 			page 69


 2555              		@ args = 0, pretend = 0, frame = 24
 2556              		@ frame_needed = 1, uses_anonymous_args = 0
 2557 0000 80B5     		push	{r7, lr}
 2558              	.LCFI39:
 2559              		.cfi_def_cfa_offset 8
 2560              		.cfi_offset 7, -8
 2561              		.cfi_offset 14, -4
 2562 0002 86B0     		sub	sp, sp, #24
 2563              	.LCFI40:
 2564              		.cfi_def_cfa_offset 32
 2565 0004 00AF     		add	r7, sp, #0
 2566              	.LCFI41:
 2567              		.cfi_def_cfa_register 7
 2568 0006 F860     		str	r0, [r7, #12]
 2569 0008 7A60     		str	r2, [r7, #4]
 2570 000a 0A46     		mov	r2, r1	@ movhi
 2571 000c 7A81     		strh	r2, [r7, #10]	@ movhi
 2572 000e 3B81     		strh	r3, [r7, #8]	@ movhi
1346:Drivers/STM32F4xx_HAL_Driver/Src/stm32f4xx_hal_i2c.c ****   if(hi2c->State == HAL_I2C_STATE_READY)
 2573              		.loc 1 1346 0
 2574 0010 FB68     		ldr	r3, [r7, #12]
 2575 0012 93F83530 		ldrb	r3, [r3, #53]
 2576 0016 DBB2     		uxtb	r3, r3
 2577 0018 012B     		cmp	r3, #1
 2578 001a 40F08D80 		bne	.L149
1347:Drivers/STM32F4xx_HAL_Driver/Src/stm32f4xx_hal_i2c.c ****   {
1348:Drivers/STM32F4xx_HAL_Driver/Src/stm32f4xx_hal_i2c.c ****     if((pData == NULL) || (Size == 0))
 2579              		.loc 1 1348 0
 2580 001e 7B68     		ldr	r3, [r7, #4]
 2581 0020 002B     		cmp	r3, #0
 2582 0022 02D0     		beq	.L150
 2583              		.loc 1 1348 0 is_stmt 0 discriminator 1
 2584 0024 3B89     		ldrh	r3, [r7, #8]
 2585 0026 002B     		cmp	r3, #0
 2586 0028 01D1     		bne	.L151
 2587              	.L150:
1349:Drivers/STM32F4xx_HAL_Driver/Src/stm32f4xx_hal_i2c.c ****     {
1350:Drivers/STM32F4xx_HAL_Driver/Src/stm32f4xx_hal_i2c.c ****       return  HAL_ERROR;
 2588              		.loc 1 1350 0 is_stmt 1
 2589 002a 0123     		movs	r3, #1
 2590 002c 85E0     		b	.L152
 2591              	.L151:
1351:Drivers/STM32F4xx_HAL_Driver/Src/stm32f4xx_hal_i2c.c ****     }
1352:Drivers/STM32F4xx_HAL_Driver/Src/stm32f4xx_hal_i2c.c **** 
1353:Drivers/STM32F4xx_HAL_Driver/Src/stm32f4xx_hal_i2c.c ****     /* Wait until BUSY flag is reset */
1354:Drivers/STM32F4xx_HAL_Driver/Src/stm32f4xx_hal_i2c.c ****     if(I2C_WaitOnFlagUntilTimeout(hi2c, I2C_FLAG_BUSY, SET, I2C_TIMEOUT_BUSY_FLAG) != HAL_OK)
 2592              		.loc 1 1354 0
 2593 002e F868     		ldr	r0, [r7, #12]
 2594 0030 4449     		ldr	r1, .L159
 2595 0032 0122     		movs	r2, #1
 2596 0034 42F21073 		movw	r3, #10000
 2597 0038 FFF7FEFF 		bl	I2C_WaitOnFlagUntilTimeout
 2598 003c 0346     		mov	r3, r0
 2599 003e 002B     		cmp	r3, #0
 2600 0040 01D0     		beq	.L153
1355:Drivers/STM32F4xx_HAL_Driver/Src/stm32f4xx_hal_i2c.c ****     {
1356:Drivers/STM32F4xx_HAL_Driver/Src/stm32f4xx_hal_i2c.c ****       return HAL_BUSY;
ARM GAS  /tmp/cc5bMm9J.s 			page 70


 2601              		.loc 1 1356 0
 2602 0042 0223     		movs	r3, #2
 2603 0044 79E0     		b	.L152
 2604              	.L153:
1357:Drivers/STM32F4xx_HAL_Driver/Src/stm32f4xx_hal_i2c.c ****     }
1358:Drivers/STM32F4xx_HAL_Driver/Src/stm32f4xx_hal_i2c.c **** 
1359:Drivers/STM32F4xx_HAL_Driver/Src/stm32f4xx_hal_i2c.c ****     /* Process Locked */
1360:Drivers/STM32F4xx_HAL_Driver/Src/stm32f4xx_hal_i2c.c ****     __HAL_LOCK(hi2c);
 2605              		.loc 1 1360 0
 2606 0046 FB68     		ldr	r3, [r7, #12]
 2607 0048 93F83430 		ldrb	r3, [r3, #52]	@ zero_extendqisi2
 2608 004c 012B     		cmp	r3, #1
 2609 004e 01D1     		bne	.L154
 2610              		.loc 1 1360 0 is_stmt 0 discriminator 1
 2611 0050 0223     		movs	r3, #2
 2612 0052 72E0     		b	.L152
 2613              	.L154:
 2614              		.loc 1 1360 0 discriminator 2
 2615 0054 FB68     		ldr	r3, [r7, #12]
 2616 0056 0122     		movs	r2, #1
 2617 0058 83F83420 		strb	r2, [r3, #52]
1361:Drivers/STM32F4xx_HAL_Driver/Src/stm32f4xx_hal_i2c.c ****     
1362:Drivers/STM32F4xx_HAL_Driver/Src/stm32f4xx_hal_i2c.c ****     /* Disable Pos */
1363:Drivers/STM32F4xx_HAL_Driver/Src/stm32f4xx_hal_i2c.c ****     hi2c->Instance->CR1 &= ~I2C_CR1_POS;
 2618              		.loc 1 1363 0 is_stmt 1 discriminator 2
 2619 005c FB68     		ldr	r3, [r7, #12]
 2620 005e 1B68     		ldr	r3, [r3]
 2621 0060 FA68     		ldr	r2, [r7, #12]
 2622 0062 1268     		ldr	r2, [r2]
 2623 0064 1268     		ldr	r2, [r2]
 2624 0066 22F40062 		bic	r2, r2, #2048
 2625 006a 1A60     		str	r2, [r3]
1364:Drivers/STM32F4xx_HAL_Driver/Src/stm32f4xx_hal_i2c.c **** 
1365:Drivers/STM32F4xx_HAL_Driver/Src/stm32f4xx_hal_i2c.c ****     hi2c->State = HAL_I2C_STATE_BUSY_RX;
 2626              		.loc 1 1365 0 discriminator 2
 2627 006c FB68     		ldr	r3, [r7, #12]
 2628 006e 2222     		movs	r2, #34
 2629 0070 83F83520 		strb	r2, [r3, #53]
1366:Drivers/STM32F4xx_HAL_Driver/Src/stm32f4xx_hal_i2c.c ****     hi2c->ErrorCode = HAL_I2C_ERROR_NONE;
 2630              		.loc 1 1366 0 discriminator 2
 2631 0074 FB68     		ldr	r3, [r7, #12]
 2632 0076 0022     		movs	r2, #0
 2633 0078 9A63     		str	r2, [r3, #56]
1367:Drivers/STM32F4xx_HAL_Driver/Src/stm32f4xx_hal_i2c.c **** 
1368:Drivers/STM32F4xx_HAL_Driver/Src/stm32f4xx_hal_i2c.c ****     hi2c->pBuffPtr = pData;
 2634              		.loc 1 1368 0 discriminator 2
 2635 007a FB68     		ldr	r3, [r7, #12]
 2636 007c 7A68     		ldr	r2, [r7, #4]
 2637 007e 5A62     		str	r2, [r3, #36]
1369:Drivers/STM32F4xx_HAL_Driver/Src/stm32f4xx_hal_i2c.c ****     hi2c->XferSize = Size;
 2638              		.loc 1 1369 0 discriminator 2
 2639 0080 FB68     		ldr	r3, [r7, #12]
 2640 0082 3A89     		ldrh	r2, [r7, #8]	@ movhi
 2641 0084 1A85     		strh	r2, [r3, #40]	@ movhi
1370:Drivers/STM32F4xx_HAL_Driver/Src/stm32f4xx_hal_i2c.c ****     hi2c->XferCount = Size;
 2642              		.loc 1 1370 0 discriminator 2
 2643 0086 FB68     		ldr	r3, [r7, #12]
ARM GAS  /tmp/cc5bMm9J.s 			page 71


 2644 0088 3A89     		ldrh	r2, [r7, #8]	@ movhi
 2645 008a 5A85     		strh	r2, [r3, #42]	@ movhi
1371:Drivers/STM32F4xx_HAL_Driver/Src/stm32f4xx_hal_i2c.c **** 
1372:Drivers/STM32F4xx_HAL_Driver/Src/stm32f4xx_hal_i2c.c ****     /* Set the I2C DMA transfer complete callback */
1373:Drivers/STM32F4xx_HAL_Driver/Src/stm32f4xx_hal_i2c.c ****     hi2c->hdmarx->XferCpltCallback = I2C_DMAMasterReceiveCplt;
 2646              		.loc 1 1373 0 discriminator 2
 2647 008c FB68     		ldr	r3, [r7, #12]
 2648 008e 1B6B     		ldr	r3, [r3, #48]
 2649 0090 2D4A     		ldr	r2, .L159+4
 2650 0092 DA63     		str	r2, [r3, #60]
1374:Drivers/STM32F4xx_HAL_Driver/Src/stm32f4xx_hal_i2c.c **** 
1375:Drivers/STM32F4xx_HAL_Driver/Src/stm32f4xx_hal_i2c.c ****     /* Set the DMA error callback */
1376:Drivers/STM32F4xx_HAL_Driver/Src/stm32f4xx_hal_i2c.c ****     hi2c->hdmarx->XferErrorCallback = I2C_DMAError;
 2651              		.loc 1 1376 0 discriminator 2
 2652 0094 FB68     		ldr	r3, [r7, #12]
 2653 0096 1B6B     		ldr	r3, [r3, #48]
 2654 0098 2C4A     		ldr	r2, .L159+8
 2655 009a 9A64     		str	r2, [r3, #72]
1377:Drivers/STM32F4xx_HAL_Driver/Src/stm32f4xx_hal_i2c.c **** 
1378:Drivers/STM32F4xx_HAL_Driver/Src/stm32f4xx_hal_i2c.c ****     /* Enable the DMA Stream */
1379:Drivers/STM32F4xx_HAL_Driver/Src/stm32f4xx_hal_i2c.c ****     HAL_DMA_Start_IT(hi2c->hdmarx, (uint32_t)&hi2c->Instance->DR, (uint32_t)pData, Size);
 2656              		.loc 1 1379 0 discriminator 2
 2657 009c FB68     		ldr	r3, [r7, #12]
 2658 009e 186B     		ldr	r0, [r3, #48]
 2659 00a0 FB68     		ldr	r3, [r7, #12]
 2660 00a2 1B68     		ldr	r3, [r3]
 2661 00a4 1033     		adds	r3, r3, #16
 2662 00a6 1946     		mov	r1, r3
 2663 00a8 7A68     		ldr	r2, [r7, #4]
 2664 00aa 3B89     		ldrh	r3, [r7, #8]
 2665 00ac FFF7FEFF 		bl	HAL_DMA_Start_IT
1380:Drivers/STM32F4xx_HAL_Driver/Src/stm32f4xx_hal_i2c.c **** 
1381:Drivers/STM32F4xx_HAL_Driver/Src/stm32f4xx_hal_i2c.c ****     /* Send Slave Address */
1382:Drivers/STM32F4xx_HAL_Driver/Src/stm32f4xx_hal_i2c.c ****     if(I2C_MasterRequestRead(hi2c, DevAddress, I2C_TIMEOUT_FLAG) != HAL_OK)
 2666              		.loc 1 1382 0 discriminator 2
 2667 00b0 7B89     		ldrh	r3, [r7, #10]
 2668 00b2 F868     		ldr	r0, [r7, #12]
 2669 00b4 1946     		mov	r1, r3
 2670 00b6 2322     		movs	r2, #35
 2671 00b8 FFF7FEFF 		bl	I2C_MasterRequestRead
 2672 00bc 0346     		mov	r3, r0
 2673 00be 002B     		cmp	r3, #0
 2674 00c0 0FD0     		beq	.L155
1383:Drivers/STM32F4xx_HAL_Driver/Src/stm32f4xx_hal_i2c.c ****     {
1384:Drivers/STM32F4xx_HAL_Driver/Src/stm32f4xx_hal_i2c.c ****       if(hi2c->ErrorCode == HAL_I2C_ERROR_AF)
 2675              		.loc 1 1384 0
 2676 00c2 FB68     		ldr	r3, [r7, #12]
 2677 00c4 9B6B     		ldr	r3, [r3, #56]
 2678 00c6 042B     		cmp	r3, #4
 2679 00c8 05D1     		bne	.L156
1385:Drivers/STM32F4xx_HAL_Driver/Src/stm32f4xx_hal_i2c.c ****       {
1386:Drivers/STM32F4xx_HAL_Driver/Src/stm32f4xx_hal_i2c.c ****         /* Process Unlocked */
1387:Drivers/STM32F4xx_HAL_Driver/Src/stm32f4xx_hal_i2c.c ****         __HAL_UNLOCK(hi2c);
 2680              		.loc 1 1387 0
 2681 00ca FB68     		ldr	r3, [r7, #12]
 2682 00cc 0022     		movs	r2, #0
 2683 00ce 83F83420 		strb	r2, [r3, #52]
ARM GAS  /tmp/cc5bMm9J.s 			page 72


1388:Drivers/STM32F4xx_HAL_Driver/Src/stm32f4xx_hal_i2c.c ****         return HAL_ERROR;
 2684              		.loc 1 1388 0
 2685 00d2 0123     		movs	r3, #1
 2686 00d4 31E0     		b	.L152
 2687              	.L156:
1389:Drivers/STM32F4xx_HAL_Driver/Src/stm32f4xx_hal_i2c.c ****       }
1390:Drivers/STM32F4xx_HAL_Driver/Src/stm32f4xx_hal_i2c.c ****       else
1391:Drivers/STM32F4xx_HAL_Driver/Src/stm32f4xx_hal_i2c.c ****       {
1392:Drivers/STM32F4xx_HAL_Driver/Src/stm32f4xx_hal_i2c.c ****         /* Process Unlocked */
1393:Drivers/STM32F4xx_HAL_Driver/Src/stm32f4xx_hal_i2c.c ****         __HAL_UNLOCK(hi2c);
 2688              		.loc 1 1393 0
 2689 00d6 FB68     		ldr	r3, [r7, #12]
 2690 00d8 0022     		movs	r2, #0
 2691 00da 83F83420 		strb	r2, [r3, #52]
1394:Drivers/STM32F4xx_HAL_Driver/Src/stm32f4xx_hal_i2c.c ****         return HAL_TIMEOUT;
 2692              		.loc 1 1394 0
 2693 00de 0323     		movs	r3, #3
 2694 00e0 2BE0     		b	.L152
 2695              	.L155:
1395:Drivers/STM32F4xx_HAL_Driver/Src/stm32f4xx_hal_i2c.c ****       }
1396:Drivers/STM32F4xx_HAL_Driver/Src/stm32f4xx_hal_i2c.c ****     }
1397:Drivers/STM32F4xx_HAL_Driver/Src/stm32f4xx_hal_i2c.c **** 
1398:Drivers/STM32F4xx_HAL_Driver/Src/stm32f4xx_hal_i2c.c ****     if(Size == 1)
 2696              		.loc 1 1398 0
 2697 00e2 3B89     		ldrh	r3, [r7, #8]
 2698 00e4 012B     		cmp	r3, #1
 2699 00e6 08D1     		bne	.L157
1399:Drivers/STM32F4xx_HAL_Driver/Src/stm32f4xx_hal_i2c.c ****     {
1400:Drivers/STM32F4xx_HAL_Driver/Src/stm32f4xx_hal_i2c.c ****       /* Disable Acknowledge */
1401:Drivers/STM32F4xx_HAL_Driver/Src/stm32f4xx_hal_i2c.c ****       hi2c->Instance->CR1 &= ~I2C_CR1_ACK;
 2700              		.loc 1 1401 0
 2701 00e8 FB68     		ldr	r3, [r7, #12]
 2702 00ea 1B68     		ldr	r3, [r3]
 2703 00ec FA68     		ldr	r2, [r7, #12]
 2704 00ee 1268     		ldr	r2, [r2]
 2705 00f0 1268     		ldr	r2, [r2]
 2706 00f2 22F48062 		bic	r2, r2, #1024
 2707 00f6 1A60     		str	r2, [r3]
 2708 00f8 07E0     		b	.L158
 2709              	.L157:
1402:Drivers/STM32F4xx_HAL_Driver/Src/stm32f4xx_hal_i2c.c ****     }
1403:Drivers/STM32F4xx_HAL_Driver/Src/stm32f4xx_hal_i2c.c ****     else
1404:Drivers/STM32F4xx_HAL_Driver/Src/stm32f4xx_hal_i2c.c ****     {
1405:Drivers/STM32F4xx_HAL_Driver/Src/stm32f4xx_hal_i2c.c ****       /* Enable Last DMA bit */
1406:Drivers/STM32F4xx_HAL_Driver/Src/stm32f4xx_hal_i2c.c ****       hi2c->Instance->CR2 |= I2C_CR2_LAST;
 2710              		.loc 1 1406 0
 2711 00fa FB68     		ldr	r3, [r7, #12]
 2712 00fc 1B68     		ldr	r3, [r3]
 2713 00fe FA68     		ldr	r2, [r7, #12]
 2714 0100 1268     		ldr	r2, [r2]
 2715 0102 5268     		ldr	r2, [r2, #4]
 2716 0104 42F48052 		orr	r2, r2, #4096
 2717 0108 5A60     		str	r2, [r3, #4]
 2718              	.L158:
1407:Drivers/STM32F4xx_HAL_Driver/Src/stm32f4xx_hal_i2c.c ****     }
1408:Drivers/STM32F4xx_HAL_Driver/Src/stm32f4xx_hal_i2c.c **** 
1409:Drivers/STM32F4xx_HAL_Driver/Src/stm32f4xx_hal_i2c.c ****     /* Enable DMA Request */
ARM GAS  /tmp/cc5bMm9J.s 			page 73


1410:Drivers/STM32F4xx_HAL_Driver/Src/stm32f4xx_hal_i2c.c ****     hi2c->Instance->CR2 |= I2C_CR2_DMAEN;
 2719              		.loc 1 1410 0
 2720 010a FB68     		ldr	r3, [r7, #12]
 2721 010c 1B68     		ldr	r3, [r3]
 2722 010e FA68     		ldr	r2, [r7, #12]
 2723 0110 1268     		ldr	r2, [r2]
 2724 0112 5268     		ldr	r2, [r2, #4]
 2725 0114 42F40062 		orr	r2, r2, #2048
 2726 0118 5A60     		str	r2, [r3, #4]
 2727              	.LBB15:
1411:Drivers/STM32F4xx_HAL_Driver/Src/stm32f4xx_hal_i2c.c **** 
1412:Drivers/STM32F4xx_HAL_Driver/Src/stm32f4xx_hal_i2c.c ****     /* Clear ADDR flag */
1413:Drivers/STM32F4xx_HAL_Driver/Src/stm32f4xx_hal_i2c.c ****     __HAL_I2C_CLEAR_ADDRFLAG(hi2c);
 2728              		.loc 1 1413 0
 2729 011a FB68     		ldr	r3, [r7, #12]
 2730 011c 1B68     		ldr	r3, [r3]
 2731 011e 5B69     		ldr	r3, [r3, #20]
 2732 0120 7B61     		str	r3, [r7, #20]
 2733 0122 FB68     		ldr	r3, [r7, #12]
 2734 0124 1B68     		ldr	r3, [r3]
 2735 0126 9B69     		ldr	r3, [r3, #24]
 2736 0128 7B61     		str	r3, [r7, #20]
 2737 012a 7B69     		ldr	r3, [r7, #20]
 2738              	.LBE15:
1414:Drivers/STM32F4xx_HAL_Driver/Src/stm32f4xx_hal_i2c.c **** 
1415:Drivers/STM32F4xx_HAL_Driver/Src/stm32f4xx_hal_i2c.c ****     /* Process Unlocked */
1416:Drivers/STM32F4xx_HAL_Driver/Src/stm32f4xx_hal_i2c.c ****     __HAL_UNLOCK(hi2c);
 2739              		.loc 1 1416 0
 2740 012c FB68     		ldr	r3, [r7, #12]
 2741 012e 0022     		movs	r2, #0
 2742 0130 83F83420 		strb	r2, [r3, #52]
1417:Drivers/STM32F4xx_HAL_Driver/Src/stm32f4xx_hal_i2c.c **** 
1418:Drivers/STM32F4xx_HAL_Driver/Src/stm32f4xx_hal_i2c.c ****     return HAL_OK;
 2743              		.loc 1 1418 0
 2744 0134 0023     		movs	r3, #0
 2745 0136 00E0     		b	.L152
 2746              	.L149:
1419:Drivers/STM32F4xx_HAL_Driver/Src/stm32f4xx_hal_i2c.c ****   }
1420:Drivers/STM32F4xx_HAL_Driver/Src/stm32f4xx_hal_i2c.c ****   else
1421:Drivers/STM32F4xx_HAL_Driver/Src/stm32f4xx_hal_i2c.c ****   {
1422:Drivers/STM32F4xx_HAL_Driver/Src/stm32f4xx_hal_i2c.c ****     return HAL_BUSY;
 2747              		.loc 1 1422 0
 2748 0138 0223     		movs	r3, #2
 2749              	.L152:
1423:Drivers/STM32F4xx_HAL_Driver/Src/stm32f4xx_hal_i2c.c ****   }
1424:Drivers/STM32F4xx_HAL_Driver/Src/stm32f4xx_hal_i2c.c **** }
 2750              		.loc 1 1424 0
 2751 013a 1846     		mov	r0, r3
 2752 013c 1837     		adds	r7, r7, #24
 2753 013e BD46     		mov	sp, r7
 2754              		@ sp needed
 2755 0140 80BD     		pop	{r7, pc}
 2756              	.L160:
 2757 0142 00BF     		.align	2
 2758              	.L159:
 2759 0144 02001000 		.word	1048578
 2760 0148 00000000 		.word	I2C_DMAMasterReceiveCplt
ARM GAS  /tmp/cc5bMm9J.s 			page 74


 2761 014c 00000000 		.word	I2C_DMAError
 2762              		.cfi_endproc
 2763              	.LFE138:
 2765              		.section	.text.HAL_I2C_Slave_Transmit_DMA,"ax",%progbits
 2766              		.align	2
 2767              		.global	HAL_I2C_Slave_Transmit_DMA
 2768              		.thumb
 2769              		.thumb_func
 2771              	HAL_I2C_Slave_Transmit_DMA:
 2772              	.LFB139:
1425:Drivers/STM32F4xx_HAL_Driver/Src/stm32f4xx_hal_i2c.c **** 
1426:Drivers/STM32F4xx_HAL_Driver/Src/stm32f4xx_hal_i2c.c **** /**
1427:Drivers/STM32F4xx_HAL_Driver/Src/stm32f4xx_hal_i2c.c ****   * @brief  Transmit in slave mode an amount of data in no-blocking mode with DMA
1428:Drivers/STM32F4xx_HAL_Driver/Src/stm32f4xx_hal_i2c.c ****   * @param  hi2c: pointer to a I2C_HandleTypeDef structure that contains
1429:Drivers/STM32F4xx_HAL_Driver/Src/stm32f4xx_hal_i2c.c ****   *         the configuration information for I2C module
1430:Drivers/STM32F4xx_HAL_Driver/Src/stm32f4xx_hal_i2c.c ****   * @param  pData: Pointer to data buffer
1431:Drivers/STM32F4xx_HAL_Driver/Src/stm32f4xx_hal_i2c.c ****   * @param  Size: Amount of data to be sent
1432:Drivers/STM32F4xx_HAL_Driver/Src/stm32f4xx_hal_i2c.c ****   * @retval HAL status
1433:Drivers/STM32F4xx_HAL_Driver/Src/stm32f4xx_hal_i2c.c ****   */
1434:Drivers/STM32F4xx_HAL_Driver/Src/stm32f4xx_hal_i2c.c **** HAL_StatusTypeDef HAL_I2C_Slave_Transmit_DMA(I2C_HandleTypeDef *hi2c, uint8_t *pData, uint16_t Size
1435:Drivers/STM32F4xx_HAL_Driver/Src/stm32f4xx_hal_i2c.c **** {
 2773              		.loc 1 1435 0
 2774              		.cfi_startproc
 2775              		@ args = 0, pretend = 0, frame = 32
 2776              		@ frame_needed = 1, uses_anonymous_args = 0
 2777 0000 80B5     		push	{r7, lr}
 2778              	.LCFI42:
 2779              		.cfi_def_cfa_offset 8
 2780              		.cfi_offset 7, -8
 2781              		.cfi_offset 14, -4
 2782 0002 88B0     		sub	sp, sp, #32
 2783              	.LCFI43:
 2784              		.cfi_def_cfa_offset 40
 2785 0004 00AF     		add	r7, sp, #0
 2786              	.LCFI44:
 2787              		.cfi_def_cfa_register 7
 2788 0006 F860     		str	r0, [r7, #12]
 2789 0008 B960     		str	r1, [r7, #8]
 2790 000a 1346     		mov	r3, r2
 2791 000c FB80     		strh	r3, [r7, #6]	@ movhi
1436:Drivers/STM32F4xx_HAL_Driver/Src/stm32f4xx_hal_i2c.c ****   if(hi2c->State == HAL_I2C_STATE_READY)
 2792              		.loc 1 1436 0
 2793 000e FB68     		ldr	r3, [r7, #12]
 2794 0010 93F83530 		ldrb	r3, [r3, #53]
 2795 0014 DBB2     		uxtb	r3, r3
 2796 0016 012B     		cmp	r3, #1
 2797 0018 40F09880 		bne	.L162
1437:Drivers/STM32F4xx_HAL_Driver/Src/stm32f4xx_hal_i2c.c ****   {
1438:Drivers/STM32F4xx_HAL_Driver/Src/stm32f4xx_hal_i2c.c ****     if((pData == NULL) || (Size == 0))
 2798              		.loc 1 1438 0
 2799 001c BB68     		ldr	r3, [r7, #8]
 2800 001e 002B     		cmp	r3, #0
 2801 0020 02D0     		beq	.L163
 2802              		.loc 1 1438 0 is_stmt 0 discriminator 1
 2803 0022 FB88     		ldrh	r3, [r7, #6]
 2804 0024 002B     		cmp	r3, #0
 2805 0026 01D1     		bne	.L164
ARM GAS  /tmp/cc5bMm9J.s 			page 75


 2806              	.L163:
1439:Drivers/STM32F4xx_HAL_Driver/Src/stm32f4xx_hal_i2c.c ****     {
1440:Drivers/STM32F4xx_HAL_Driver/Src/stm32f4xx_hal_i2c.c ****       return  HAL_ERROR;
 2807              		.loc 1 1440 0 is_stmt 1
 2808 0028 0123     		movs	r3, #1
 2809 002a 90E0     		b	.L165
 2810              	.L164:
1441:Drivers/STM32F4xx_HAL_Driver/Src/stm32f4xx_hal_i2c.c ****     }
1442:Drivers/STM32F4xx_HAL_Driver/Src/stm32f4xx_hal_i2c.c **** 
1443:Drivers/STM32F4xx_HAL_Driver/Src/stm32f4xx_hal_i2c.c ****     /* Wait until BUSY flag is reset */
1444:Drivers/STM32F4xx_HAL_Driver/Src/stm32f4xx_hal_i2c.c ****     if(I2C_WaitOnFlagUntilTimeout(hi2c, I2C_FLAG_BUSY, SET, I2C_TIMEOUT_BUSY_FLAG) != HAL_OK)
 2811              		.loc 1 1444 0
 2812 002c F868     		ldr	r0, [r7, #12]
 2813 002e 4A49     		ldr	r1, .L172
 2814 0030 0122     		movs	r2, #1
 2815 0032 42F21073 		movw	r3, #10000
 2816 0036 FFF7FEFF 		bl	I2C_WaitOnFlagUntilTimeout
 2817 003a 0346     		mov	r3, r0
 2818 003c 002B     		cmp	r3, #0
 2819 003e 01D0     		beq	.L166
1445:Drivers/STM32F4xx_HAL_Driver/Src/stm32f4xx_hal_i2c.c ****     {
1446:Drivers/STM32F4xx_HAL_Driver/Src/stm32f4xx_hal_i2c.c ****       return HAL_BUSY;
 2820              		.loc 1 1446 0
 2821 0040 0223     		movs	r3, #2
 2822 0042 84E0     		b	.L165
 2823              	.L166:
1447:Drivers/STM32F4xx_HAL_Driver/Src/stm32f4xx_hal_i2c.c ****     }
1448:Drivers/STM32F4xx_HAL_Driver/Src/stm32f4xx_hal_i2c.c **** 
1449:Drivers/STM32F4xx_HAL_Driver/Src/stm32f4xx_hal_i2c.c ****     /* Process Locked */
1450:Drivers/STM32F4xx_HAL_Driver/Src/stm32f4xx_hal_i2c.c ****     __HAL_LOCK(hi2c);
 2824              		.loc 1 1450 0
 2825 0044 FB68     		ldr	r3, [r7, #12]
 2826 0046 93F83430 		ldrb	r3, [r3, #52]	@ zero_extendqisi2
 2827 004a 012B     		cmp	r3, #1
 2828 004c 01D1     		bne	.L167
 2829              		.loc 1 1450 0 is_stmt 0 discriminator 1
 2830 004e 0223     		movs	r3, #2
 2831 0050 7DE0     		b	.L165
 2832              	.L167:
 2833              		.loc 1 1450 0 discriminator 2
 2834 0052 FB68     		ldr	r3, [r7, #12]
 2835 0054 0122     		movs	r2, #1
 2836 0056 83F83420 		strb	r2, [r3, #52]
1451:Drivers/STM32F4xx_HAL_Driver/Src/stm32f4xx_hal_i2c.c ****     
1452:Drivers/STM32F4xx_HAL_Driver/Src/stm32f4xx_hal_i2c.c ****     /* Disable Pos */
1453:Drivers/STM32F4xx_HAL_Driver/Src/stm32f4xx_hal_i2c.c ****     hi2c->Instance->CR1 &= ~I2C_CR1_POS;
 2837              		.loc 1 1453 0 is_stmt 1 discriminator 2
 2838 005a FB68     		ldr	r3, [r7, #12]
 2839 005c 1B68     		ldr	r3, [r3]
 2840 005e FA68     		ldr	r2, [r7, #12]
 2841 0060 1268     		ldr	r2, [r2]
 2842 0062 1268     		ldr	r2, [r2]
 2843 0064 22F40062 		bic	r2, r2, #2048
 2844 0068 1A60     		str	r2, [r3]
1454:Drivers/STM32F4xx_HAL_Driver/Src/stm32f4xx_hal_i2c.c **** 
1455:Drivers/STM32F4xx_HAL_Driver/Src/stm32f4xx_hal_i2c.c ****     hi2c->State = HAL_I2C_STATE_BUSY_TX;
 2845              		.loc 1 1455 0 discriminator 2
ARM GAS  /tmp/cc5bMm9J.s 			page 76


 2846 006a FB68     		ldr	r3, [r7, #12]
 2847 006c 1222     		movs	r2, #18
 2848 006e 83F83520 		strb	r2, [r3, #53]
1456:Drivers/STM32F4xx_HAL_Driver/Src/stm32f4xx_hal_i2c.c ****     hi2c->ErrorCode = HAL_I2C_ERROR_NONE;
 2849              		.loc 1 1456 0 discriminator 2
 2850 0072 FB68     		ldr	r3, [r7, #12]
 2851 0074 0022     		movs	r2, #0
 2852 0076 9A63     		str	r2, [r3, #56]
1457:Drivers/STM32F4xx_HAL_Driver/Src/stm32f4xx_hal_i2c.c **** 
1458:Drivers/STM32F4xx_HAL_Driver/Src/stm32f4xx_hal_i2c.c ****     hi2c->pBuffPtr = pData;
 2853              		.loc 1 1458 0 discriminator 2
 2854 0078 FB68     		ldr	r3, [r7, #12]
 2855 007a BA68     		ldr	r2, [r7, #8]
 2856 007c 5A62     		str	r2, [r3, #36]
1459:Drivers/STM32F4xx_HAL_Driver/Src/stm32f4xx_hal_i2c.c ****     hi2c->XferSize = Size;
 2857              		.loc 1 1459 0 discriminator 2
 2858 007e FB68     		ldr	r3, [r7, #12]
 2859 0080 FA88     		ldrh	r2, [r7, #6]	@ movhi
 2860 0082 1A85     		strh	r2, [r3, #40]	@ movhi
1460:Drivers/STM32F4xx_HAL_Driver/Src/stm32f4xx_hal_i2c.c ****     hi2c->XferCount = Size;
 2861              		.loc 1 1460 0 discriminator 2
 2862 0084 FB68     		ldr	r3, [r7, #12]
 2863 0086 FA88     		ldrh	r2, [r7, #6]	@ movhi
 2864 0088 5A85     		strh	r2, [r3, #42]	@ movhi
1461:Drivers/STM32F4xx_HAL_Driver/Src/stm32f4xx_hal_i2c.c **** 
1462:Drivers/STM32F4xx_HAL_Driver/Src/stm32f4xx_hal_i2c.c ****     /* Set the I2C DMA transfer complete callback */
1463:Drivers/STM32F4xx_HAL_Driver/Src/stm32f4xx_hal_i2c.c ****     hi2c->hdmatx->XferCpltCallback = I2C_DMASlaveTransmitCplt;
 2865              		.loc 1 1463 0 discriminator 2
 2866 008a FB68     		ldr	r3, [r7, #12]
 2867 008c DB6A     		ldr	r3, [r3, #44]
 2868 008e 334A     		ldr	r2, .L172+4
 2869 0090 DA63     		str	r2, [r3, #60]
1464:Drivers/STM32F4xx_HAL_Driver/Src/stm32f4xx_hal_i2c.c **** 
1465:Drivers/STM32F4xx_HAL_Driver/Src/stm32f4xx_hal_i2c.c ****     /* Set the DMA error callback */
1466:Drivers/STM32F4xx_HAL_Driver/Src/stm32f4xx_hal_i2c.c ****     hi2c->hdmatx->XferErrorCallback = I2C_DMAError;
 2870              		.loc 1 1466 0 discriminator 2
 2871 0092 FB68     		ldr	r3, [r7, #12]
 2872 0094 DB6A     		ldr	r3, [r3, #44]
 2873 0096 324A     		ldr	r2, .L172+8
 2874 0098 9A64     		str	r2, [r3, #72]
1467:Drivers/STM32F4xx_HAL_Driver/Src/stm32f4xx_hal_i2c.c **** 
1468:Drivers/STM32F4xx_HAL_Driver/Src/stm32f4xx_hal_i2c.c ****     /* Enable the DMA Stream */
1469:Drivers/STM32F4xx_HAL_Driver/Src/stm32f4xx_hal_i2c.c ****     HAL_DMA_Start_IT(hi2c->hdmatx, (uint32_t)pData, (uint32_t)&hi2c->Instance->DR, Size);
 2875              		.loc 1 1469 0 discriminator 2
 2876 009a FB68     		ldr	r3, [r7, #12]
 2877 009c D86A     		ldr	r0, [r3, #44]
 2878 009e B968     		ldr	r1, [r7, #8]
 2879 00a0 FB68     		ldr	r3, [r7, #12]
 2880 00a2 1B68     		ldr	r3, [r3]
 2881 00a4 1033     		adds	r3, r3, #16
 2882 00a6 1A46     		mov	r2, r3
 2883 00a8 FB88     		ldrh	r3, [r7, #6]
 2884 00aa FFF7FEFF 		bl	HAL_DMA_Start_IT
1470:Drivers/STM32F4xx_HAL_Driver/Src/stm32f4xx_hal_i2c.c **** 
1471:Drivers/STM32F4xx_HAL_Driver/Src/stm32f4xx_hal_i2c.c ****     /* Enable DMA Request */
1472:Drivers/STM32F4xx_HAL_Driver/Src/stm32f4xx_hal_i2c.c ****     hi2c->Instance->CR2 |= I2C_CR2_DMAEN;
 2885              		.loc 1 1472 0 discriminator 2
ARM GAS  /tmp/cc5bMm9J.s 			page 77


 2886 00ae FB68     		ldr	r3, [r7, #12]
 2887 00b0 1B68     		ldr	r3, [r3]
 2888 00b2 FA68     		ldr	r2, [r7, #12]
 2889 00b4 1268     		ldr	r2, [r2]
 2890 00b6 5268     		ldr	r2, [r2, #4]
 2891 00b8 42F40062 		orr	r2, r2, #2048
 2892 00bc 5A60     		str	r2, [r3, #4]
1473:Drivers/STM32F4xx_HAL_Driver/Src/stm32f4xx_hal_i2c.c **** 
1474:Drivers/STM32F4xx_HAL_Driver/Src/stm32f4xx_hal_i2c.c ****     /* Enable Address Acknowledge */
1475:Drivers/STM32F4xx_HAL_Driver/Src/stm32f4xx_hal_i2c.c ****     hi2c->Instance->CR1 |= I2C_CR1_ACK;
 2893              		.loc 1 1475 0 discriminator 2
 2894 00be FB68     		ldr	r3, [r7, #12]
 2895 00c0 1B68     		ldr	r3, [r3]
 2896 00c2 FA68     		ldr	r2, [r7, #12]
 2897 00c4 1268     		ldr	r2, [r2]
 2898 00c6 1268     		ldr	r2, [r2]
 2899 00c8 42F48062 		orr	r2, r2, #1024
 2900 00cc 1A60     		str	r2, [r3]
1476:Drivers/STM32F4xx_HAL_Driver/Src/stm32f4xx_hal_i2c.c **** 
1477:Drivers/STM32F4xx_HAL_Driver/Src/stm32f4xx_hal_i2c.c ****     /* Wait until ADDR flag is set */
1478:Drivers/STM32F4xx_HAL_Driver/Src/stm32f4xx_hal_i2c.c ****     if(I2C_WaitOnFlagUntilTimeout(hi2c, I2C_FLAG_ADDR, RESET, I2C_TIMEOUT_ADDR_SLAVE) != HAL_OK)
 2901              		.loc 1 1478 0 discriminator 2
 2902 00ce F868     		ldr	r0, [r7, #12]
 2903 00d0 2449     		ldr	r1, .L172+12
 2904 00d2 0022     		movs	r2, #0
 2905 00d4 42F21073 		movw	r3, #10000
 2906 00d8 FFF7FEFF 		bl	I2C_WaitOnFlagUntilTimeout
 2907 00dc 0346     		mov	r3, r0
 2908 00de 002B     		cmp	r3, #0
 2909 00e0 01D0     		beq	.L168
1479:Drivers/STM32F4xx_HAL_Driver/Src/stm32f4xx_hal_i2c.c ****     {
1480:Drivers/STM32F4xx_HAL_Driver/Src/stm32f4xx_hal_i2c.c ****       return HAL_TIMEOUT;
 2910              		.loc 1 1480 0
 2911 00e2 0323     		movs	r3, #3
 2912 00e4 33E0     		b	.L165
